LX51 LINKER/LOCATER V4.64.0.0                                                           09/23/2013  15:07:48  PAGE 1


LX51 LINKER/LOCATER V4.64.0.0, INVOKED BY:
C:\KEIL\C51\BIN\LX51.EXE .\build\main.obj, .\build\gzll_timer_isr.obj, .\build\gzll_radio_isr.obj, .\build\gzll_mcu.obj,
>>  .\build\gzll.obj, .\build\hal_nrf_hw.obj, .\build\hal_aes.obj, .\build\hal_nrf.obj, .\build\hal_delay.obj, .\build\l
>> ib_crypt_lu1.obj, .\build\lib_crypt.obj TO .\build\gzll_host_nrf24lu1p REGFILE (.\build\gzll_host_nrf24lu1p.ORC) PRIN
>> T (.\lst\gzll_host_nrf24lu1p.map) WARNINGLEVEL (0) REMOVEUNUSED OVERLAY (?PR?_HAL_NRF_WRITE_REG?HAL_NRF ! *, ?PR?_HAL
>> _NRF_READ_MULTIBYTE_REG?HAL_NRF ! *, ?PR?_GZLL_SET_TIMER_PERIOD?GZLL_MCU ! *, ?PR?_HAL_NRF_SET_POWER_MODE?HAL_NRF ! *
>> , ?PR?_HAL_NRF_SET_RF_CHANNEL?HAL_NRF ! *, ?PR?_HAL_NRF_SET_AUTO_RETR?HAL_NRF ! *, ?PR?_GZLL_START_NEW_TX?GZLL ! *, ?
>> PR?_GZLL_LFSR_GET?GZLL ! *) CLASSES (XDATA (X:0X8000-X:0X87FF), HDATA (X:0X8000-X:0X87FF), CODE (C:0X0-C:0X3FFF), CON
>> ST (C:0X0-C:0X3FFF), ECODE (C:0X0-C:0X3FFF), HCONST (C:0X0-C:0X3FFF))


CPU MODE:     8051 MODE
MEMORY MODEL: SMALL WITH FLOATING POINT ARITHMETIC


INPUT MODULES INCLUDED:
  .\build\main.obj (MAIN)
         COMMENT TYPE 0: C51 V9.51
  .\build\gzll_timer_isr.obj (GZLL_TIMER_ISR)
         COMMENT TYPE 0: C51 V9.51
  .\build\gzll_radio_isr.obj (GZLL_RADIO_ISR)
         COMMENT TYPE 0: C51 V9.51
  .\build\gzll_mcu.obj (GZLL_MCU)
         COMMENT TYPE 0: C51 V9.51
  .\build\gzll.obj (GZLL)
         COMMENT TYPE 0: C51 V9.51
  .\build\hal_nrf_hw.obj (HAL_NRF_HW)
         COMMENT TYPE 0: C51 V9.51
  .\build\hal_aes.obj (HAL_AES)
         COMMENT TYPE 0: C51 V9.51
  .\build\hal_nrf.obj (HAL_NRF)
         COMMENT TYPE 0: C51 V9.51
  .\build\hal_delay.obj (HAL_DELAY)
         COMMENT TYPE 0: C51 V9.51
  .\build\lib_crypt_lu1.obj (LIB_CRYPT_LU1)
         COMMENT TYPE 0: C51 V9.51
  .\build\lib_crypt.obj (LIB_CRYPT)
         COMMENT TYPE 0: C51 V9.51
  C:\KEIL\C51\LIB\C51FPS.LIB (?C?FPADD)
         COMMENT TYPE 1: A51 / ASM51 Assembler
  C:\KEIL\C51\LIB\C51FPS.LIB (?C?FPMUL)
         COMMENT TYPE 1: A51 / ASM51 Assembler
  C:\KEIL\C51\LIB\C51FPS.LIB (?C?FPDIV)
         COMMENT TYPE 1: A51 / ASM51 Assembler
  C:\KEIL\C51\LIB\C51FPS.LIB (?C?FCAST)
         COMMENT TYPE 1: A51 / ASM51 Assembler
  C:\KEIL\C51\LIB\C51FPS.LIB (?C?CASTF)
         COMMENT TYPE 1: A51 / ASM51 Assembler
  C:\KEIL\C51\LIB\C51FPS.LIB (?C?FPGETOPN)
         COMMENT TYPE 1: A51 / ASM51 Assembler
  C:\KEIL\C51\LIB\C51S.LIB (?C_STARTUP)
         COMMENT TYPE 1: A51 / ASM51 Assembler
  C:\KEIL\C51\LIB\C51S.LIB (?C?CLDPTR)
         COMMENT TYPE 1: A51 / ASM51 Assembler
  C:\KEIL\C51\LIB\C51S.LIB (?C?CLDOPTR)
         COMMENT TYPE 1: A51 / ASM51 Assembler
  C:\KEIL\C51\LIB\C51S.LIB (?C?CSTPTR)
         COMMENT TYPE 1: A51 / ASM51 Assembler
  C:\KEIL\C51\LIB\C51S.LIB (?C?CSTOPTR)
         COMMENT TYPE 1: A51 / ASM51 Assembler
  C:\KEIL\C51\LIB\C51S.LIB (?C?IMUL)
         COMMENT TYPE 1: A51 / ASM51 Assembler
  C:\KEIL\C51\LIB\C51S.LIB (?C?UIDIV)
         COMMENT TYPE 1: A51 / ASM51 Assembler
  C:\KEIL\C51\LIB\C51S.LIB (?C?LNEG)
         COMMENT TYPE 1: A51 / ASM51 Assembler
LX51 LINKER/LOCATER V4.64.0.0                                                         09/23/2013  15:07:48  PAGE 2


  C:\KEIL\C51\LIB\C51S.LIB (?C?COPYE2)
         COMMENT TYPE 1: A51 / ASM51 Assembler
  C:\KEIL\C51\LIB\C51S.LIB (?C_INIT)
         COMMENT TYPE 1: A51 / ASM51 Assembler


ACTIVE MEMORY CLASSES OF MODULE:  .\build\gzll_host_nrf24lu1p (MAIN)

BASE        START       END         USED      MEMORY CLASS
==========================================================
X:000000H   X:008000H   X:0087FFH   000055H   XDATA
X:000000H   X:008000H   X:0087FFH             HDATA
C:000000H   C:000000H   C:003FFFH   0013F5H   CODE
C:000000H   C:000000H   C:003FFFH   000025H   CONST
C:000000H   C:000000H   C:003FFFH             ECODE
B00:0000H   C:000000H   C:003FFFH             HCONST
I:000000H   I:000000H   I:00007FH   000061H   DATA
I:000000H   I:000000H   I:0000FFH   000001H   IDATA


MEMORY MAP OF MODULE:  .\build\gzll_host_nrf24lu1p (MAIN)


START     STOP      LENGTH    ALIGN  RELOC    MEMORY CLASS   SEGMENT NAME
=========================================================================

* * * * * * * * * * *   D A T A   M E M O R Y   * * * * * * * * * * * * *
000000H   000007H   000008H   ---    AT..     DATA           "REG BANK 0"
000008H   000017H   000010H   BYTE   UNIT     DATA           ?DT?LIB_CRYPT
000018H   000019H   000002H   BYTE   UNIT     DATA           ?DT?_GZLL_START_NEW_TX?GZLL
00001AH   00001BH   000002H   BYTE   UNIT     DATA           ?DT?_HAL_NRF_SET_POWER_MODE?HAL_NRF
00001CH   00001CH   000001H   BYTE   UNIT     DATA           ?DT?_HAL_NRF_SET_AUTO_RETR?HAL_NRF
00001DH   00001DH   000001H   BYTE   UNIT     DATA           ?DT?_HAL_NRF_SET_RF_CHANNEL?HAL_NRF
00001EH   00001EH   000001H   BYTE   UNIT     DATA           ?DT?_HAL_NRF_WRITE_REG?HAL_NRF
00001FH   00001FH   000001H   ---    ---      **GAP**
000020H   000021H   000002H   BYTE   BITADDR  DATA           ?BA?GZLL
000022H   000055H   000034H   BYTE   UNIT     DATA           _DATA_GROUP_
000056H   000061H   00000CH   BYTE   UNIT     DATA           ?DT?_HAL_NRF_READ_MULTIBYTE_REG?HAL_NRF
000062H   000062H   000001H   BYTE   UNIT     IDATA          ?STACK

* * * * * * * * * * *   C O D E   M E M O R Y   * * * * * * * * * * * * *
000000H   000002H   000003H   ---    OFFS..   CODE           ?CO??C_STARTUP?0
000003H   000027H   000025H   BYTE   UNIT     CONST          ?CO?GZLL
000028H   00002AH   000003H   ---    ---      **GAP**
00002BH   00002DH   000003H   BYTE   OFFS..   CODE           ?GZLL_TIMER_ISR?0002B
00002EH   000038H   00000BH   BYTE   INBLOCK  CODE           ?PR?GZLL_INTERUPTS_ENABLE_RFCK_DISABLE?GZLL
000039H   000040H   000008H   BYTE   INBLOCK  CODE           ?PR?HAL_NRF_GET_CLEAR_IRQ_FLAGS?HAL_NRF
000041H   00004AH   00000AH   BYTE   INBLOCK  CODE           ?PR?HAL_NRF_GET_ADDRESS_WIDTH?HAL_NRF
00004BH   00004DH   000003H   BYTE   OFFS..   CODE           ?GZLL_RADIO_ISR?0004B
00004EH   00057BH   00052EH   BYTE   UNIT     CODE           ?C?LIB_CODE
00057CH   000607H   00008CH   BYTE   UNIT     CODE           ?C_C51STARTUP
000608H   000646H   00003FH   BYTE   UNIT     CODE           ?C_INITSEG
000647H   000676H   000030H   BYTE   INBLOCK  CODE           ?PR?MAIN?MAIN
000677H   0007C1H   00014BH   BYTE   INBLOCK  CODE           ?PR?GZLL_INIT?GZLL
0007C2H   0007DDH   00001CH   BYTE   INBLOCK  CODE           ?PR?_GZLL_SET_RADIO_POWER_ON?GZLL
0007DEH   0007FAH   00001DH   BYTE   INBLOCK  CODE           ?PR?_HAL_NRF_SET_POWER_MODE?HAL_NRF
0007FBH   0007FFH   000005H   BYTE   INBLOCK  CODE           ?PR?HAL_NRF_READ_RX_PAYLOAD_WIDTH?HAL_NRF
000800H   000858H   000059H   BYTE   INBLOCK  CODE           ?PR?T2_ISR?GZLL_TIMER_ISR
000859H   000965H   00010DH   BYTE   INBLOCK  CODE           ?PR?GZLL_TIMER_ISR_FUNCTION?GZLL
000966H   0009AEH   000049H   BYTE   INBLOCK  CODE           ?PR?NRF_ISR?GZLL_RADIO_ISR
0009AFH   0009C7H   000019H   BYTE   INBLOCK  CODE           ?PR?_DELAY_US?HAL_DELAY
0009C8H   000B6CH   0001A5H   BYTE   INBLOCK  CODE           ?PR?GZLL_RADIO_ISR_FUNCTION?GZLL
000B6DH   000B9EH   000032H   BYTE   INBLOCK  CODE           ?PR?GZLL_SET_SYSTEM_IDLE?GZLL
000B9FH   000BB6H   000018H   BYTE   INBLOCK  CODE           ?PR?GZLL_CHM_HOLD_RX_CHANNEL?GZLL
000BB7H   000BD1H   00001BH   BYTE   INBLOCK  CODE           ?PR?GZLL_CHM_GET_CURRENT_RX_CHANNEL?GZLL
LX51 LINKER/LOCATER V4.64.0.0                                                         09/23/2013  15:07:48  PAGE 3


000BD2H   000C49H   000078H   BYTE   INBLOCK  CODE           ?PR?_GZLL_START_NEW_TX?GZLL
000C4AH   000C5DH   000014H   BYTE   INBLOCK  CODE           ?PR?_HAL_NRF_SET_RF_CHANNEL?HAL_NRF
000C5EH   000C7AH   00001DH   BYTE   INBLOCK  CODE           ?PR?GZLL_SET_RADIO_AUTO_RETRIES?GZLL
000C7BH   000C9BH   000021H   BYTE   INBLOCK  CODE           ?PR?_HAL_NRF_SET_AUTO_RETR?HAL_NRF
000C9CH   000CBAH   00001FH   BYTE   INBLOCK  CODE           ?PR?_HAL_NRF_WRITE_REG?HAL_NRF
000CBBH   000CFEH   000044H   BYTE   INBLOCK  CODE           ?PR?_HAL_NRF_SET_ADDRESS?HAL_NRF
000CFFH   000D11H   000013H   BYTE   INBLOCK  CODE           ?PR?HAL_NRF_CLEAR_IRQ_FLAGS_GET_STATUS?HAL_NRF
000D12H   000D50H   00003FH   BYTE   INBLOCK  CODE           ?PR?_HAL_NRF_CLOSE_PIPE?HAL_NRF
000D51H   000D6CH   00001CH   BYTE   INBLOCK  CODE           ?PR?_HAL_NRF_READ_REG?HAL_NRF
000D6DH   000DC2H   000056H   BYTE   INBLOCK  CODE           ?PR?_HAL_NRF_OPEN_PIPE?HAL_NRF
000DC3H   000E21H   00005FH   BYTE   INBLOCK  CODE           ?PR?GZLL_RX_START?GZLL
000E22H   000E3CH   00001BH   BYTE   INBLOCK  CODE           ?PR?_HAL_NRF_SET_OPERATION_MODE?HAL_NRF
000E3DH   000E5CH   000020H   BYTE   INBLOCK  CODE           ?PR?GZLL_GOTO_IDLE?GZLL
000E5DH   000EEBH   00008FH   BYTE   INBLOCK  CODE           ?PR?GZLL_CHM_GET_RX_CE_OFFSET?GZLL
000EECH   000EF8H   00000DH   BYTE   INBLOCK  CODE           ?PR?MCU_INIT?GZLL_MCU
000EF9H   000F01H   000009H   BYTE   INBLOCK  CODE           ?PR?HAL_NRF_GET_TRANSMIT_ATTEMPTS?HAL_NRF
000F02H   000F0AH   000009H   BYTE   INBLOCK  CODE           ?PR?HAL_NRF_GET_CARRIER_DETECT?HAL_NRF
000F0BH   000F14H   00000AH   BYTE   INBLOCK  CODE           ?PR?HAL_NRF_TX_FIFO_EMPTY?HAL_NRF
000F15H   000F26H   000012H   BYTE   INBLOCK  CODE           ?PR?GZLL_RELOAD_TRIES_PR_CHANNEL_COUNTER?GZLL
000F27H   000F39H   000013H   BYTE   INBLOCK  CODE           ?PR?GZLL_INTERUPTS_DISABLE_RFCK_ENABLE?GZLL
000F3AH   000F48H   00000FH   BYTE   INBLOCK  CODE           ?PR?GZLL_RX_FIFO_FLUSH?GZLL
000F49H   000FC0H   000078H   BYTE   INBLOCK  CODE           ?PR?_GZLL_RX_FIFO_READ?GZLL
000FC1H   000FF7H   000037H   BYTE   INBLOCK  CODE           ?PR?_GZLL_SET_TIMER_PERIOD?GZLL_MCU
000FF8H   000FFCH   000005H   BYTE   INBLOCK  CODE           ?PR?_HAL_NRF_READ_RX_PAYLOAD?HAL_NRF
000FFDH   000FFFH   000003H   ---    ---      **GAP**
001000H   001009H   00000AH   BYTE   INBLOCK  CODE           ?PR?HAL_NRF_RX_FIFO_EMPTY?HAL_NRF
00100AH   001040H   000037H   BYTE   INBLOCK  CODE           ?PR?_GZLL_LFSR_GET?GZLL
001041H   00105FH   00001FH   BYTE   INBLOCK  CODE           ?PR?_GZLL_DELAY_50US?GZLL
001060H   0010C5H   000066H   BYTE   INBLOCK  CODE           ?PR?GZLL_CHM_EXECUTE?GZLL
0010C6H   0010D5H   000010H   BYTE   INBLOCK  CODE           ?PR?GZLL_CHM_RESET_RX_CHANNEL_INDEX?GZLL
0010D6H   0010FCH   000027H   BYTE   INBLOCK  CODE           ?PR?GZLL_CHM_GET_NEXT_RX_CHANNEL?GZLL
0010FDH   001135H   000039H   BYTE   INBLOCK  CODE           ?PR?GZLL_CHM_GET_TX_CE_OFFSET?GZLL
001136H   00113FH   00000AH   BYTE   INBLOCK  CODE           ?PR?_HAL_NRF_RW?HAL_NRF_HW
001140H   00126EH   00012FH   BYTE   INBLOCK  CODE           ?PR?_HAL_NRF_READ_MULTIBYTE_REG?HAL_NRF
00126FH   00127BH   00000DH   BYTE   INBLOCK  CODE           ?PR?HAL_NRF_GET_RX_DATA_SOURCE?HAL_NRF
00127CH   001284H   000009H   BYTE   INBLOCK  CODE           ?PR?HAL_NRF_NOP?HAL_NRF
001285H   0012B3H   00002FH   BYTE   INBLOCK  CODE           ?PR?_HAL_NRF_SET_CRC_MODE?HAL_NRF
0012B4H   0012BCH   000009H   BYTE   INBLOCK  CODE           ?PR?HAL_NRF_FLUSH_RX?HAL_NRF
0012BDH   0012C5H   000009H   BYTE   INBLOCK  CODE           ?PR?HAL_NRF_FLUSH_TX?HAL_NRF
0012C6H   0012DCH   000017H   BYTE   INBLOCK  CODE           ?PR?_HAL_NRF_SET_ADDRESS_WIDTH?HAL_NRF
0012DDH   001300H   000024H   BYTE   INBLOCK  CODE           ?PR?_HAL_NRF_SET_OUTPUT_POWER?HAL_NRF
001301H   00132BH   00002BH   BYTE   INBLOCK  CODE           ?PR?_HAL_NRF_SET_DATARATE?HAL_NRF
00132CH   001337H   00000CH   BYTE   INBLOCK  CODE           ?PR?_HAL_NRF_SETUP_DYNAMIC_PAYLOAD?HAL_NRF
001338H   00135AH   000023H   BYTE   INBLOCK  CODE           ?PR?_HAL_NRF_ENABLE_DYNAMIC_PAYLOAD?HAL_NRF
00135BH   00137BH   000021H   BYTE   INBLOCK  CODE           ?PR?_HAL_NRF_ENABLE_ACK_PAYLOAD?HAL_NRF
00137CH   00141FH   0000A4H   BYTE   INBLOCK  CODE           ?PR?_HAL_NRF_WRITE_MULTIBYTE_REG?HAL_NRF

* * * * * * * * * * *  X D A T A   M E M O R Y  * * * * * * * * * * * * *
008000H   00804DH   00004EH   BYTE   UNIT     XDATA          ?XD?GZLL
00804EH   008052H   000005H   BYTE   UNIT     XDATA          ?XD?LIB_CRYPT_LU1
008053H   008054H   000002H   BYTE   UNIT     XDATA          ?XD?GZLL_TIMER_ISR

* * * * * * * * *   R E M O V E D     S E G M E N T S   * * * * * * * *
   *DEL*:           000056H   BYTE   INBLOCK  CODE           ?PR?_GZLL_SET_PARAM?GZLL
   *DEL*:           000022H   BYTE   INBLOCK  CODE           ?PR?_GZLL_GET_PARAM_MAX?GZLL
   *DEL*:           000021H   BYTE   UNIT     DATA           ?DT?_GZLL_GET_PARAM_MAX?GZLL
   *DEL*:           000025H   BYTE   INBLOCK  CODE           ?PR?_GZLL_GET_PARAM?GZLL
   *DEL*:           000006H   BYTE   INBLOCK  CODE           ?PR?GZLL_GET_CHANNEL_TAB_SIZE?GZLL
   *DEL*:           00001CH   BYTE   INBLOCK  CODE           ?PR?_GZLL_GET_CHANNELS?GZLL
   *DEL*:           000003H   BYTE   UNIT     DATA           ?DT?_GZLL_GET_CHANNELS?GZLL
   *DEL*:           00002FH   BYTE   INBLOCK  CODE           ?PR?_GZLL_SET_CHANNELS?GZLL
   *DEL*:           000033H   BYTE   INBLOCK  CODE           ?PR?_GZLL_SET_ADDRESS?GZLL
   *DEL*:           000004H   BYTE   UNIT     DATA           ?DT?_GZLL_SET_ADDRESS?GZLL
   *DEL*:           000009H   BYTE   INBLOCK  CODE           ?PR?_GZLL_GET_ADDRESS?GZLL
   *DEL*:           000034H   BYTE   INBLOCK  CODE           ?PR?_GZLL_ACK_PAYLOAD_WRITE?GZLL
LX51 LINKER/LOCATER V4.64.0.0                                                         09/23/2013  15:07:48  PAGE 4


   *DEL*:           000005H   BYTE   UNIT     DATA           ?DT?_GZLL_ACK_PAYLOAD_WRITE?GZLL
   *DEL*:           00015EH   BYTE   INBLOCK  CODE           ?PR?_GZLL_TX_DATA?GZLL
   *DEL*:           00000DH   BYTE   UNIT     DATA           ?DT?_GZLL_TX_DATA?GZLL
   *DEL*:           000029H   BYTE   INBLOCK  CODE           ?PR?GZLL_DEV_MODE2_RX_CHANNEL_MATCH?GZLL
   *DEL*:           000006H   BYTE   INBLOCK  CODE           ?PR?GZLL_TX_SUCCESS?GZLL
   *DEL*:           000009H   BYTE   INBLOCK  CODE           ?PR?GZLL_GET_TX_ATTEMPTS?GZLL
   *DEL*:           000009H   BYTE   INBLOCK  CODE           ?PR?GZLL_GET_TX_CHANNEL_SWITCHES?GZLL
   *DEL*:           000009H   BYTE   INBLOCK  CODE           ?PR?GZLL_TX_FIFO_FLUSH?GZLL
   *DEL*:           000006H   BYTE   INBLOCK  CODE           ?PR?GZLL_GET_STATE?GZLL
   *DEL*:           000006H   BYTE   INBLOCK  CODE           ?PR?GZLL_RADIO_ACTIVE?GZLL
   *DEL*:           000028H   BYTE   INBLOCK  CODE           ?PR?GZLL_GET_RX_DATA_READY_PIPE_NUMBER?GZLL
   *DEL*:           00001CH   BYTE   INBLOCK  CODE           ?PR?_GZLL_RX_DATA_READY?GZLL
   *DEL*:           000001H   BYTE   UNIT     DATA           ?DT?_GZLL_RX_DATA_READY?GZLL
   *DEL*:           000006H   BYTE   INBLOCK  CODE           ?PR?GZLL_RX_POWER_HIGH?GZLL
   *DEL*:           00004DH   BYTE   INBLOCK  CODE           ?PR?_HAL_AES_SETUP?HAL_AES
   *DEL*:           000008H   BYTE   UNIT     DATA           ?DT?_HAL_AES_SETUP?HAL_AES
   *DEL*:           00002BH   BYTE   INBLOCK  CODE           ?PR?_HAL_AES_CRYPT?HAL_AES
   *DEL*:           000006H   BYTE   UNIT     DATA           ?DT?_HAL_AES_CRYPT?HAL_AES
   *DEL*:           000123H   BYTE   INBLOCK  CODE           ?PR?_HAL_AES_GET_DEC_KEY?HAL_AES
   *DEL*:           000007H   BYTE   UNIT     DATA           ?DT?_HAL_AES_GET_DEC_KEY?HAL_AES
   *DEL*:           00000EH   BYTE   INBLOCK  CODE           ?PR?_AES_SET_MODE?HAL_AES
   *DEL*:           00000CH   BYTE   INBLOCK  CODE           ?PR?_AES_SELECT_E_D?HAL_AES
   *DEL*:           000004H   BYTE   INBLOCK  CODE           ?PR?AES_GO?HAL_AES
   *DEL*:           000006H   BYTE   INBLOCK  CODE           ?PR?AES_BUSY?HAL_AES
   *DEL*:           000036H   BYTE   INBLOCK  CODE           ?PR?_AES_DATA_WRITE_BUF?HAL_AES
   *DEL*:           000005H   BYTE   UNIT     DATA           ?DT?_AES_DATA_WRITE_BUF?HAL_AES
   *DEL*:           000031H   BYTE   INBLOCK  CODE           ?PR?_AES_DATA_READ_BUF?HAL_AES
   *DEL*:           000005H   BYTE   UNIT     DATA           ?DT?_AES_DATA_READ_BUF?HAL_AES
   *DEL*:           000036H   BYTE   INBLOCK  CODE           ?PR?_AES_KEYIN_WRITE_BUF?HAL_AES
   *DEL*:           000005H   BYTE   UNIT     DATA           ?DT?_AES_KEYIN_WRITE_BUF?HAL_AES
   *DEL*:           000031H   BYTE   INBLOCK  CODE           ?PR?_AES_INITVECT_WRITE_BUF?HAL_AES
   *DEL*:           000005H   BYTE   UNIT     DATA           ?DT?_AES_INITVECT_WRITE_BUF?HAL_AES
   *DEL*:           000100H   BYTE   UNIT     CONST          ?CO?HAL_AES
   *DEL*:           000062H   BYTE   INBLOCK  CODE           ?PR?_HAL_NRF_SET_IRQ_MODE?HAL_NRF
   *DEL*:           000003H   BYTE   UNIT     DATA           ?DT?_HAL_NRF_SET_IRQ_MODE?HAL_NRF
   *DEL*:           000011H   BYTE   INBLOCK  CODE           ?PR?_HAL_NRF_CLEAR_IRQ_FLAG?HAL_NRF
   *DEL*:           000008H   BYTE   INBLOCK  CODE           ?PR?HAL_NRF_GET_IRQ_FLAGS?HAL_NRF
   *DEL*:           000035H   BYTE   INBLOCK  CODE           ?PR?_HAL_NRF_GET_ADDRESS?HAL_NRF
   *DEL*:           000004H   BYTE   UNIT     DATA           ?DT?_HAL_NRF_GET_ADDRESS?HAL_NRF
   *DEL*:           000007H   BYTE   INBLOCK  CODE           ?PR?_HAL_NRF_SET_RX_PAYLOAD_WIDTH?HAL_NRF
   *DEL*:           000090H   BYTE   INBLOCK  CODE           ?PR?_HAL_NRF_GET_PIPE_STATUS?HAL_NRF
   *DEL*:           000005H   BYTE   UNIT     DATA           ?DT?_HAL_NRF_GET_PIPE_STATUS?HAL_NRF
   *DEL*:           000005H   BYTE   INBLOCK  CODE           ?PR?HAL_NRF_GET_AUTO_RETR_STATUS?HAL_NRF
   *DEL*:           000016H   BYTE   INBLOCK  CODE           ?PR?HAL_NRF_GET_PACKET_LOST_CTR?HAL_NRF
   *DEL*:           000037H   BYTE   INBLOCK  CODE           ?PR?_HAL_NRF_GET_RX_PAYLOAD_WIDTH?HAL_NRF
   *DEL*:           000001H   BYTE   UNIT     DATA           ?DT?_HAL_NRF_GET_RX_PAYLOAD_WIDTH?HAL_NRF
   *DEL*:           00000CH   BYTE   INBLOCK  CODE           ?PR?HAL_NRF_RX_FIFO_FULL?HAL_NRF
   *DEL*:           00000CH   BYTE   INBLOCK  CODE           ?PR?HAL_NRF_TX_FIFO_FULL?HAL_NRF
   *DEL*:           000016H   BYTE   INBLOCK  CODE           ?PR?HAL_NRF_GET_TX_FIFO_STATUS?HAL_NRF
   *DEL*:           00000AH   BYTE   INBLOCK  CODE           ?PR?HAL_NRF_GET_RX_FIFO_STATUS?HAL_NRF
   *DEL*:           000005H   BYTE   INBLOCK  CODE           ?PR?HAL_NRF_GET_FIFO_STATUS?HAL_NRF
   *DEL*:           000001H   BYTE   INBLOCK  CODE           ?PR?HAL_NRF_ACTIVATE_FEATURES?HAL_NRF
   *DEL*:           000023H   BYTE   INBLOCK  CODE           ?PR?_HAL_NRF_ENABLE_DYNAMIC_ACK?HAL_NRF
   *DEL*:           000002H   BYTE   UNIT     DATA           ?DT?_HAL_NRF_ENABLE_DYNAMIC_ACK?HAL_NRF
   *DEL*:           000007H   BYTE   INBLOCK  CODE           ?PR?_HAL_NRF_WRITE_TX_PAYLOAD?HAL_NRF
   *DEL*:           000007H   BYTE   INBLOCK  CODE           ?PR?_HAL_NRF_WRITE_TX_PAYLOAD_NOACK?HAL_NRF
   *DEL*:           00000AH   BYTE   INBLOCK  CODE           ?PR?_HAL_NRF_WRITE_ACK_PAYLOAD?HAL_NRF
   *DEL*:           000005H   BYTE   UNIT     DATA           ?DT?_HAL_NRF_WRITE_ACK_PAYLOAD?HAL_NRF
   *DEL*:           00000AH   BYTE   INBLOCK  CODE           ?PR?HAL_NRF_REUSE_TX?HAL_NRF
   *DEL*:           000013H   BYTE   INBLOCK  CODE           ?PR?HAL_NRF_GET_REUSE_TX_STATUS?HAL_NRF
   *DEL*:           000026H   BYTE   INBLOCK  CODE           ?PR?_HAL_NRF_SET_PLL_MODE?HAL_NRF
   *DEL*:           000002H   BYTE   UNIT     DATA           ?DT?_HAL_NRF_SET_PLL_MODE?HAL_NRF
   *DEL*:           000029H   BYTE   INBLOCK  CODE           ?PR?_HAL_NRF_ENABLE_CONTINIOUS_WAVE?HAL_NRF
   *DEL*:           000002H   BYTE   UNIT     DATA           ?DT?_HAL_NRF_ENABLE_CONTINIOUS_WAVE?HAL_NRF
   *DEL*:           00002AH   BYTE   INBLOCK  CODE           ?PR?_DELAY_MS?HAL_DELAY
LX51 LINKER/LOCATER V4.64.0.0                                                         09/23/2013  15:07:48  PAGE 5


   *DEL*:           000047H   BYTE   INBLOCK  CODE           ?PR?_LIB_CRYPT_GENERATE_LS5B?LIB_CRYPT_LU1
   *DEL*:           000003H   BYTE   UNIT     DATA           ?DT?_LIB_CRYPT_GENERATE_LS5B?LIB_CRYPT_LU1
   *DEL*:           000022H   BYTE   INBLOCK  CODE           ?PR?_LIB_CRYPT_INIT?LIB_CRYPT
   *DEL*:           000006H   BYTE   UNIT     DATA           ?DT?_LIB_CRYPT_INIT?LIB_CRYPT
   *DEL*:           000022H   BYTE   INBLOCK  CODE           ?PR?_LIB_CRYPT_SET_COUNTER?LIB_CRYPT
   *DEL*:           000003H   BYTE   UNIT     DATA           ?DT?_LIB_CRYPT_SET_COUNTER?LIB_CRYPT
   *DEL*:           000062H   BYTE   INBLOCK  CODE           ?PR?_LIB_CRYPT?LIB_CRYPT
   *DEL*:           00001AH   BYTE   UNIT     DATA           ?DT?_LIB_CRYPT?LIB_CRYPT



OVERLAY MAP OF MODULE:   .\build\gzll_host_nrf24lu1p (MAIN)


FUNCTION/MODULE                                BIT_GROUP   DATA_GROUP 
--> CALLED FUNCTION/MODULE                    START  STOP  START  STOP
======================================================================
T2_ISR/GZLL_TIMER_ISR                         ----- -----  ----- -----
  +--> GZLL_TIMER_ISR_FUNCTION/GZLL

GZLL_TIMER_ISR_FUNCTION/GZLL                  ----- -----  0022H 0023H
  +--> GZLL_CHM_EXECUTE/GZLL
  +--> _GZLL_SET_TIMER_PERIOD/GZLL_MCU
  +--> GZLL_CHM_GET_CURRENT_RX_CHANNEL/GZLL
  +--> _HAL_NRF_SET_RF_CHANNEL/HAL_NRF
  +--> GZLL_CHM_GET_RX_CE_OFFSET/GZLL
  +--> _GZLL_SET_RADIO_POWER_ON/GZLL
  +--> GZLL_SET_SYSTEM_IDLE/GZLL
  +--> GZLL_CHM_GET_TX_CE_OFFSET/GZLL
  +--> _DELAY_US/HAL_DELAY

GZLL_CHM_EXECUTE/GZLL                         ----- -----  ----- -----

_GZLL_SET_TIMER_PERIOD/GZLL_MCU               ----- -----  ----- -----

GZLL_CHM_GET_CURRENT_RX_CHANNEL/GZLL          ----- -----  ----- -----

_HAL_NRF_SET_RF_CHANNEL/HAL_NRF               ----- -----  ----- -----
  +--> _HAL_NRF_WRITE_REG/HAL_NRF

_HAL_NRF_WRITE_REG/HAL_NRF                    ----- -----  ----- -----

GZLL_CHM_GET_RX_CE_OFFSET/GZLL                ----- -----  ----- -----

_GZLL_SET_RADIO_POWER_ON/GZLL                 ----- -----  ----- -----
  +--> _HAL_NRF_SET_POWER_MODE/HAL_NRF

_HAL_NRF_SET_POWER_MODE/HAL_NRF               ----- -----  ----- -----
  +--> _HAL_NRF_READ_REG/HAL_NRF
  +--> _HAL_NRF_WRITE_REG/HAL_NRF

_HAL_NRF_READ_REG/HAL_NRF                     ----- -----  ----- -----

GZLL_SET_SYSTEM_IDLE/GZLL                     ----- -----  ----- -----
  +--> _GZLL_DELAY_50US/GZLL
  +--> _GZLL_SET_RADIO_POWER_ON/GZLL

_GZLL_DELAY_50US/GZLL                         ----- -----  ----- -----

GZLL_CHM_GET_TX_CE_OFFSET/GZLL                ----- -----  ----- -----

_DELAY_US/HAL_DELAY                           ----- -----  ----- -----

*** NEW ROOT ********************************

LX51 LINKER/LOCATER V4.64.0.0                                                         09/23/2013  15:07:48  PAGE 6


NRF_ISR/GZLL_RADIO_ISR                        ----- -----  ----- -----
  +--> GZLL_RADIO_ISR_FUNCTION/GZLL

GZLL_RADIO_ISR_FUNCTION/GZLL                  ----- -----  0024H 0027H
  +--> HAL_NRF_CLEAR_IRQ_FLAGS_GET_STATUS/HAL_NRF
  +--> HAL_NRF_GET_CARRIER_DETECT/HAL_NRF
  +--> GZLL_CHM_HOLD_RX_CHANNEL/GZLL
  +--> HAL_NRF_GET_TRANSMIT_ATTEMPTS/HAL_NRF
  +--> _GZLL_SET_TIMER_PERIOD/GZLL_MCU
  +--> GZLL_CHM_RESET_RX_CHANNEL_INDEX/GZLL
  +--> HAL_NRF_TX_FIFO_EMPTY/HAL_NRF
  +--> GZLL_SET_SYSTEM_IDLE/GZLL
  +--> GZLL_RELOAD_TRIES_PR_CHANNEL_COUNTER/GZLL
  +--> _DELAY_US/HAL_DELAY
  +--> GZLL_CHM_GET_TX_CE_OFFSET/GZLL
  +--> _GZLL_START_NEW_TX/GZLL
  +--> GZLL_SET_RADIO_AUTO_RETRIES/GZLL

HAL_NRF_CLEAR_IRQ_FLAGS_GET_STATUS/HAL_N+     ----- -----  0028H 0028H
... RF
  +--> _HAL_NRF_WRITE_REG/HAL_NRF
  +--> _HAL_NRF_READ_REG/HAL_NRF

HAL_NRF_GET_CARRIER_DETECT/HAL_NRF            ----- -----  ----- -----
  +--> _HAL_NRF_READ_REG/HAL_NRF

GZLL_CHM_HOLD_RX_CHANNEL/GZLL                 ----- -----  ----- -----

HAL_NRF_GET_TRANSMIT_ATTEMPTS/HAL_NRF         ----- -----  ----- -----
  +--> _HAL_NRF_READ_REG/HAL_NRF

GZLL_CHM_RESET_RX_CHANNEL_INDEX/GZLL          ----- -----  ----- -----

HAL_NRF_TX_FIFO_EMPTY/HAL_NRF                 ----- -----  ----- -----
  +--> _HAL_NRF_READ_REG/HAL_NRF

GZLL_RELOAD_TRIES_PR_CHANNEL_COUNTER/GZL+     ----- -----  ----- -----
... L

_GZLL_START_NEW_TX/GZLL                       ----- -----  ----- -----
  +--> GZLL_RELOAD_TRIES_PR_CHANNEL_COUNTER/GZLL
  +--> GZLL_SET_RADIO_AUTO_RETRIES/GZLL
  +--> _GZLL_LFSR_GET/GZLL
  +--> GZLL_CHM_GET_NEXT_RX_CHANNEL/GZLL
  +--> _HAL_NRF_SET_RF_CHANNEL/HAL_NRF
  +--> _DELAY_US/HAL_DELAY

GZLL_SET_RADIO_AUTO_RETRIES/GZLL              ----- -----  ----- -----
  +--> _HAL_NRF_SET_AUTO_RETR/HAL_NRF

_HAL_NRF_SET_AUTO_RETR/HAL_NRF                ----- -----  ----- -----
  +--> _HAL_NRF_WRITE_REG/HAL_NRF

_GZLL_LFSR_GET/GZLL                           ----- -----  ----- -----

GZLL_CHM_GET_NEXT_RX_CHANNEL/GZLL             ----- -----  ----- -----

*** NEW ROOT ********************************

?C_C51STARTUP                                 ----- -----  ----- -----
  +--> MAIN/MAIN
  +--> ?C_INITSEG

MAIN/MAIN                                     ----- -----  0029H 0043H
  +--> MCU_INIT/GZLL_MCU
LX51 LINKER/LOCATER V4.64.0.0                                                         09/23/2013  15:07:48  PAGE 7


  +--> GZLL_INIT/GZLL
  +--> GZLL_RX_START/GZLL
  +--> _GZLL_RX_FIFO_READ/GZLL

MCU_INIT/GZLL_MCU                             ----- -----  ----- -----

GZLL_INIT/GZLL                                ----- -----  0044H 0048H
  +--> ?CO?GZLL
  +--> GZLL_INTERUPTS_DISABLE_RFCK_ENABLE/GZLL
  +--> _HAL_NRF_ENABLE_ACK_PAYLOAD/HAL_NRF
  +--> _HAL_NRF_ENABLE_DYNAMIC_PAYLOAD/HAL_NRF
  +--> _HAL_NRF_SETUP_DYNAMIC_PAYLOAD/HAL_NRF
  +--> _HAL_NRF_SET_ADDRESS/HAL_NRF
  +--> _HAL_NRF_SET_RF_CHANNEL/HAL_NRF
  +--> _HAL_NRF_SET_OUTPUT_POWER/HAL_NRF
  +--> _HAL_NRF_SET_DATARATE/HAL_NRF
  +--> _HAL_NRF_SET_CRC_MODE/HAL_NRF
  +--> _HAL_NRF_SET_ADDRESS_WIDTH/HAL_NRF
  +--> HAL_NRF_GET_CLEAR_IRQ_FLAGS/HAL_NRF
  +--> HAL_NRF_FLUSH_RX/HAL_NRF
  +--> HAL_NRF_FLUSH_TX/HAL_NRF
  +--> _GZLL_SET_TIMER_PERIOD/GZLL_MCU
  +--> GZLL_SET_SYSTEM_IDLE/GZLL
  +--> GZLL_INTERUPTS_ENABLE_RFCK_DISABLE/GZLL

?CO?GZLL                                      ----- -----  ----- -----

GZLL_INTERUPTS_DISABLE_RFCK_ENABLE/GZLL       ----- -----  ----- -----

_HAL_NRF_ENABLE_ACK_PAYLOAD/HAL_NRF           ----- -----  0049H 004AH
  +--> _HAL_NRF_READ_REG/HAL_NRF
  +--> _HAL_NRF_WRITE_REG/HAL_NRF

_HAL_NRF_ENABLE_DYNAMIC_PAYLOAD/HAL_NRF       ----- -----  0049H 004AH
  +--> _HAL_NRF_READ_REG/HAL_NRF
  +--> _HAL_NRF_WRITE_REG/HAL_NRF

_HAL_NRF_SETUP_DYNAMIC_PAYLOAD/HAL_NRF        ----- -----  0049H 0049H
  +--> _HAL_NRF_WRITE_REG/HAL_NRF

_HAL_NRF_SET_ADDRESS/HAL_NRF                  ----- -----  0049H 004CH
  +--> HAL_NRF_GET_ADDRESS_WIDTH/HAL_NRF
  +--> _HAL_NRF_WRITE_MULTIBYTE_REG/HAL_NRF
  +--> _HAL_NRF_WRITE_REG/HAL_NRF

HAL_NRF_GET_ADDRESS_WIDTH/HAL_NRF             ----- -----  ----- -----
  +--> _HAL_NRF_READ_REG/HAL_NRF

_HAL_NRF_WRITE_MULTIBYTE_REG/HAL_NRF          ----- -----  004DH 0055H

_HAL_NRF_SET_OUTPUT_POWER/HAL_NRF             ----- -----  0049H 004AH
  +--> _HAL_NRF_READ_REG/HAL_NRF
  +--> _HAL_NRF_WRITE_REG/HAL_NRF

_HAL_NRF_SET_DATARATE/HAL_NRF                 ----- -----  0049H 004AH
  +--> _HAL_NRF_READ_REG/HAL_NRF
  +--> _HAL_NRF_WRITE_REG/HAL_NRF

_HAL_NRF_SET_CRC_MODE/HAL_NRF                 ----- -----  0049H 004AH
  +--> _HAL_NRF_READ_REG/HAL_NRF
  +--> _HAL_NRF_WRITE_REG/HAL_NRF

_HAL_NRF_SET_ADDRESS_WIDTH/HAL_NRF            ----- -----  0049H 0049H
  +--> _HAL_NRF_WRITE_REG/HAL_NRF

LX51 LINKER/LOCATER V4.64.0.0                                                         09/23/2013  15:07:48  PAGE 8


HAL_NRF_GET_CLEAR_IRQ_FLAGS/HAL_NRF           ----- -----  ----- -----
  +--> _HAL_NRF_WRITE_REG/HAL_NRF

HAL_NRF_FLUSH_RX/HAL_NRF                      ----- -----  ----- -----
  +--> _HAL_NRF_RW/HAL_NRF_HW

_HAL_NRF_RW/HAL_NRF_HW                        ----- -----  ----- -----

HAL_NRF_FLUSH_TX/HAL_NRF                      ----- -----  ----- -----
  +--> _HAL_NRF_RW/HAL_NRF_HW

GZLL_INTERUPTS_ENABLE_RFCK_DISABLE/GZLL       ----- -----  ----- -----

GZLL_RX_START/GZLL                            ----- -----  0044H 0044H
  +--> GZLL_GOTO_IDLE/GZLL
  +--> GZLL_INTERUPTS_DISABLE_RFCK_ENABLE/GZLL
  +--> _HAL_NRF_SET_ADDRESS/HAL_NRF
  +--> _HAL_NRF_CLOSE_PIPE/HAL_NRF
  +--> _HAL_NRF_OPEN_PIPE/HAL_NRF
  +--> _HAL_NRF_SET_OPERATION_MODE/HAL_NRF
  +--> _GZLL_SET_RADIO_POWER_ON/GZLL
  +--> GZLL_INTERUPTS_ENABLE_RFCK_DISABLE/GZLL

GZLL_GOTO_IDLE/GZLL                           ----- -----  ----- -----
  +--> GZLL_INTERUPTS_DISABLE_RFCK_ENABLE/GZLL
  +--> GZLL_SET_SYSTEM_IDLE/GZLL
  +--> GZLL_INTERUPTS_ENABLE_RFCK_DISABLE/GZLL

_HAL_NRF_CLOSE_PIPE/HAL_NRF                   ----- -----  0045H 0047H
  +--> _HAL_NRF_READ_REG/HAL_NRF
  +--> _HAL_NRF_WRITE_REG/HAL_NRF

_HAL_NRF_OPEN_PIPE/HAL_NRF                    ----- -----  0045H 0048H
  +--> _HAL_NRF_READ_REG/HAL_NRF
  +--> _HAL_NRF_WRITE_REG/HAL_NRF

_HAL_NRF_SET_OPERATION_MODE/HAL_NRF           ----- -----  0045H 0046H
  +--> _HAL_NRF_READ_REG/HAL_NRF
  +--> _HAL_NRF_WRITE_REG/HAL_NRF

_GZLL_RX_FIFO_READ/GZLL                       ----- -----  0044H 004EH
  +--> GZLL_INTERUPTS_DISABLE_RFCK_ENABLE/GZLL
  +--> HAL_NRF_READ_RX_PAYLOAD_WIDTH/HAL_NRF
  +--> _HAL_NRF_READ_RX_PAYLOAD/HAL_NRF
  +--> HAL_NRF_RX_FIFO_EMPTY/HAL_NRF
  +--> GZLL_INTERUPTS_ENABLE_RFCK_DISABLE/GZLL
  +--> GZLL_RX_FIFO_FLUSH/GZLL

HAL_NRF_READ_RX_PAYLOAD_WIDTH/HAL_NRF         ----- -----  ----- -----
  +--> _HAL_NRF_READ_REG/HAL_NRF

_HAL_NRF_READ_RX_PAYLOAD/HAL_NRF              ----- -----  ----- -----
  +--> _HAL_NRF_READ_MULTIBYTE_REG/HAL_NRF

_HAL_NRF_READ_MULTIBYTE_REG/HAL_NRF           ----- -----  ----- -----
  +--> HAL_NRF_GET_ADDRESS_WIDTH/HAL_NRF
  +--> HAL_NRF_GET_RX_DATA_SOURCE/HAL_NRF
  +--> HAL_NRF_READ_RX_PAYLOAD_WIDTH/HAL_NRF
  +--> _HAL_NRF_RW/HAL_NRF_HW

HAL_NRF_GET_RX_DATA_SOURCE/HAL_NRF            ----- -----  ----- -----
  +--> HAL_NRF_NOP/HAL_NRF

HAL_NRF_NOP/HAL_NRF                           ----- -----  ----- -----
  +--> _HAL_NRF_RW/HAL_NRF_HW
LX51 LINKER/LOCATER V4.64.0.0                                                         09/23/2013  15:07:48  PAGE 9



HAL_NRF_RX_FIFO_EMPTY/HAL_NRF                 ----- -----  ----- -----
  +--> _HAL_NRF_READ_REG/HAL_NRF

GZLL_RX_FIFO_FLUSH/GZLL                       ----- -----  ----- -----
  +--> GZLL_INTERUPTS_DISABLE_RFCK_ENABLE/GZLL
  +--> HAL_NRF_FLUSH_RX/HAL_NRF
  +--> GZLL_INTERUPTS_ENABLE_RFCK_DISABLE/GZLL

?C_INITSEG                                    ----- -----  ----- -----



PUBLIC SYMBOLS OF MODULE:  .\build\gzll_host_nrf24lu1p (MAIN)


      VALUE       CLASS    TYPE      PUBLIC SYMBOL NAME
      =================================================
*DEL*:00000000H   DATA     BYTE      ?_aes_data_read_buf?BYTE
*DEL*:00000000H   DATA     BYTE      ?_aes_data_write_buf?BYTE
*DEL*:00000000H   DATA     BYTE      ?_aes_initvect_write_buf?BYTE
*DEL*:00000000H   DATA     BYTE      ?_aes_keyin_write_buf?BYTE
*DEL*:00000000H   DATA     BYTE      ?_gzll_ack_payload_write?BYTE
      00000044H   DATA     BYTE      ?_gzll_rx_fifo_read?BYTE
*DEL*:00000000H   DATA     BYTE      ?_gzll_tx_data?BYTE
*DEL*:00000000H   DATA     BYTE      ?_hal_aes_crypt?BYTE
*DEL*:00000000H   DATA     BYTE      ?_hal_aes_get_dec_key?BYTE
*DEL*:00000000H   DATA     BYTE      ?_hal_aes_setup?BYTE
*DEL*:00000000H   DATA     BYTE      ?_hal_nrf_write_ack_payload?BYTE
      0000004DH   DATA     BYTE      ?_hal_nrf_write_multibyte_reg?BYTE
*DEL*:00000000H   DATA     BYTE      ?_lib_crypt?BYTE
*DEL*:00000000H   DATA     BYTE      ?_lib_crypt_init?BYTE
      0100032AH   CODE     ---       ?C?CASTF
      010003C4H   CODE     ---       ?C?CLDOPTR
      010003ABH   CODE     ---       ?C?CLDPTR
      00000000H   NUMBER   ---       ?C?CODESEG
      01000556H   CODE     ---       ?C?COPYE2
      01000403H   CODE     ---       ?C?CSTOPTR
      010003F1H   CODE     ---       ?C?CSTPTR
      010002F6H   CODE     ---       ?C?FCASTC
      010002F1H   CODE     ---       ?C?FCASTI
      010002ECH   CODE     ---       ?C?FCASTL
      01000055H   CODE     ---       ?C?FPADD
      0100024FH   CODE     ---       ?C?FPDIV
      01000361H   CODE     ---       ?C?FPGETOPN2
      01000146H   CODE     ---       ?C?FPMUL
      01000396H   CODE     ---       ?C?FPNANRESULT
      010003A0H   CODE     ---       ?C?FPOVERFLOW
      01000378H   CODE     ---       ?C?FPRESULT
      0100038CH   CODE     ---       ?C?FPRESULT2
      01000051H   CODE     ---       ?C?FPSUB
      0100039DH   CODE     ---       ?C?FPUNDERFLOW
      01000425H   CODE     ---       ?C?IMUL
      0100048CH   CODE     ---       ?C?LNEG
      01000437H   CODE     ---       ?C?UIDIV
      00000000H   NUMBER   ---       ?C?XDATASEG
      010005C3H   CODE     ---       ?C_START
      01000000H   CODE     ---       ?C_STARTUP
*DEL*:00000000H   CODE     ---       _aes_data_read_buf
*DEL*:00000000H   CODE     ---       _aes_data_write_buf
*DEL*:00000000H   CODE     ---       _aes_initvect_write_buf
*DEL*:00000000H   CODE     ---       _aes_keyin_write_buf
*DEL*:00000000H   CODE     ---       _aes_select_e_d
*DEL*:00000000H   CODE     ---       _aes_set_mode
*DEL*:00000000H   CODE     ---       _delay_ms
LX51 LINKER/LOCATER V4.64.0.0                                                         09/23/2013  15:07:48  PAGE 10


      010009B9H   CODE     ---       _delay_us
*DEL*:00000000H   CODE     ---       _gzll_ack_payload_write
      01001041H   CODE     ---       _gzll_delay_50us
*DEL*:00000000H   CODE     ---       _gzll_get_address
*DEL*:00000000H   CODE     ---       _gzll_get_channels
*DEL*:00000000H   CODE     ---       _gzll_get_param
*DEL*:00000000H   CODE     ---       _gzll_get_param_max
*DEL*:00000000H   CODE     ---       _gzll_rx_data_ready
      01000F49H   CODE     ---       _gzll_rx_fifo_read
*DEL*:00000000H   CODE     ---       _gzll_set_address
*DEL*:00000000H   CODE     ---       _gzll_set_channels
*DEL*:00000000H   CODE     ---       _gzll_set_param
      01000FC1H   CODE     ---       _gzll_set_timer_period
*DEL*:00000000H   CODE     ---       _gzll_tx_data
*DEL*:00000000H   CODE     ---       _hal_aes_crypt
*DEL*:00000000H   CODE     ---       _hal_aes_get_dec_key
*DEL*:00000000H   CODE     ---       _hal_aes_setup
*DEL*:00000000H   CODE     ---       _hal_nrf_clear_irq_flag
      01000D12H   CODE     ---       _hal_nrf_close_pipe
      0100135BH   CODE     ---       _hal_nrf_enable_ack_payload
*DEL*:00000000H   CODE     ---       _hal_nrf_enable_continious_wave
*DEL*:00000000H   CODE     ---       _hal_nrf_enable_dynamic_ack
      01001338H   CODE     ---       _hal_nrf_enable_dynamic_payload
*DEL*:00000000H   CODE     ---       _hal_nrf_get_address
*DEL*:00000000H   CODE     ---       _hal_nrf_get_pipe_status
*DEL*:00000000H   CODE     ---       _hal_nrf_get_rx_payload_width
      01000D6DH   CODE     ---       _hal_nrf_open_pipe
      01001140H   CODE     ---       _hal_nrf_read_multibyte_reg
      01000D55H   CODE     ---       _hal_nrf_read_reg
      01000FF8H   CODE     ---       _hal_nrf_read_rx_payload
      01001136H   CODE     ---       _hal_nrf_rw
      01000CC3H   CODE     ---       _hal_nrf_set_address
      010012C6H   CODE     ---       _hal_nrf_set_address_width
      01000C7BH   CODE     ---       _hal_nrf_set_auto_retr
      01001285H   CODE     ---       _hal_nrf_set_crc_mode
      01001301H   CODE     ---       _hal_nrf_set_datarate
*DEL*:00000000H   CODE     ---       _hal_nrf_set_irq_mode
      01000E22H   CODE     ---       _hal_nrf_set_operation_mode
      010012E3H   CODE     ---       _hal_nrf_set_output_power
*DEL*:00000000H   CODE     ---       _hal_nrf_set_pll_mode
      010007DEH   CODE     ---       _hal_nrf_set_power_mode
      01000C4AH   CODE     ---       _hal_nrf_set_rf_channel
*DEL*:00000000H   CODE     ---       _hal_nrf_set_rx_payload_width
      0100132CH   CODE     ---       _hal_nrf_setup_dynamic_payload
*DEL*:00000000H   CODE     ---       _hal_nrf_write_ack_payload
      0100137CH   CODE     ---       _hal_nrf_write_multibyte_reg
      01000CA0H   CODE     ---       _hal_nrf_write_reg
*DEL*:00000000H   CODE     ---       _hal_nrf_write_tx_payload
*DEL*:00000000H   CODE     ---       _hal_nrf_write_tx_payload_noack
*DEL*:00000000H   CODE     ---       _lib_crypt
*DEL*:00000000H   CODE     ---       _lib_crypt_generate_ls5b
*DEL*:00000000H   CODE     ---       _lib_crypt_init
*DEL*:00000000H   CODE     ---       _lib_crypt_set_counter
*SFR* 000000D0H.6 DATA     BIT       AC
*SFR* 000000E0H   DATA     BYTE      ACC
*DEL*:00000000H   CODE     ---       aes_busy
*DEL*:00000000H   CODE     ---       aes_go
*SFR* 000000E8H   DATA     BYTE      AESCS
*SFR* 000000F3H   DATA     BYTE      AESD
*SFR* 000000F5H   DATA     BYTE      AESIA1
*SFR* 000000F6H   DATA     BYTE      AESIA2
*SFR* 000000F2H   DATA     BYTE      AESIV
*SFR* 000000F1H   DATA     BYTE      AESKIN
*SFR* 000000EFH   DATA     BYTE      ARCON
*SFR* 000000F0H   DATA     BYTE      B
LX51 LINKER/LOCATER V4.64.0.0                                                         09/23/2013  15:07:48  PAGE 11


      00000021H.4 DATA     BIT       b_rfce
*SFR* 000000D8H.7 DATA     BIT       BD
*SFR* 000000C2H   DATA     WORD      CC1
*SFR* 000000C4H   DATA     WORD      CC2
*SFR* 000000C6H   DATA     WORD      CC3
*SFR* 000000C1H   DATA     BYTE      CCEN
*SFR* 000000C3H   DATA     BYTE      CCH1
*SFR* 000000C5H   DATA     BYTE      CCH2
*SFR* 000000C7H   DATA     BYTE      CCH3
*SFR* 000000C2H   DATA     BYTE      CCL1
*SFR* 000000C4H   DATA     BYTE      CCL2
*SFR* 000000C6H   DATA     BYTE      CCL3
*SFR* 0000008EH   DATA     BYTE      CKCON
*SFR* 000000A3H   DATA     BYTE      CLKCTL
*SFR* 000000CAH   DATA     WORD      CRC
*SFR* 000000CBH   DATA     BYTE      CRCH
*SFR* 000000CAH   DATA     BYTE      CRCL
*SFR* 000000D0H.7 DATA     BIT       CY
*SFR* 000000E8H.1 DATA     BIT       DECR
*SFR* 00000083H   DATA     BYTE      DPH
*SFR* 00000085H   DATA     BYTE      DPH1
*SFR* 00000082H   DATA     BYTE      DPL
*SFR* 00000084H   DATA     BYTE      DPL1
*SFR* 00000092H   DATA     BYTE      DPS
*SFR* 000000A8H.7 DATA     BIT       EA
*SFR* 000000A8H.4 DATA     BIT       ES0
*SFR* 000000A8H.1 DATA     BIT       ET0
*SFR* 000000A8H.3 DATA     BIT       ET1
*SFR* 000000A8H.5 DATA     BIT       ET2
*SFR* 000000A8H   DATA     BIT       EX0
*SFR* 000000A8H.2 DATA     BIT       EX1
*SFR* 000000B8H.7 DATA     BIT       EXEN2
*SFR* 000000C0H.7 DATA     BIT       EXF2
*SFR* 000000D0H.5 DATA     BIT       F0
*SFR* 000000D0H.1 DATA     BIT       F1
*SFR* 000000FAH   DATA     BYTE      FCR
*SFR* 000000F9H   DATA     BYTE      FPCR
*SFR* 000000F8H   DATA     BYTE      FSR
*SFR* 000000E8H   DATA     BIT       GO
      00000021H.3 DATA     BIT       gzll_claim_rfck_en
*DEL*:00000000H   CODE     ---       gzll_dev_mode2_rx_channel_match
*DEL*:00000000H   CODE     ---       gzll_get_channel_tab_size
*DEL*:00000000H   CODE     ---       gzll_get_rx_data_ready_pipe_number
*DEL*:00000000H   CODE     ---       gzll_get_state
*DEL*:00000000H   CODE     ---       gzll_get_tx_attempts
*DEL*:00000000H   CODE     ---       gzll_get_tx_channel_switches
      01000E3DH   CODE     ---       gzll_goto_idle
      01000677H   CODE     ---       gzll_init
      00000021H.1 DATA     BIT       gzll_pending_goto_idle
      00000021H.0 DATA     BIT       gzll_pending_tx_start
      00000020H.7 DATA     BIT       gzll_power_on
*DEL*:00000000H   CODE     ---       gzll_radio_active
      00000020H.6 DATA     BIT       gzll_radio_active_f
      010009C8H   CODE     ---       gzll_radio_isr_function
      00000020H.4 DATA     BIT       gzll_rx_dr
      01000F3AH   CODE     ---       gzll_rx_fifo_flush
*DEL*:00000000H   CODE     ---       gzll_rx_power_high
      00000020H.5 DATA     BIT       gzll_rx_power_high_f
      00000020H.2 DATA     BIT       gzll_rx_setup_modified
      01000DC3H   CODE     ---       gzll_rx_start
      00000020H.3 DATA     BIT       gzll_sync_on
      01000859H   CODE     ---       gzll_timer_isr_function
      00000021H.2 DATA     BIT       gzll_timer_period_modified
*DEL*:00000000H   CODE     ---       gzll_tx_fifo_flush
      00000020H.1 DATA     BIT       gzll_tx_setup_modified
LX51 LINKER/LOCATER V4.64.0.0                                                         09/23/2013  15:07:48  PAGE 12


*DEL*:00000000H   CODE     ---       gzll_tx_success
      00000020H.0 DATA     BIT       gzll_tx_success_f
*DEL*:00000000H   CODE     ---       hal_nrf_activate_features
      01000CFFH   CODE     ---       hal_nrf_clear_irq_flags_get_status
      010012B4H   CODE     ---       hal_nrf_flush_rx
      010012BDH   CODE     ---       hal_nrf_flush_tx
      01000041H   CODE     ---       hal_nrf_get_address_width
*DEL*:00000000H   CODE     ---       hal_nrf_get_auto_retr_status
      01000F02H   CODE     ---       hal_nrf_get_carrier_detect
      01000039H   CODE     ---       hal_nrf_get_clear_irq_flags
*DEL*:00000000H   CODE     ---       hal_nrf_get_fifo_status
*DEL*:00000000H   CODE     ---       hal_nrf_get_irq_flags
*DEL*:00000000H   CODE     ---       hal_nrf_get_packet_lost_ctr
*DEL*:00000000H   CODE     ---       hal_nrf_get_reuse_tx_status
      0100126FH   CODE     ---       hal_nrf_get_rx_data_source
*DEL*:00000000H   CODE     ---       hal_nrf_get_rx_fifo_status
      01000EF9H   CODE     ---       hal_nrf_get_transmit_attempts
*DEL*:00000000H   CODE     ---       hal_nrf_get_tx_fifo_status
      0100127CH   CODE     ---       hal_nrf_nop
      010007FBH   CODE     ---       hal_nrf_read_rx_payload_width
*DEL*:00000000H   CODE     ---       hal_nrf_reuse_tx
      01001000H   CODE     ---       hal_nrf_rx_fifo_empty
*DEL*:00000000H   CODE     ---       hal_nrf_rx_fifo_full
      01000F0BH   CODE     ---       hal_nrf_tx_fifo_empty
*DEL*:00000000H   CODE     ---       hal_nrf_tx_fifo_full
*SFR* 000000C8H.5 DATA     BIT       I2FR
*SFR* 000000C8H.6 DATA     BIT       I3FR
*SFR* 00000088H.1 DATA     BIT       IE0
*SFR* 00000088H.3 DATA     BIT       IE1
*SFR* 000000A8H   DATA     BYTE      IEN0
*SFR* 000000B8H   DATA     BYTE      IEN1
*SFR* 0000009AH   DATA     BYTE      IEN2
*SFR* 000000F8H.3 DATA     BIT       INFEN
*SFR* 000000A6H   DATA     BYTE      INTEXP
*SFR* 000000A9H   DATA     BYTE      IP0
*SFR* 000000B9H   DATA     BYTE      IP1
*SFR* 000000C0H   DATA     BYTE      IRCON
*SFR* 00000088H   DATA     BIT       IT0
*SFR* 00000088H.2 DATA     BIT       IT1
*SFR* 000000A0H   DATA     BIT       IV0
*SFR* 000000A0H.1 DATA     BIT       IV1
*SFR* 000000A0H.2 DATA     BIT       IV2
*SFR* 000000A0H.3 DATA     BIT       IV3
*SFR* 000000A0H.4 DATA     BIT       IV4
      01000647H   CODE     ---       main
*SFR* 000000F8H.7 DATA     BIT       MCDIS
*SFR* 00000080H.3 DATA     BIT       MCSN
      01000EECH   CODE     ---       mcu_init
*SFR* 000000E9H   DATA     BYTE      MD0
*SFR* 000000EAH   DATA     BYTE      MD1
*SFR* 000000EBH   DATA     BYTE      MD2
*SFR* 000000ECH   DATA     BYTE      MD3
*SFR* 000000EDH   DATA     BYTE      MD4
*SFR* 000000EEH   DATA     BYTE      MD5
      01000966H   CODE     ---       nrf_isr
*SFR* 000000D0H.2 DATA     BIT       OV
*SFR* 000000D0H   DATA     BIT       P
*SFR* 00000080H   DATA     BYTE      P0
*SFR* 00000080H   DATA     BIT       P00
*SFR* 00000080H.1 DATA     BIT       P01
*SFR* 00000080H.2 DATA     BIT       P02
*SFR* 00000080H.3 DATA     BIT       P03
*SFR* 00000080H.4 DATA     BIT       P04
*SFR* 00000080H.5 DATA     BIT       P05
*SFR* 00000095H   DATA     BYTE      P0ALT
LX51 LINKER/LOCATER V4.64.0.0                                                         09/23/2013  15:07:48  PAGE 13


*SFR* 00000094H   DATA     BYTE      P0DIR
*SFR* 000000C9H   DATA     BYTE      P0EXP
*SFR* 00000087H   DATA     BYTE      PCON
*SFR* 000000D0H   DATA     BYTE      PSW
*SFR* 000000A4H   DATA     BYTE      PWRDWN
*SFR* 00000098H.2 DATA     BIT       RB80
*SFR* 000000F8H.1 DATA     BIT       RDEND
*SFR* 000000F8H.2 DATA     BIT       RDIS
*SFR* 000000F8H.4 DATA     BIT       RDYN
*SFR* 000000ADH   DATA     BYTE      REGXC
*SFR* 000000ABH   DATA     BYTE      REGXH
*SFR* 000000ACH   DATA     BYTE      REGXL
*SFR* 00000098H.4 DATA     BIT       REN0
*SFR* 000000B8H.1 DATA     BIT       RF
*SFR* 00000090H   DATA     BIT       RFCE
*SFR* 00000090H.2 DATA     BIT       RFCKEN
*SFR* 00000090H   DATA     BYTE      RFCON
*SFR* 00000090H.1 DATA     BIT       RFCSN
*SFR* 000000E6H   DATA     BYTE      RFCTL
*SFR* 000000E5H   DATA     BYTE      RFDAT
*SFR* 000000C0H.1 DATA     BIT       RFF
*SFR* 000000B8H   DATA     BIT       RFSPI
*SFR* 000000C0H   DATA     BIT       RFSPIF
*SFR* 00000098H   DATA     BIT       RI0
*SFR* 000000D0H.3 DATA     BIT       RS0
*SFR* 000000D0H.4 DATA     BIT       RS1
*SFR* 000000B1H   DATA     BYTE      RSTRES
*SFR* 00000099H   DATA     BYTE      S0BUF
*SFR* 00000098H   DATA     BYTE      S0CON
*SFR* 000000BAH   DATA     BYTE      S0RELH
*SFR* 000000AAH   DATA     BYTE      S0RELL
*SFR* 00000080H.3 DATA     BIT       SCSN
*SFR* 00000098H.7 DATA     BIT       SM0
*SFR* 00000098H.6 DATA     BIT       SM1
*SFR* 00000098H.5 DATA     BIT       SM20
*SFR* 000000B3H   DATA     BYTE      SMCTL
*SFR* 000000B2H   DATA     BYTE      SMDAT
*SFR* 00000081H   DATA     BYTE      SP
*SFR* 000000B8H.2 DATA     BIT       SPI
*SFR* 000000C0H.2 DATA     BIT       SPIF
*SFR* 000000BCH   DATA     BYTE      SSCONF
*SFR* 000000BDH   DATA     BYTE      SSDATA
*SFR* 000000BEH   DATA     BYTE      SSSTAT
*SFR* 000000F8H.6 DATA     BIT       STP
*SFR* 000000A0H.5 DATA     BIT       SUSPEND
*SFR* 000000A0H.7 DATA     BIT       SWRST
*SFR* 000000CCH   DATA     WORD      T2
      01000800H   CODE     ---       t2_isr
*SFR* 000000C8H.2 DATA     BIT       T2CM
*SFR* 000000C8H   DATA     BYTE      T2CON
*SFR* 000000C8H   DATA     BIT       T2I0
*SFR* 000000C8H.1 DATA     BIT       T2I1
*SFR* 000000C8H.7 DATA     BIT       T2PS
*SFR* 000000C8H.3 DATA     BIT       T2R0
*SFR* 000000C8H.4 DATA     BIT       T2R1
*SFR* 00000098H.3 DATA     BIT       TB80
*SFR* 00000088H   DATA     BYTE      TCON
*SFR* 00000088H.5 DATA     BIT       TF0
*SFR* 00000088H.7 DATA     BIT       TF1
*SFR* 000000C0H.6 DATA     BIT       TF2
*SFR* 0000008CH   DATA     BYTE      TH0
*SFR* 0000008DH   DATA     BYTE      TH1
*SFR* 000000CDH   DATA     BYTE      TH2
*SFR* 00000098H.1 DATA     BIT       TI0
*SFR* 000000B5H   DATA     BYTE      TICKDV
LX51 LINKER/LOCATER V4.64.0.0                                                         09/23/2013  15:07:48  PAGE 14


      02008053H   XDATA    WORD      timer_cnt
*SFR* 0000008AH   DATA     BYTE      TL0
*SFR* 0000008BH   DATA     BYTE      TL1
*SFR* 000000CCH   DATA     BYTE      TL2
*SFR* 00000089H   DATA     BYTE      TMOD
*SFR* 00000088H.4 DATA     BIT       TR0
*SFR* 00000088H.6 DATA     BIT       TR1
*SFR* 000000B8H.4 DATA     BIT       USB
*SFR* 000000A0H   DATA     BYTE      USBCON
*SFR* 000000C0H.4 DATA     BIT       USBF
*SFR* 000000D9H   DATA     BYTE      USBSLP
*SFR* 000000B8H.3 DATA     BIT       USBWU
*SFR* 000000C0H.3 DATA     BIT       USBWUF
*SFR* 000000D8H   DATA     BYTE      WDCON
*SFR* 000000F8H.5 DATA     BIT       WEN
*SFR* 000000F8H   DATA     BIT       WPEN
*SFR* 000000A0H.6 DATA     BIT       WU
*SFR* 000000A5H   DATA     BYTE      WUCONF
*SFR* 000000C0H.5 DATA     BIT       WUF
*SFR* 000000B8H.5 DATA     BIT       WUIRQ



SYMBOL TABLE OF MODULE:  .\build\gzll_host_nrf24lu1p (MAIN)

      VALUE       REP       CLASS    TYPE      SYMBOL NAME
      ====================================================
      ---         MODULE    ---      ---       MAIN
      01000647H   PUBLIC    CODE     ---       main
      00000098H.3 SFRSYM    DATA     BIT       TB80
      000000C8H   SFRSYM    DATA     BIT       T2I0
      000000C3H   SFRSYM    DATA     BYTE      CCH1
      000000ABH   SFRSYM    DATA     BYTE      REGXH
      00000080H   SFRSYM    DATA     BYTE      P0
      000000C8H.1 SFRSYM    DATA     BIT       T2I1
      000000C5H   SFRSYM    DATA     BYTE      CCH2
      000000C7H   SFRSYM    DATA     BYTE      CCH3
      00000098H.5 SFRSYM    DATA     BIT       SM20
      000000D0H.6 SFRSYM    DATA     BIT       AC
      000000C2H   SFRSYM    DATA     BYTE      CCL1
      000000ACH   SFRSYM    DATA     BYTE      REGXL
      000000C4H   SFRSYM    DATA     BYTE      CCL2
      000000B3H   SFRSYM    DATA     BYTE      SMCTL
      000000D8H.7 SFRSYM    DATA     BIT       BD
      000000B8H   SFRSYM    DATA     BIT       RFSPI
      000000A8H.7 SFRSYM    DATA     BIT       EA
      000000CCH   SFRSYM    DATA     WORD      T2
      000000C6H   SFRSYM    DATA     BYTE      CCL3
      000000C8H.3 SFRSYM    DATA     BIT       T2R0
      000000C8H.4 SFRSYM    DATA     BIT       T2R1
      000000A8H   SFRSYM    DATA     BYTE      IEN0
      000000B8H   SFRSYM    DATA     BYTE      IEN1
      00000085H   SFRSYM    DATA     BYTE      DPH1
      0000009AH   SFRSYM    DATA     BYTE      IEN2
      00000084H   SFRSYM    DATA     BYTE      DPL1
      000000C8H.5 SFRSYM    DATA     BIT       I2FR
      000000C8H.6 SFRSYM    DATA     BIT       I3FR
      000000E8H   SFRSYM    DATA     BIT       GO
      000000C0H.7 SFRSYM    DATA     BIT       EXF2
      00000098H.4 SFRSYM    DATA     BIT       REN0
      000000F5H   SFRSYM    DATA     BYTE      AESIA1
      000000C8H.2 SFRSYM    DATA     BIT       T2CM
      000000F6H   SFRSYM    DATA     BYTE      AESIA2
      000000B8H.1 SFRSYM    DATA     BIT       RF
      000000B8H.3 SFRSYM    DATA     BIT       USBWU
LX51 LINKER/LOCATER V4.64.0.0                                                         09/23/2013  15:07:48  PAGE 15


      000000B8H.5 SFRSYM    DATA     BIT       WUIRQ
      000000C1H   SFRSYM    DATA     BYTE      CCEN
      000000D0H.7 SFRSYM    DATA     BIT       CY
      000000F3H   SFRSYM    DATA     BYTE      AESD
      000000E8H.1 SFRSYM    DATA     BIT       DECR
      00000090H   SFRSYM    DATA     BIT       RFCE
      000000CBH   SFRSYM    DATA     BYTE      CRCH
      00000081H   SFRSYM    DATA     BYTE      SP
      000000A0H.5 SFRSYM    DATA     BIT       SUSPEND
      000000A0H.7 SFRSYM    DATA     BIT       SWRST
      000000D0H.2 SFRSYM    DATA     BIT       OV
      000000CAH   SFRSYM    DATA     BYTE      CRCL
      000000C8H.7 SFRSYM    DATA     BIT       T2PS
      000000A0H.6 SFRSYM    DATA     BIT       WU
      000000F9H   SFRSYM    DATA     BYTE      FPCR
      00000080H   SFRSYM    DATA     BIT       P00
      000000BAH   SFRSYM    DATA     BYTE      S0RELH
      00000080H.1 SFRSYM    DATA     BIT       P01
      000000C0H.4 SFRSYM    DATA     BIT       USBF
      00000087H   SFRSYM    DATA     BYTE      PCON
      00000080H.3 SFRSYM    DATA     BIT       MCSN
      00000080H.2 SFRSYM    DATA     BIT       P02
      00000080H.3 SFRSYM    DATA     BIT       P03
      000000C0H.2 SFRSYM    DATA     BIT       SPIF
      000000F8H.2 SFRSYM    DATA     BIT       RDIS
      00000080H.4 SFRSYM    DATA     BIT       P04
      000000AAH   SFRSYM    DATA     BYTE      S0RELL
      00000080H.5 SFRSYM    DATA     BIT       P05
      00000089H   SFRSYM    DATA     BYTE      TMOD
      00000088H   SFRSYM    DATA     BYTE      TCON
      000000C2H   SFRSYM    DATA     WORD      CC1
      00000080H.3 SFRSYM    DATA     BIT       SCSN
      000000C4H   SFRSYM    DATA     WORD      CC2
      000000C6H   SFRSYM    DATA     WORD      CC3
      00000090H.2 SFRSYM    DATA     BIT       RFCKEN
      000000F8H   SFRSYM    DATA     BIT       WPEN
      000000F1H   SFRSYM    DATA     BYTE      AESKIN
      00000088H.1 SFRSYM    DATA     BIT       IE0
      000000F8H.4 SFRSYM    DATA     BIT       RDYN
      00000088H.3 SFRSYM    DATA     BIT       IE1
      000000A3H   SFRSYM    DATA     BYTE      CLKCTL
      000000F0H   SFRSYM    DATA     BYTE      B
      000000E9H   SFRSYM    DATA     BYTE      MD0
      000000EAH   SFRSYM    DATA     BYTE      MD1
      000000BDH   SFRSYM    DATA     BYTE      SSDATA
      000000EBH   SFRSYM    DATA     BYTE      MD2
      000000ECH   SFRSYM    DATA     BYTE      MD3
      000000EDH   SFRSYM    DATA     BYTE      MD4
      000000EEH   SFRSYM    DATA     BYTE      MD5
      000000E0H   SFRSYM    DATA     BYTE      ACC
      000000B5H   SFRSYM    DATA     BYTE      TICKDV
      000000A8H.4 SFRSYM    DATA     BIT       ES0
      000000A8H.1 SFRSYM    DATA     BIT       ET0
      000000A9H   SFRSYM    DATA     BYTE      IP0
      000000A8H.3 SFRSYM    DATA     BIT       ET1
      00000088H.5 SFRSYM    DATA     BIT       TF0
      000000B9H   SFRSYM    DATA     BYTE      IP1
      000000A8H.5 SFRSYM    DATA     BIT       ET2
      00000098H   SFRSYM    DATA     BIT       RI0
      00000088H.7 SFRSYM    DATA     BIT       TF1
      000000C0H   SFRSYM    DATA     BIT       RFSPIF
      000000C0H.6 SFRSYM    DATA     BIT       TF2
      000000A0H   SFRSYM    DATA     BYTE      USBCON
      0000008CH   SFRSYM    DATA     BYTE      TH0
      000000A8H   SFRSYM    DATA     BIT       EX0
LX51 LINKER/LOCATER V4.64.0.0                                                         09/23/2013  15:07:48  PAGE 16


      00000098H.1 SFRSYM    DATA     BIT       TI0
      00000088H   SFRSYM    DATA     BIT       IT0
      0000008DH   SFRSYM    DATA     BYTE      TH1
      000000A8H.2 SFRSYM    DATA     BIT       EX1
      00000088H.2 SFRSYM    DATA     BIT       IT1
      000000CDH   SFRSYM    DATA     BYTE      TH2
      000000BCH   SFRSYM    DATA     BYTE      SSCONF
      000000A0H   SFRSYM    DATA     BIT       IV0
      000000D0H   SFRSYM    DATA     BIT       P
      000000A0H.1 SFRSYM    DATA     BIT       IV1
      00000098H.7 SFRSYM    DATA     BIT       SM0
      0000008AH   SFRSYM    DATA     BYTE      TL0
      000000A0H.2 SFRSYM    DATA     BIT       IV2
      00000098H.6 SFRSYM    DATA     BIT       SM1
      0000008BH   SFRSYM    DATA     BYTE      TL1
      000000A0H.3 SFRSYM    DATA     BIT       IV3
      000000CCH   SFRSYM    DATA     BYTE      TL2
      000000A0H.4 SFRSYM    DATA     BIT       IV4
      000000A5H   SFRSYM    DATA     BYTE      WUCONF
      000000D0H.3 SFRSYM    DATA     BIT       RS0
      00000088H.4 SFRSYM    DATA     BIT       TR0
      000000D0H.4 SFRSYM    DATA     BIT       RS1
      00000088H.6 SFRSYM    DATA     BIT       TR1
      000000CAH   SFRSYM    DATA     WORD      CRC
      000000A6H   SFRSYM    DATA     BYTE      INTEXP
      000000FAH   SFRSYM    DATA     BYTE      FCR
      000000D9H   SFRSYM    DATA     BYTE      USBSLP
      00000083H   SFRSYM    DATA     BYTE      DPH
      000000C0H.1 SFRSYM    DATA     BIT       RFF
      000000C0H.3 SFRSYM    DATA     BIT       USBWUF
      00000094H   SFRSYM    DATA     BYTE      P0DIR
      00000082H   SFRSYM    DATA     BYTE      DPL
      00000099H   SFRSYM    DATA     BYTE      S0BUF
      00000095H   SFRSYM    DATA     BYTE      P0ALT
      000000B8H.7 SFRSYM    DATA     BIT       EXEN2
      000000BEH   SFRSYM    DATA     BYTE      SSSTAT
      000000A4H   SFRSYM    DATA     BYTE      PWRDWN
      00000098H   SFRSYM    DATA     BYTE      S0CON
      000000B1H   SFRSYM    DATA     BYTE      RSTRES
      000000C8H   SFRSYM    DATA     BYTE      T2CON
      00000092H   SFRSYM    DATA     BYTE      DPS
      000000B8H.4 SFRSYM    DATA     BIT       USB
      000000F8H.5 SFRSYM    DATA     BIT       WEN
      000000F8H   SFRSYM    DATA     BYTE      FSR
      000000B8H.2 SFRSYM    DATA     BIT       SPI
      000000F8H.1 SFRSYM    DATA     BIT       RDEND
      000000C9H   SFRSYM    DATA     BYTE      P0EXP
      0000008EH   SFRSYM    DATA     BYTE      CKCON
      000000E8H   SFRSYM    DATA     BYTE      AESCS
      000000F8H.3 SFRSYM    DATA     BIT       INFEN
      000000F8H.7 SFRSYM    DATA     BIT       MCDIS
      000000C0H.5 SFRSYM    DATA     BIT       WUF
      000000E5H   SFRSYM    DATA     BYTE      RFDAT
      000000EFH   SFRSYM    DATA     BYTE      ARCON
      000000D0H.5 SFRSYM    DATA     BIT       F0
      000000D0H.1 SFRSYM    DATA     BIT       F1
      000000F8H.6 SFRSYM    DATA     BIT       STP
      000000F2H   SFRSYM    DATA     BYTE      AESIV
      00000090H   SFRSYM    DATA     BYTE      RFCON
      000000D0H   SFRSYM    DATA     BYTE      PSW
      000000B2H   SFRSYM    DATA     BYTE      SMDAT
      000000ADH   SFRSYM    DATA     BYTE      REGXC
      00000098H.2 SFRSYM    DATA     BIT       RB80
      000000E6H   SFRSYM    DATA     BYTE      RFCTL
      000000D8H   SFRSYM    DATA     BYTE      WDCON
LX51 LINKER/LOCATER V4.64.0.0                                                         09/23/2013  15:07:48  PAGE 17


      000000C0H   SFRSYM    DATA     BYTE      IRCON
      00000090H.1 SFRSYM    DATA     BIT       RFCSN

      01000647H   BLOCK     CODE     ---       LVL=0
      01000647H   LINE      ---      ---       #33
      01000647H   LINE      ---      ---       #34
      01000647H   BLOCK     CODE     NEAR LAB  LVL=1
      01000647H   LINE      ---      ---       #37
      0100064AH   LINE      ---      ---       #38
      0100064CH   LINE      ---      ---       #41
      0100064FH   LINE      ---      ---       #43
      01000651H   LINE      ---      ---       #46
      01000654H   LINE      ---      ---       #48
      01000654H   LINE      ---      ---       #49
      01000654H   LINE      ---      ---       #51
      01000672H   LINE      ---      ---       #52
      01000672H   LINE      ---      ---       #54
      01000675H   LINE      ---      ---       #55
      01000675H   LINE      ---      ---       #56
      00000029H   SYMBOL    DATA     ---       payload
      ---         BLOCKEND  CODE     ---       LVL=1
      ---         BLOCKEND  CODE     ---       LVL=0

      ---         MODULE    ---      ---       GZLL_TIMER_ISR
      02008053H   PUBLIC    XDATA    WORD      timer_cnt
      01000800H   PUBLIC    CODE     ---       t2_isr
      00000098H.3 SFRSYM    DATA     BIT       TB80
      000000C8H   SFRSYM    DATA     BIT       T2I0
      000000C3H   SFRSYM    DATA     BYTE      CCH1
      000000ABH   SFRSYM    DATA     BYTE      REGXH
      00000080H   SFRSYM    DATA     BYTE      P0
      000000C8H.1 SFRSYM    DATA     BIT       T2I1
      000000C5H   SFRSYM    DATA     BYTE      CCH2
      000000C7H   SFRSYM    DATA     BYTE      CCH3
      00000098H.5 SFRSYM    DATA     BIT       SM20
      000000D0H.6 SFRSYM    DATA     BIT       AC
      000000C2H   SFRSYM    DATA     BYTE      CCL1
      000000ACH   SFRSYM    DATA     BYTE      REGXL
      000000C4H   SFRSYM    DATA     BYTE      CCL2
      000000B3H   SFRSYM    DATA     BYTE      SMCTL
      000000D8H.7 SFRSYM    DATA     BIT       BD
      000000B8H   SFRSYM    DATA     BIT       RFSPI
      000000A8H.7 SFRSYM    DATA     BIT       EA
      000000CCH   SFRSYM    DATA     WORD      T2
      000000C6H   SFRSYM    DATA     BYTE      CCL3
      000000C8H.3 SFRSYM    DATA     BIT       T2R0
      000000C8H.4 SFRSYM    DATA     BIT       T2R1
      000000A8H   SFRSYM    DATA     BYTE      IEN0
      000000B8H   SFRSYM    DATA     BYTE      IEN1
      00000085H   SFRSYM    DATA     BYTE      DPH1
      0000009AH   SFRSYM    DATA     BYTE      IEN2
      00000084H   SFRSYM    DATA     BYTE      DPL1
      000000C8H.5 SFRSYM    DATA     BIT       I2FR
      000000C8H.6 SFRSYM    DATA     BIT       I3FR
      000000E8H   SFRSYM    DATA     BIT       GO
      000000C0H.7 SFRSYM    DATA     BIT       EXF2
      00000098H.4 SFRSYM    DATA     BIT       REN0
      000000F5H   SFRSYM    DATA     BYTE      AESIA1
      000000C8H.2 SFRSYM    DATA     BIT       T2CM
      000000F6H   SFRSYM    DATA     BYTE      AESIA2
      000000B8H.1 SFRSYM    DATA     BIT       RF
      000000B8H.3 SFRSYM    DATA     BIT       USBWU
      000000B8H.5 SFRSYM    DATA     BIT       WUIRQ
      000000C1H   SFRSYM    DATA     BYTE      CCEN
      000000D0H.7 SFRSYM    DATA     BIT       CY
LX51 LINKER/LOCATER V4.64.0.0                                                         09/23/2013  15:07:48  PAGE 18


      000000F3H   SFRSYM    DATA     BYTE      AESD
      000000E8H.1 SFRSYM    DATA     BIT       DECR
      00000090H   SFRSYM    DATA     BIT       RFCE
      000000CBH   SFRSYM    DATA     BYTE      CRCH
      00000081H   SFRSYM    DATA     BYTE      SP
      000000A0H.5 SFRSYM    DATA     BIT       SUSPEND
      000000A0H.7 SFRSYM    DATA     BIT       SWRST
      000000D0H.2 SFRSYM    DATA     BIT       OV
      000000CAH   SFRSYM    DATA     BYTE      CRCL
      000000C8H.7 SFRSYM    DATA     BIT       T2PS
      000000A0H.6 SFRSYM    DATA     BIT       WU
      000000F9H   SFRSYM    DATA     BYTE      FPCR
      00000080H   SFRSYM    DATA     BIT       P00
      000000BAH   SFRSYM    DATA     BYTE      S0RELH
      00000080H.1 SFRSYM    DATA     BIT       P01
      000000C0H.4 SFRSYM    DATA     BIT       USBF
      00000087H   SFRSYM    DATA     BYTE      PCON
      00000080H.3 SFRSYM    DATA     BIT       MCSN
      00000080H.2 SFRSYM    DATA     BIT       P02
      00000080H.3 SFRSYM    DATA     BIT       P03
      000000C0H.2 SFRSYM    DATA     BIT       SPIF
      000000F8H.2 SFRSYM    DATA     BIT       RDIS
      00000080H.4 SFRSYM    DATA     BIT       P04
      000000AAH   SFRSYM    DATA     BYTE      S0RELL
      00000080H.5 SFRSYM    DATA     BIT       P05
      00000089H   SFRSYM    DATA     BYTE      TMOD
      00000088H   SFRSYM    DATA     BYTE      TCON
      000000C2H   SFRSYM    DATA     WORD      CC1
      00000080H.3 SFRSYM    DATA     BIT       SCSN
      000000C4H   SFRSYM    DATA     WORD      CC2
      000000C6H   SFRSYM    DATA     WORD      CC3
      00000090H.2 SFRSYM    DATA     BIT       RFCKEN
      000000F8H   SFRSYM    DATA     BIT       WPEN
      000000F1H   SFRSYM    DATA     BYTE      AESKIN
      00000088H.1 SFRSYM    DATA     BIT       IE0
      000000F8H.4 SFRSYM    DATA     BIT       RDYN
      00000088H.3 SFRSYM    DATA     BIT       IE1
      000000A3H   SFRSYM    DATA     BYTE      CLKCTL
      000000F0H   SFRSYM    DATA     BYTE      B
      000000E9H   SFRSYM    DATA     BYTE      MD0
      000000EAH   SFRSYM    DATA     BYTE      MD1
      000000BDH   SFRSYM    DATA     BYTE      SSDATA
      000000EBH   SFRSYM    DATA     BYTE      MD2
      000000ECH   SFRSYM    DATA     BYTE      MD3
      000000EDH   SFRSYM    DATA     BYTE      MD4
      000000EEH   SFRSYM    DATA     BYTE      MD5
      000000E0H   SFRSYM    DATA     BYTE      ACC
      000000B5H   SFRSYM    DATA     BYTE      TICKDV
      000000A8H.4 SFRSYM    DATA     BIT       ES0
      000000A8H.1 SFRSYM    DATA     BIT       ET0
      000000A9H   SFRSYM    DATA     BYTE      IP0
      000000A8H.3 SFRSYM    DATA     BIT       ET1
      00000088H.5 SFRSYM    DATA     BIT       TF0
      000000B9H   SFRSYM    DATA     BYTE      IP1
      000000A8H.5 SFRSYM    DATA     BIT       ET2
      00000098H   SFRSYM    DATA     BIT       RI0
      00000088H.7 SFRSYM    DATA     BIT       TF1
      000000C0H   SFRSYM    DATA     BIT       RFSPIF
      000000C0H.6 SFRSYM    DATA     BIT       TF2
      000000A0H   SFRSYM    DATA     BYTE      USBCON
      0000008CH   SFRSYM    DATA     BYTE      TH0
      000000A8H   SFRSYM    DATA     BIT       EX0
      00000098H.1 SFRSYM    DATA     BIT       TI0
      00000088H   SFRSYM    DATA     BIT       IT0
      0000008DH   SFRSYM    DATA     BYTE      TH1
LX51 LINKER/LOCATER V4.64.0.0                                                         09/23/2013  15:07:48  PAGE 19


      000000A8H.2 SFRSYM    DATA     BIT       EX1
      00000088H.2 SFRSYM    DATA     BIT       IT1
      000000CDH   SFRSYM    DATA     BYTE      TH2
      000000BCH   SFRSYM    DATA     BYTE      SSCONF
      000000A0H   SFRSYM    DATA     BIT       IV0
      000000D0H   SFRSYM    DATA     BIT       P
      000000A0H.1 SFRSYM    DATA     BIT       IV1
      00000098H.7 SFRSYM    DATA     BIT       SM0
      0000008AH   SFRSYM    DATA     BYTE      TL0
      000000A0H.2 SFRSYM    DATA     BIT       IV2
      00000098H.6 SFRSYM    DATA     BIT       SM1
      0000008BH   SFRSYM    DATA     BYTE      TL1
      000000A0H.3 SFRSYM    DATA     BIT       IV3
      000000CCH   SFRSYM    DATA     BYTE      TL2
      000000A0H.4 SFRSYM    DATA     BIT       IV4
      000000A5H   SFRSYM    DATA     BYTE      WUCONF
      000000D0H.3 SFRSYM    DATA     BIT       RS0
      00000088H.4 SFRSYM    DATA     BIT       TR0
      000000D0H.4 SFRSYM    DATA     BIT       RS1
      00000088H.6 SFRSYM    DATA     BIT       TR1
      000000CAH   SFRSYM    DATA     WORD      CRC
      000000A6H   SFRSYM    DATA     BYTE      INTEXP
      000000FAH   SFRSYM    DATA     BYTE      FCR
      000000D9H   SFRSYM    DATA     BYTE      USBSLP
      00000083H   SFRSYM    DATA     BYTE      DPH
      000000C0H.1 SFRSYM    DATA     BIT       RFF
      000000C0H.3 SFRSYM    DATA     BIT       USBWUF
      00000094H   SFRSYM    DATA     BYTE      P0DIR
      00000082H   SFRSYM    DATA     BYTE      DPL
      00000099H   SFRSYM    DATA     BYTE      S0BUF
      00000095H   SFRSYM    DATA     BYTE      P0ALT
      000000B8H.7 SFRSYM    DATA     BIT       EXEN2
      000000BEH   SFRSYM    DATA     BYTE      SSSTAT
      000000A4H   SFRSYM    DATA     BYTE      PWRDWN
      00000098H   SFRSYM    DATA     BYTE      S0CON
      000000B1H   SFRSYM    DATA     BYTE      RSTRES
      000000C8H   SFRSYM    DATA     BYTE      T2CON
      00000092H   SFRSYM    DATA     BYTE      DPS
      000000B8H.4 SFRSYM    DATA     BIT       USB
      000000F8H.5 SFRSYM    DATA     BIT       WEN
      000000F8H   SFRSYM    DATA     BYTE      FSR
      000000B8H.2 SFRSYM    DATA     BIT       SPI
      000000F8H.1 SFRSYM    DATA     BIT       RDEND
      000000C9H   SFRSYM    DATA     BYTE      P0EXP
      0000008EH   SFRSYM    DATA     BYTE      CKCON
      000000E8H   SFRSYM    DATA     BYTE      AESCS
      000000F8H.3 SFRSYM    DATA     BIT       INFEN
      000000F8H.7 SFRSYM    DATA     BIT       MCDIS
      000000C0H.5 SFRSYM    DATA     BIT       WUF
      000000E5H   SFRSYM    DATA     BYTE      RFDAT
      000000EFH   SFRSYM    DATA     BYTE      ARCON
      000000D0H.5 SFRSYM    DATA     BIT       F0
      000000D0H.1 SFRSYM    DATA     BIT       F1
      000000F8H.6 SFRSYM    DATA     BIT       STP
      000000F2H   SFRSYM    DATA     BYTE      AESIV
      00000090H   SFRSYM    DATA     BYTE      RFCON
      000000D0H   SFRSYM    DATA     BYTE      PSW
      000000B2H   SFRSYM    DATA     BYTE      SMDAT
      000000ADH   SFRSYM    DATA     BYTE      REGXC
      00000098H.2 SFRSYM    DATA     BIT       RB80
      000000E6H   SFRSYM    DATA     BYTE      RFCTL
      000000D8H   SFRSYM    DATA     BYTE      WDCON
      000000C0H   SFRSYM    DATA     BYTE      IRCON
      00000090H.1 SFRSYM    DATA     BIT       RFCSN

LX51 LINKER/LOCATER V4.64.0.0                                                         09/23/2013  15:07:48  PAGE 20


      01000800H   BLOCK     CODE     ---       LVL=0
      01000826H   LINE      ---      ---       #23
      01000826H   LINE      ---      ---       #25
      01000828H   LINE      ---      ---       #26
      0100082AH   LINE      ---      ---       #27
      01000838H   LINE      ---      ---       #28
      ---         BLOCKEND  ---      ---       LVL=0

      ---         MODULE    ---      ---       GZLL_RADIO_ISR
      01000966H   PUBLIC    CODE     ---       nrf_isr
      00000098H.3 SFRSYM    DATA     BIT       TB80
      000000C8H   SFRSYM    DATA     BIT       T2I0
      000000C3H   SFRSYM    DATA     BYTE      CCH1
      000000ABH   SFRSYM    DATA     BYTE      REGXH
      00000080H   SFRSYM    DATA     BYTE      P0
      000000C8H.1 SFRSYM    DATA     BIT       T2I1
      000000C5H   SFRSYM    DATA     BYTE      CCH2
      000000C7H   SFRSYM    DATA     BYTE      CCH3
      00000098H.5 SFRSYM    DATA     BIT       SM20
      000000D0H.6 SFRSYM    DATA     BIT       AC
      000000C2H   SFRSYM    DATA     BYTE      CCL1
      000000ACH   SFRSYM    DATA     BYTE      REGXL
      000000C4H   SFRSYM    DATA     BYTE      CCL2
      000000B3H   SFRSYM    DATA     BYTE      SMCTL
      000000D8H.7 SFRSYM    DATA     BIT       BD
      000000B8H   SFRSYM    DATA     BIT       RFSPI
      000000A8H.7 SFRSYM    DATA     BIT       EA
      000000CCH   SFRSYM    DATA     WORD      T2
      000000C6H   SFRSYM    DATA     BYTE      CCL3
      000000C8H.3 SFRSYM    DATA     BIT       T2R0
      000000C8H.4 SFRSYM    DATA     BIT       T2R1
      000000A8H   SFRSYM    DATA     BYTE      IEN0
      000000B8H   SFRSYM    DATA     BYTE      IEN1
      00000085H   SFRSYM    DATA     BYTE      DPH1
      0000009AH   SFRSYM    DATA     BYTE      IEN2
      00000084H   SFRSYM    DATA     BYTE      DPL1
      000000C8H.5 SFRSYM    DATA     BIT       I2FR
      000000C8H.6 SFRSYM    DATA     BIT       I3FR
      000000E8H   SFRSYM    DATA     BIT       GO
      000000C0H.7 SFRSYM    DATA     BIT       EXF2
      00000098H.4 SFRSYM    DATA     BIT       REN0
      000000F5H   SFRSYM    DATA     BYTE      AESIA1
      000000C8H.2 SFRSYM    DATA     BIT       T2CM
      000000F6H   SFRSYM    DATA     BYTE      AESIA2
      000000B8H.1 SFRSYM    DATA     BIT       RF
      000000B8H.3 SFRSYM    DATA     BIT       USBWU
      000000B8H.5 SFRSYM    DATA     BIT       WUIRQ
      000000C1H   SFRSYM    DATA     BYTE      CCEN
      000000D0H.7 SFRSYM    DATA     BIT       CY
      000000F3H   SFRSYM    DATA     BYTE      AESD
      000000E8H.1 SFRSYM    DATA     BIT       DECR
      00000090H   SFRSYM    DATA     BIT       RFCE
      000000CBH   SFRSYM    DATA     BYTE      CRCH
      00000081H   SFRSYM    DATA     BYTE      SP
      000000A0H.5 SFRSYM    DATA     BIT       SUSPEND
      000000A0H.7 SFRSYM    DATA     BIT       SWRST
      000000D0H.2 SFRSYM    DATA     BIT       OV
      000000CAH   SFRSYM    DATA     BYTE      CRCL
      000000C8H.7 SFRSYM    DATA     BIT       T2PS
      000000A0H.6 SFRSYM    DATA     BIT       WU
      000000F9H   SFRSYM    DATA     BYTE      FPCR
      00000080H   SFRSYM    DATA     BIT       P00
      000000BAH   SFRSYM    DATA     BYTE      S0RELH
      00000080H.1 SFRSYM    DATA     BIT       P01
      000000C0H.4 SFRSYM    DATA     BIT       USBF
LX51 LINKER/LOCATER V4.64.0.0                                                         09/23/2013  15:07:48  PAGE 21


      00000087H   SFRSYM    DATA     BYTE      PCON
      00000080H.3 SFRSYM    DATA     BIT       MCSN
      00000080H.2 SFRSYM    DATA     BIT       P02
      00000080H.3 SFRSYM    DATA     BIT       P03
      000000C0H.2 SFRSYM    DATA     BIT       SPIF
      000000F8H.2 SFRSYM    DATA     BIT       RDIS
      00000080H.4 SFRSYM    DATA     BIT       P04
      000000AAH   SFRSYM    DATA     BYTE      S0RELL
      00000080H.5 SFRSYM    DATA     BIT       P05
      00000089H   SFRSYM    DATA     BYTE      TMOD
      00000088H   SFRSYM    DATA     BYTE      TCON
      000000C2H   SFRSYM    DATA     WORD      CC1
      00000080H.3 SFRSYM    DATA     BIT       SCSN
      000000C4H   SFRSYM    DATA     WORD      CC2
      000000C6H   SFRSYM    DATA     WORD      CC3
      00000090H.2 SFRSYM    DATA     BIT       RFCKEN
      000000F8H   SFRSYM    DATA     BIT       WPEN
      000000F1H   SFRSYM    DATA     BYTE      AESKIN
      00000088H.1 SFRSYM    DATA     BIT       IE0
      000000F8H.4 SFRSYM    DATA     BIT       RDYN
      00000088H.3 SFRSYM    DATA     BIT       IE1
      000000A3H   SFRSYM    DATA     BYTE      CLKCTL
      000000F0H   SFRSYM    DATA     BYTE      B
      000000E9H   SFRSYM    DATA     BYTE      MD0
      000000EAH   SFRSYM    DATA     BYTE      MD1
      000000BDH   SFRSYM    DATA     BYTE      SSDATA
      000000EBH   SFRSYM    DATA     BYTE      MD2
      000000ECH   SFRSYM    DATA     BYTE      MD3
      000000EDH   SFRSYM    DATA     BYTE      MD4
      000000EEH   SFRSYM    DATA     BYTE      MD5
      000000E0H   SFRSYM    DATA     BYTE      ACC
      000000B5H   SFRSYM    DATA     BYTE      TICKDV
      000000A8H.4 SFRSYM    DATA     BIT       ES0
      000000A8H.1 SFRSYM    DATA     BIT       ET0
      000000A9H   SFRSYM    DATA     BYTE      IP0
      000000A8H.3 SFRSYM    DATA     BIT       ET1
      00000088H.5 SFRSYM    DATA     BIT       TF0
      000000B9H   SFRSYM    DATA     BYTE      IP1
      000000A8H.5 SFRSYM    DATA     BIT       ET2
      00000098H   SFRSYM    DATA     BIT       RI0
      00000088H.7 SFRSYM    DATA     BIT       TF1
      000000C0H   SFRSYM    DATA     BIT       RFSPIF
      000000C0H.6 SFRSYM    DATA     BIT       TF2
      000000A0H   SFRSYM    DATA     BYTE      USBCON
      0000008CH   SFRSYM    DATA     BYTE      TH0
      000000A8H   SFRSYM    DATA     BIT       EX0
      00000098H.1 SFRSYM    DATA     BIT       TI0
      00000088H   SFRSYM    DATA     BIT       IT0
      0000008DH   SFRSYM    DATA     BYTE      TH1
      000000A8H.2 SFRSYM    DATA     BIT       EX1
      00000088H.2 SFRSYM    DATA     BIT       IT1
      000000CDH   SFRSYM    DATA     BYTE      TH2
      000000BCH   SFRSYM    DATA     BYTE      SSCONF
      000000A0H   SFRSYM    DATA     BIT       IV0
      000000D0H   SFRSYM    DATA     BIT       P
      000000A0H.1 SFRSYM    DATA     BIT       IV1
      00000098H.7 SFRSYM    DATA     BIT       SM0
      0000008AH   SFRSYM    DATA     BYTE      TL0
      000000A0H.2 SFRSYM    DATA     BIT       IV2
      00000098H.6 SFRSYM    DATA     BIT       SM1
      0000008BH   SFRSYM    DATA     BYTE      TL1
      000000A0H.3 SFRSYM    DATA     BIT       IV3
      000000CCH   SFRSYM    DATA     BYTE      TL2
      000000A0H.4 SFRSYM    DATA     BIT       IV4
      000000A5H   SFRSYM    DATA     BYTE      WUCONF
LX51 LINKER/LOCATER V4.64.0.0                                                         09/23/2013  15:07:48  PAGE 22


      000000D0H.3 SFRSYM    DATA     BIT       RS0
      00000088H.4 SFRSYM    DATA     BIT       TR0
      000000D0H.4 SFRSYM    DATA     BIT       RS1
      00000088H.6 SFRSYM    DATA     BIT       TR1
      000000CAH   SFRSYM    DATA     WORD      CRC
      000000A6H   SFRSYM    DATA     BYTE      INTEXP
      000000FAH   SFRSYM    DATA     BYTE      FCR
      000000D9H   SFRSYM    DATA     BYTE      USBSLP
      00000083H   SFRSYM    DATA     BYTE      DPH
      000000C0H.1 SFRSYM    DATA     BIT       RFF
      000000C0H.3 SFRSYM    DATA     BIT       USBWUF
      00000094H   SFRSYM    DATA     BYTE      P0DIR
      00000082H   SFRSYM    DATA     BYTE      DPL
      00000099H   SFRSYM    DATA     BYTE      S0BUF
      00000095H   SFRSYM    DATA     BYTE      P0ALT
      000000B8H.7 SFRSYM    DATA     BIT       EXEN2
      000000BEH   SFRSYM    DATA     BYTE      SSSTAT
      000000A4H   SFRSYM    DATA     BYTE      PWRDWN
      00000098H   SFRSYM    DATA     BYTE      S0CON
      000000B1H   SFRSYM    DATA     BYTE      RSTRES
      000000C8H   SFRSYM    DATA     BYTE      T2CON
      00000092H   SFRSYM    DATA     BYTE      DPS
      000000B8H.4 SFRSYM    DATA     BIT       USB
      000000F8H.5 SFRSYM    DATA     BIT       WEN
      000000F8H   SFRSYM    DATA     BYTE      FSR
      000000B8H.2 SFRSYM    DATA     BIT       SPI
      000000F8H.1 SFRSYM    DATA     BIT       RDEND
      000000C9H   SFRSYM    DATA     BYTE      P0EXP
      0000008EH   SFRSYM    DATA     BYTE      CKCON
      000000E8H   SFRSYM    DATA     BYTE      AESCS
      000000F8H.3 SFRSYM    DATA     BIT       INFEN
      000000F8H.7 SFRSYM    DATA     BIT       MCDIS
      000000C0H.5 SFRSYM    DATA     BIT       WUF
      000000E5H   SFRSYM    DATA     BYTE      RFDAT
      000000EFH   SFRSYM    DATA     BYTE      ARCON
      000000D0H.5 SFRSYM    DATA     BIT       F0
      000000D0H.1 SFRSYM    DATA     BIT       F1
      000000F8H.6 SFRSYM    DATA     BIT       STP
      000000F2H   SFRSYM    DATA     BYTE      AESIV
      00000090H   SFRSYM    DATA     BYTE      RFCON
      000000D0H   SFRSYM    DATA     BYTE      PSW
      000000B2H   SFRSYM    DATA     BYTE      SMDAT
      000000ADH   SFRSYM    DATA     BYTE      REGXC
      00000098H.2 SFRSYM    DATA     BIT       RB80
      000000E6H   SFRSYM    DATA     BYTE      RFCTL
      000000D8H   SFRSYM    DATA     BYTE      WDCON
      000000C0H   SFRSYM    DATA     BYTE      IRCON
      00000090H.1 SFRSYM    DATA     BIT       RFCSN

      01000966H   BLOCK     CODE     ---       LVL=0
      0100098CH   LINE      ---      ---       #20
      0100098CH   LINE      ---      ---       #22
      0100098EH   LINE      ---      ---       #23
      ---         BLOCKEND  ---      ---       LVL=0

      ---         MODULE    ---      ---       GZLL_MCU
      01000FC1H   PUBLIC    CODE     ---       _gzll_set_timer_period
      01000EECH   PUBLIC    CODE     ---       mcu_init
      00000098H.3 SFRSYM    DATA     BIT       TB80
      000000C8H   SFRSYM    DATA     BIT       T2I0
      000000C3H   SFRSYM    DATA     BYTE      CCH1
      000000ABH   SFRSYM    DATA     BYTE      REGXH
      00000080H   SFRSYM    DATA     BYTE      P0
      000000C8H.1 SFRSYM    DATA     BIT       T2I1
      000000C5H   SFRSYM    DATA     BYTE      CCH2
LX51 LINKER/LOCATER V4.64.0.0                                                         09/23/2013  15:07:48  PAGE 23


      000000C7H   SFRSYM    DATA     BYTE      CCH3
      00000098H.5 SFRSYM    DATA     BIT       SM20
      000000D0H.6 SFRSYM    DATA     BIT       AC
      000000C2H   SFRSYM    DATA     BYTE      CCL1
      000000ACH   SFRSYM    DATA     BYTE      REGXL
      000000C4H   SFRSYM    DATA     BYTE      CCL2
      000000B3H   SFRSYM    DATA     BYTE      SMCTL
      000000D8H.7 SFRSYM    DATA     BIT       BD
      000000B8H   SFRSYM    DATA     BIT       RFSPI
      000000A8H.7 SFRSYM    DATA     BIT       EA
      000000CCH   SFRSYM    DATA     WORD      T2
      000000C6H   SFRSYM    DATA     BYTE      CCL3
      000000C8H.3 SFRSYM    DATA     BIT       T2R0
      000000C8H.4 SFRSYM    DATA     BIT       T2R1
      000000A8H   SFRSYM    DATA     BYTE      IEN0
      000000B8H   SFRSYM    DATA     BYTE      IEN1
      00000085H   SFRSYM    DATA     BYTE      DPH1
      0000009AH   SFRSYM    DATA     BYTE      IEN2
      00000084H   SFRSYM    DATA     BYTE      DPL1
      000000C8H.5 SFRSYM    DATA     BIT       I2FR
      000000C8H.6 SFRSYM    DATA     BIT       I3FR
      000000E8H   SFRSYM    DATA     BIT       GO
      000000C0H.7 SFRSYM    DATA     BIT       EXF2
      00000098H.4 SFRSYM    DATA     BIT       REN0
      000000F5H   SFRSYM    DATA     BYTE      AESIA1
      000000C8H.2 SFRSYM    DATA     BIT       T2CM
      000000F6H   SFRSYM    DATA     BYTE      AESIA2
      000000B8H.1 SFRSYM    DATA     BIT       RF
      000000B8H.3 SFRSYM    DATA     BIT       USBWU
      000000B8H.5 SFRSYM    DATA     BIT       WUIRQ
      000000C1H   SFRSYM    DATA     BYTE      CCEN
      000000D0H.7 SFRSYM    DATA     BIT       CY
      000000F3H   SFRSYM    DATA     BYTE      AESD
      000000E8H.1 SFRSYM    DATA     BIT       DECR
      00000090H   SFRSYM    DATA     BIT       RFCE
      000000CBH   SFRSYM    DATA     BYTE      CRCH
      00000081H   SFRSYM    DATA     BYTE      SP
      000000A0H.5 SFRSYM    DATA     BIT       SUSPEND
      000000A0H.7 SFRSYM    DATA     BIT       SWRST
      000000D0H.2 SFRSYM    DATA     BIT       OV
      000000CAH   SFRSYM    DATA     BYTE      CRCL
      000000C8H.7 SFRSYM    DATA     BIT       T2PS
      000000A0H.6 SFRSYM    DATA     BIT       WU
      000000F9H   SFRSYM    DATA     BYTE      FPCR
      00000080H   SFRSYM    DATA     BIT       P00
      000000BAH   SFRSYM    DATA     BYTE      S0RELH
      00000080H.1 SFRSYM    DATA     BIT       P01
      000000C0H.4 SFRSYM    DATA     BIT       USBF
      00000087H   SFRSYM    DATA     BYTE      PCON
      00000080H.3 SFRSYM    DATA     BIT       MCSN
      00000080H.2 SFRSYM    DATA     BIT       P02
      00000080H.3 SFRSYM    DATA     BIT       P03
      000000C0H.2 SFRSYM    DATA     BIT       SPIF
      000000F8H.2 SFRSYM    DATA     BIT       RDIS
      00000080H.4 SFRSYM    DATA     BIT       P04
      000000AAH   SFRSYM    DATA     BYTE      S0RELL
      00000080H.5 SFRSYM    DATA     BIT       P05
      00000089H   SFRSYM    DATA     BYTE      TMOD
      00000088H   SFRSYM    DATA     BYTE      TCON
      000000C2H   SFRSYM    DATA     WORD      CC1
      00000080H.3 SFRSYM    DATA     BIT       SCSN
      000000C4H   SFRSYM    DATA     WORD      CC2
      000000C6H   SFRSYM    DATA     WORD      CC3
      00000090H.2 SFRSYM    DATA     BIT       RFCKEN
      000000F8H   SFRSYM    DATA     BIT       WPEN
LX51 LINKER/LOCATER V4.64.0.0                                                         09/23/2013  15:07:48  PAGE 24


      000000F1H   SFRSYM    DATA     BYTE      AESKIN
      00000088H.1 SFRSYM    DATA     BIT       IE0
      000000F8H.4 SFRSYM    DATA     BIT       RDYN
      00000088H.3 SFRSYM    DATA     BIT       IE1
      000000A3H   SFRSYM    DATA     BYTE      CLKCTL
      000000F0H   SFRSYM    DATA     BYTE      B
      000000E9H   SFRSYM    DATA     BYTE      MD0
      000000EAH   SFRSYM    DATA     BYTE      MD1
      000000BDH   SFRSYM    DATA     BYTE      SSDATA
      000000EBH   SFRSYM    DATA     BYTE      MD2
      000000ECH   SFRSYM    DATA     BYTE      MD3
      000000EDH   SFRSYM    DATA     BYTE      MD4
      000000EEH   SFRSYM    DATA     BYTE      MD5
      000000E0H   SFRSYM    DATA     BYTE      ACC
      000000B5H   SFRSYM    DATA     BYTE      TICKDV
      000000A8H.4 SFRSYM    DATA     BIT       ES0
      000000A8H.1 SFRSYM    DATA     BIT       ET0
      000000A9H   SFRSYM    DATA     BYTE      IP0
      000000A8H.3 SFRSYM    DATA     BIT       ET1
      00000088H.5 SFRSYM    DATA     BIT       TF0
      000000B9H   SFRSYM    DATA     BYTE      IP1
      000000A8H.5 SFRSYM    DATA     BIT       ET2
      00000098H   SFRSYM    DATA     BIT       RI0
      00000088H.7 SFRSYM    DATA     BIT       TF1
      000000C0H   SFRSYM    DATA     BIT       RFSPIF
      000000C0H.6 SFRSYM    DATA     BIT       TF2
      000000A0H   SFRSYM    DATA     BYTE      USBCON
      0000008CH   SFRSYM    DATA     BYTE      TH0
      000000A8H   SFRSYM    DATA     BIT       EX0
      00000098H.1 SFRSYM    DATA     BIT       TI0
      00000088H   SFRSYM    DATA     BIT       IT0
      0000008DH   SFRSYM    DATA     BYTE      TH1
      000000A8H.2 SFRSYM    DATA     BIT       EX1
      00000088H.2 SFRSYM    DATA     BIT       IT1
      000000CDH   SFRSYM    DATA     BYTE      TH2
      000000BCH   SFRSYM    DATA     BYTE      SSCONF
      000000A0H   SFRSYM    DATA     BIT       IV0
      000000D0H   SFRSYM    DATA     BIT       P
      000000A0H.1 SFRSYM    DATA     BIT       IV1
      00000098H.7 SFRSYM    DATA     BIT       SM0
      0000008AH   SFRSYM    DATA     BYTE      TL0
      000000A0H.2 SFRSYM    DATA     BIT       IV2
      00000098H.6 SFRSYM    DATA     BIT       SM1
      0000008BH   SFRSYM    DATA     BYTE      TL1
      000000A0H.3 SFRSYM    DATA     BIT       IV3
      000000CCH   SFRSYM    DATA     BYTE      TL2
      000000A0H.4 SFRSYM    DATA     BIT       IV4
      000000A5H   SFRSYM    DATA     BYTE      WUCONF
      000000D0H.3 SFRSYM    DATA     BIT       RS0
      00000088H.4 SFRSYM    DATA     BIT       TR0
      000000D0H.4 SFRSYM    DATA     BIT       RS1
      00000088H.6 SFRSYM    DATA     BIT       TR1
      000000CAH   SFRSYM    DATA     WORD      CRC
      000000A6H   SFRSYM    DATA     BYTE      INTEXP
      000000FAH   SFRSYM    DATA     BYTE      FCR
      000000D9H   SFRSYM    DATA     BYTE      USBSLP
      00000083H   SFRSYM    DATA     BYTE      DPH
      000000C0H.1 SFRSYM    DATA     BIT       RFF
      000000C0H.3 SFRSYM    DATA     BIT       USBWUF
      00000094H   SFRSYM    DATA     BYTE      P0DIR
      00000082H   SFRSYM    DATA     BYTE      DPL
      00000099H   SFRSYM    DATA     BYTE      S0BUF
      00000095H   SFRSYM    DATA     BYTE      P0ALT
      000000B8H.7 SFRSYM    DATA     BIT       EXEN2
      000000BEH   SFRSYM    DATA     BYTE      SSSTAT
LX51 LINKER/LOCATER V4.64.0.0                                                         09/23/2013  15:07:48  PAGE 25


      000000A4H   SFRSYM    DATA     BYTE      PWRDWN
      00000098H   SFRSYM    DATA     BYTE      S0CON
      000000B1H   SFRSYM    DATA     BYTE      RSTRES
      000000C8H   SFRSYM    DATA     BYTE      T2CON
      00000092H   SFRSYM    DATA     BYTE      DPS
      000000B8H.4 SFRSYM    DATA     BIT       USB
      000000F8H.5 SFRSYM    DATA     BIT       WEN
      000000F8H   SFRSYM    DATA     BYTE      FSR
      000000B8H.2 SFRSYM    DATA     BIT       SPI
      000000F8H.1 SFRSYM    DATA     BIT       RDEND
      000000C9H   SFRSYM    DATA     BYTE      P0EXP
      0000008EH   SFRSYM    DATA     BYTE      CKCON
      000000E8H   SFRSYM    DATA     BYTE      AESCS
      000000F8H.3 SFRSYM    DATA     BIT       INFEN
      000000F8H.7 SFRSYM    DATA     BIT       MCDIS
      000000C0H.5 SFRSYM    DATA     BIT       WUF
      000000E5H   SFRSYM    DATA     BYTE      RFDAT
      000000EFH   SFRSYM    DATA     BYTE      ARCON
      000000D0H.5 SFRSYM    DATA     BIT       F0
      000000D0H.1 SFRSYM    DATA     BIT       F1
      000000F8H.6 SFRSYM    DATA     BIT       STP
      000000F2H   SFRSYM    DATA     BYTE      AESIV
      00000090H   SFRSYM    DATA     BYTE      RFCON
      000000D0H   SFRSYM    DATA     BYTE      PSW
      000000B2H   SFRSYM    DATA     BYTE      SMDAT
      000000ADH   SFRSYM    DATA     BYTE      REGXC
      00000098H.2 SFRSYM    DATA     BIT       RB80
      000000E6H   SFRSYM    DATA     BYTE      RFCTL
      000000D8H   SFRSYM    DATA     BYTE      WDCON
      000000C0H   SFRSYM    DATA     BYTE      IRCON
      00000090H.1 SFRSYM    DATA     BIT       RFCSN

      01000EECH   BLOCK     CODE     ---       LVL=0
      01000EECH   LINE      ---      ---       #21
      01000EECH   LINE      ---      ---       #22
      01000EECH   LINE      ---      ---       #23
      01000EEEH   LINE      ---      ---       #25
      01000EF0H   LINE      ---      ---       #26
      01000EF3H   LINE      ---      ---       #28
      01000EF6H   LINE      ---      ---       #29
      01000EF8H   LINE      ---      ---       #30
      ---         BLOCKEND  ---      ---       LVL=0

      01000FC1H   BLOCK     CODE     ---       LVL=0
      01000FC1H   LINE      ---      ---       #32
      01000FC1H   LINE      ---      ---       #33
      01000FC1H   LINE      ---      ---       #34
      01000FF7H   LINE      ---      ---       #35
      00000006H   SYMBOL    DATA     WORD      period
      ---         BLOCKEND  ---      ---       LVL=0

      ---         MODULE    ---      ---       GZLL
      00000021H   PUBLIC    DATA     BIT       gzll_pending_tx_start
      00000021H.4 PUBLIC    DATA     BIT       b_rfce
      00000021H.3 PUBLIC    DATA     BIT       gzll_claim_rfck_en
      00000020H.5 PUBLIC    DATA     BIT       gzll_rx_power_high_f
      00000020H.6 PUBLIC    DATA     BIT       gzll_radio_active_f
      00000021H.2 PUBLIC    DATA     BIT       gzll_timer_period_modified
      00000020H.1 PUBLIC    DATA     BIT       gzll_tx_setup_modified
      00000020H.2 PUBLIC    DATA     BIT       gzll_rx_setup_modified
      00000020H.4 PUBLIC    DATA     BIT       gzll_rx_dr
      00000020H   PUBLIC    DATA     BIT       gzll_tx_success_f
      00000021H.1 PUBLIC    DATA     BIT       gzll_pending_goto_idle
      00000020H.3 PUBLIC    DATA     BIT       gzll_sync_on
      00000020H.7 PUBLIC    DATA     BIT       gzll_power_on
LX51 LINKER/LOCATER V4.64.0.0                                                         09/23/2013  15:07:48  PAGE 26


      01000859H   PUBLIC    CODE     ---       gzll_timer_isr_function
      010009C8H   PUBLIC    CODE     ---       gzll_radio_isr_function
      01001041H   PUBLIC    CODE     ---       _gzll_delay_50us
      01000E3DH   PUBLIC    CODE     ---       gzll_goto_idle
      01000F3AH   PUBLIC    CODE     ---       gzll_rx_fifo_flush
      00000044H   PUBLIC    DATA     BYTE      ?_gzll_rx_fifo_read?BYTE
      01000F49H   PUBLIC    CODE     ---       _gzll_rx_fifo_read
      01000DC3H   PUBLIC    CODE     ---       gzll_rx_start
      01000677H   PUBLIC    CODE     ---       gzll_init
      00000098H.3 SFRSYM    DATA     BIT       TB80
      000000C8H   SFRSYM    DATA     BIT       T2I0
      000000C3H   SFRSYM    DATA     BYTE      CCH1
      000000ABH   SFRSYM    DATA     BYTE      REGXH
      00000080H   SFRSYM    DATA     BYTE      P0
      000000C8H.1 SFRSYM    DATA     BIT       T2I1
      000000C5H   SFRSYM    DATA     BYTE      CCH2
      000000C7H   SFRSYM    DATA     BYTE      CCH3
      00000098H.5 SFRSYM    DATA     BIT       SM20
      000000D0H.6 SFRSYM    DATA     BIT       AC
      000000C2H   SFRSYM    DATA     BYTE      CCL1
      000000ACH   SFRSYM    DATA     BYTE      REGXL
      000000C4H   SFRSYM    DATA     BYTE      CCL2
      000000B3H   SFRSYM    DATA     BYTE      SMCTL
      000000D8H.7 SFRSYM    DATA     BIT       BD
      000000B8H   SFRSYM    DATA     BIT       RFSPI
      000000A8H.7 SFRSYM    DATA     BIT       EA
      000000CCH   SFRSYM    DATA     WORD      T2
      000000C6H   SFRSYM    DATA     BYTE      CCL3
      000000C8H.3 SFRSYM    DATA     BIT       T2R0
      000000C8H.4 SFRSYM    DATA     BIT       T2R1
      000000A8H   SFRSYM    DATA     BYTE      IEN0
      000000B8H   SFRSYM    DATA     BYTE      IEN1
      00000085H   SFRSYM    DATA     BYTE      DPH1
      0000009AH   SFRSYM    DATA     BYTE      IEN2
      00000084H   SFRSYM    DATA     BYTE      DPL1
      000000C8H.5 SFRSYM    DATA     BIT       I2FR
      000000C8H.6 SFRSYM    DATA     BIT       I3FR
      000000E8H   SFRSYM    DATA     BIT       GO
      000000C0H.7 SFRSYM    DATA     BIT       EXF2
      00000098H.4 SFRSYM    DATA     BIT       REN0
      000000F5H   SFRSYM    DATA     BYTE      AESIA1
      000000C8H.2 SFRSYM    DATA     BIT       T2CM
      000000F6H   SFRSYM    DATA     BYTE      AESIA2
      000000B8H.1 SFRSYM    DATA     BIT       RF
      000000B8H.3 SFRSYM    DATA     BIT       USBWU
      000000B8H.5 SFRSYM    DATA     BIT       WUIRQ
      000000C1H   SFRSYM    DATA     BYTE      CCEN
      000000D0H.7 SFRSYM    DATA     BIT       CY
      000000F3H   SFRSYM    DATA     BYTE      AESD
      000000E8H.1 SFRSYM    DATA     BIT       DECR
      00000090H   SFRSYM    DATA     BIT       RFCE
      000000CBH   SFRSYM    DATA     BYTE      CRCH
      00000081H   SFRSYM    DATA     BYTE      SP
      000000A0H.5 SFRSYM    DATA     BIT       SUSPEND
      000000A0H.7 SFRSYM    DATA     BIT       SWRST
      000000D0H.2 SFRSYM    DATA     BIT       OV
      000000CAH   SFRSYM    DATA     BYTE      CRCL
      000000C8H.7 SFRSYM    DATA     BIT       T2PS
      000000A0H.6 SFRSYM    DATA     BIT       WU
      000000F9H   SFRSYM    DATA     BYTE      FPCR
      00000080H   SFRSYM    DATA     BIT       P00
      000000BAH   SFRSYM    DATA     BYTE      S0RELH
      00000080H.1 SFRSYM    DATA     BIT       P01
      000000C0H.4 SFRSYM    DATA     BIT       USBF
      00000087H   SFRSYM    DATA     BYTE      PCON
LX51 LINKER/LOCATER V4.64.0.0                                                         09/23/2013  15:07:48  PAGE 27


      00000080H.3 SFRSYM    DATA     BIT       MCSN
      00000080H.2 SFRSYM    DATA     BIT       P02
      00000080H.3 SFRSYM    DATA     BIT       P03
      000000C0H.2 SFRSYM    DATA     BIT       SPIF
      000000F8H.2 SFRSYM    DATA     BIT       RDIS
      00000080H.4 SFRSYM    DATA     BIT       P04
      000000AAH   SFRSYM    DATA     BYTE      S0RELL
      00000080H.5 SFRSYM    DATA     BIT       P05
      00000089H   SFRSYM    DATA     BYTE      TMOD
      00000088H   SFRSYM    DATA     BYTE      TCON
      000000C2H   SFRSYM    DATA     WORD      CC1
      00000080H.3 SFRSYM    DATA     BIT       SCSN
      000000C4H   SFRSYM    DATA     WORD      CC2
      000000C6H   SFRSYM    DATA     WORD      CC3
      00000090H.2 SFRSYM    DATA     BIT       RFCKEN
      000000F8H   SFRSYM    DATA     BIT       WPEN
      000000F1H   SFRSYM    DATA     BYTE      AESKIN
      00000088H.1 SFRSYM    DATA     BIT       IE0
      000000F8H.4 SFRSYM    DATA     BIT       RDYN
      00000088H.3 SFRSYM    DATA     BIT       IE1
      000000A3H   SFRSYM    DATA     BYTE      CLKCTL
      000000F0H   SFRSYM    DATA     BYTE      B
      000000E9H   SFRSYM    DATA     BYTE      MD0
      000000EAH   SFRSYM    DATA     BYTE      MD1
      000000BDH   SFRSYM    DATA     BYTE      SSDATA
      000000EBH   SFRSYM    DATA     BYTE      MD2
      000000ECH   SFRSYM    DATA     BYTE      MD3
      000000EDH   SFRSYM    DATA     BYTE      MD4
      000000EEH   SFRSYM    DATA     BYTE      MD5
      000000E0H   SFRSYM    DATA     BYTE      ACC
      000000B5H   SFRSYM    DATA     BYTE      TICKDV
      000000A8H.4 SFRSYM    DATA     BIT       ES0
      000000A8H.1 SFRSYM    DATA     BIT       ET0
      000000A9H   SFRSYM    DATA     BYTE      IP0
      000000A8H.3 SFRSYM    DATA     BIT       ET1
      00000088H.5 SFRSYM    DATA     BIT       TF0
      000000B9H   SFRSYM    DATA     BYTE      IP1
      000000A8H.5 SFRSYM    DATA     BIT       ET2
      00000098H   SFRSYM    DATA     BIT       RI0
      00000088H.7 SFRSYM    DATA     BIT       TF1
      000000C0H   SFRSYM    DATA     BIT       RFSPIF
      000000C0H.6 SFRSYM    DATA     BIT       TF2
      000000A0H   SFRSYM    DATA     BYTE      USBCON
      0000008CH   SFRSYM    DATA     BYTE      TH0
      000000A8H   SFRSYM    DATA     BIT       EX0
      00000098H.1 SFRSYM    DATA     BIT       TI0
      00000088H   SFRSYM    DATA     BIT       IT0
      0000008DH   SFRSYM    DATA     BYTE      TH1
      000000A8H.2 SFRSYM    DATA     BIT       EX1
      00000088H.2 SFRSYM    DATA     BIT       IT1
      000000CDH   SFRSYM    DATA     BYTE      TH2
      000000BCH   SFRSYM    DATA     BYTE      SSCONF
      000000A0H   SFRSYM    DATA     BIT       IV0
      000000D0H   SFRSYM    DATA     BIT       P
      000000A0H.1 SFRSYM    DATA     BIT       IV1
      00000098H.7 SFRSYM    DATA     BIT       SM0
      0000008AH   SFRSYM    DATA     BYTE      TL0
      000000A0H.2 SFRSYM    DATA     BIT       IV2
      00000098H.6 SFRSYM    DATA     BIT       SM1
      0000008BH   SFRSYM    DATA     BYTE      TL1
      000000A0H.3 SFRSYM    DATA     BIT       IV3
      000000CCH   SFRSYM    DATA     BYTE      TL2
      000000A0H.4 SFRSYM    DATA     BIT       IV4
      000000A5H   SFRSYM    DATA     BYTE      WUCONF
      000000D0H.3 SFRSYM    DATA     BIT       RS0
LX51 LINKER/LOCATER V4.64.0.0                                                         09/23/2013  15:07:48  PAGE 28


      00000088H.4 SFRSYM    DATA     BIT       TR0
      000000D0H.4 SFRSYM    DATA     BIT       RS1
      00000088H.6 SFRSYM    DATA     BIT       TR1
      000000CAH   SFRSYM    DATA     WORD      CRC
      000000A6H   SFRSYM    DATA     BYTE      INTEXP
      000000FAH   SFRSYM    DATA     BYTE      FCR
      000000D9H   SFRSYM    DATA     BYTE      USBSLP
      00000083H   SFRSYM    DATA     BYTE      DPH
      000000C0H.1 SFRSYM    DATA     BIT       RFF
      000000C0H.3 SFRSYM    DATA     BIT       USBWUF
      00000094H   SFRSYM    DATA     BYTE      P0DIR
      00000082H   SFRSYM    DATA     BYTE      DPL
      00000099H   SFRSYM    DATA     BYTE      S0BUF
      00000095H   SFRSYM    DATA     BYTE      P0ALT
      000000B8H.7 SFRSYM    DATA     BIT       EXEN2
      000000BEH   SFRSYM    DATA     BYTE      SSSTAT
      000000A4H   SFRSYM    DATA     BYTE      PWRDWN
      00000098H   SFRSYM    DATA     BYTE      S0CON
      000000B1H   SFRSYM    DATA     BYTE      RSTRES
      000000C8H   SFRSYM    DATA     BYTE      T2CON
      00000092H   SFRSYM    DATA     BYTE      DPS
      000000B8H.4 SFRSYM    DATA     BIT       USB
      000000F8H.5 SFRSYM    DATA     BIT       WEN
      000000F8H   SFRSYM    DATA     BYTE      FSR
      000000B8H.2 SFRSYM    DATA     BIT       SPI
      000000F8H.1 SFRSYM    DATA     BIT       RDEND
      000000C9H   SFRSYM    DATA     BYTE      P0EXP
      0000008EH   SFRSYM    DATA     BYTE      CKCON
      000000E8H   SFRSYM    DATA     BYTE      AESCS
      000000F8H.3 SFRSYM    DATA     BIT       INFEN
      000000F8H.7 SFRSYM    DATA     BIT       MCDIS
      000000C0H.5 SFRSYM    DATA     BIT       WUF
      000000E5H   SFRSYM    DATA     BYTE      RFDAT
      000000EFH   SFRSYM    DATA     BYTE      ARCON
      000000D0H.5 SFRSYM    DATA     BIT       F0
      000000D0H.1 SFRSYM    DATA     BIT       F1
      000000F8H.6 SFRSYM    DATA     BIT       STP
      000000F2H   SFRSYM    DATA     BYTE      AESIV
      00000090H   SFRSYM    DATA     BYTE      RFCON
      000000D0H   SFRSYM    DATA     BYTE      PSW
      000000B2H   SFRSYM    DATA     BYTE      SMDAT
      000000ADH   SFRSYM    DATA     BYTE      REGXC
      00000098H.2 SFRSYM    DATA     BIT       RB80
      000000E6H   SFRSYM    DATA     BYTE      RFCTL
      000000D8H   SFRSYM    DATA     BYTE      WDCON
      000000C0H   SFRSYM    DATA     BYTE      IRCON
      00000090H.1 SFRSYM    DATA     BIT       RFCSN
      02008001H   SYMBOL    XDATA    BYTE      gzll_current_tx_pipe
      01000F15H   SYMBOL    CODE     ---       gzll_reload_tries_pr_channel_counter
      02008002H   SYMBOL    XDATA    WORD      gzll_timeout_counter
      02008004H   SYMBOL    XDATA    BYTE      gzll_channel_tab_index
      02008005H   SYMBOL    XDATA    ---       gzll_channel_tab
      02008015H   SYMBOL    XDATA    WORD      gzll_chm_rx_mode1_sequence
      0100002EH   SYMBOL    CODE     ---       gzll_interupts_enable_rfck_disable
      01000F27H   SYMBOL    CODE     ---       gzll_interupts_disable_rfck_enable
      010010D6H   SYMBOL    CODE     ---       gzll_chm_get_next_rx_channel
      02008017H   SYMBOL    XDATA    BYTE      gzll_current_tx_payload_length
      010007C2H   SYMBOL    CODE     ---       _gzll_set_radio_power_on
      02008018H   SYMBOL    XDATA    BYTE      gzll_tries_pr_channel_counter
      01001060H   SYMBOL    CODE     ---       gzll_chm_execute
      02008019H   SYMBOL    XDATA    ---       gzll_ack_rx_pipe_fifo
      0200801CH   SYMBOL    XDATA    BYTE      gzll_channel_tab_size
      00000020H   SYMBOL    DATA     WORD      gzll_bit_storage
      01000003H   SYMBOL    CONST    ---       _?ix1000
      0200801DH   SYMBOL    XDATA    WORD      gzll_sync_period
LX51 LINKER/LOCATER V4.64.0.0                                                         09/23/2013  15:07:48  PAGE 29


      01000008H   SYMBOL    CONST    ---       _?ix1001
      01000BD2H   SYMBOL    CODE     ---       _gzll_start_new_tx
      0200801FH   SYMBOL    XDATA    ---       gzll_dyn_params
      0200803FH   SYMBOL    XDATA    ---       gzll_p0_adr
      02008044H   SYMBOL    XDATA    WORD      gzll_channel_switch_counter
      02008046H   SYMBOL    XDATA    BYTE      gzll_ack_rx_pipe_fifo_cnt
      01000E5DH   SYMBOL    CODE     ---       gzll_chm_get_rx_ce_offset
      010010FDH   SYMBOL    CODE     ---       gzll_chm_get_tx_ce_offset
      02008047H   SYMBOL    XDATA    BYTE      gzll_chm_rx_channel_index
      01000C5EH   SYMBOL    CODE     ---       gzll_set_radio_auto_retries
      02008048H   SYMBOL    XDATA    WORD      gzll_try_counter
      010010C6H   SYMBOL    CODE     ---       gzll_chm_reset_rx_channel_index
      0200804AH   SYMBOL    XDATA    BYTE      gzll_chm_hold_rx_channel_index
      0200804BH   SYMBOL    XDATA    WORD      gzll_chm_rx_channel_hold
      01000B9FH   SYMBOL    CODE     ---       gzll_chm_hold_rx_channel
      01000BB7H   SYMBOL    CODE     ---       gzll_chm_get_current_rx_channel
      0200804DH   SYMBOL    XDATA    BYTE      gzll_state_var
      01000B6DH   SYMBOL    CODE     ---       gzll_set_system_idle
      0100100AH   SYMBOL    CODE     ---       _gzll_lfsr_get

      01000F27H   BLOCK     CODE     ---       LVL=0
      01000F27H   LINE      ---      ---       #364
      01000F27H   LINE      ---      ---       #365
      01000F27H   BLOCK     CODE     NEAR LAB  LVL=1
      01000F27H   LINE      ---      ---       #367
      01000F2BH   LINE      ---      ---       #368
      01000F2DH   LINE      ---      ---       #369
      01000F31H   LINE      ---      ---       #370
      01000F35H   LINE      ---      ---       #371
      01000F39H   LINE      ---      ---       #372
      00000007H   SYMBOL    DATA     BYTE      t_ea
      ---         BLOCKEND  CODE     ---       LVL=1
      ---         BLOCKEND  CODE     ---       LVL=0

      0100002EH   BLOCK     CODE     ---       LVL=0
      0100002EH   LINE      ---      ---       #374
      0100002EH   LINE      ---      ---       #375
      0100002EH   LINE      ---      ---       #376
      01000032H   LINE      ---      ---       #377
      01000038H   LINE      ---      ---       #378
      ---         BLOCKEND  ---      ---       LVL=0

      01000677H   BLOCK     CODE     ---       LVL=0
      01000677H   LINE      ---      ---       #384
      01000677H   LINE      ---      ---       #385
      01000677H   BLOCK     CODE     NEAR LAB  LVL=1
      01000677H   LINE      ---      ---       #386
      01000689H   LINE      ---      ---       #388
      0100068CH   LINE      ---      ---       #389
      01000694H   LINE      ---      ---       #391
      01000699H   LINE      ---      ---       #392
      0100069EH   LINE      ---      ---       #393
      010006A3H   LINE      ---      ---       #398
      010006A8H   LINE      ---      ---       #399
      010006AEH   LINE      ---      ---       #401
      010006B0H   LINE      ---      ---       #402
      010006B2H   LINE      ---      ---       #404
      010006B7H   LINE      ---      ---       #405
      010006B9H   LINE      ---      ---       #406
      010006BBH   LINE      ---      ---       #407
      010006BDH   LINE      ---      ---       #408
      010006BFH   LINE      ---      ---       #409
      010006C1H   LINE      ---      ---       #411
      010006C7H   LINE      ---      ---       #412
      010006C9H   LINE      ---      ---       #414
LX51 LINKER/LOCATER V4.64.0.0                                                         09/23/2013  15:07:48  PAGE 30


      010006CBH   LINE      ---      ---       #415
      010006CDH   LINE      ---      ---       #416
      010006D1H   LINE      ---      ---       #421
      010006DBH   LINE      ---      ---       #422
      010006E6H   LINE      ---      ---       #424
      010006E9H   LINE      ---      ---       #425
      010006F4H   LINE      ---      ---       #427
      010006F7H   LINE      ---      ---       #428
      01000702H   LINE      ---      ---       #430
      01000705H   LINE      ---      ---       #431
      01000710H   LINE      ---      ---       #433
      01000713H   LINE      ---      ---       #434
      0100071EH   LINE      ---      ---       #439
      01000730H   LINE      ---      ---       #444
      01000737H   LINE      ---      ---       #445
      0100073EH   LINE      ---      ---       #446
      01000745H   LINE      ---      ---       #447
      0100074CH   LINE      ---      ---       #448
      01000751H   LINE      ---      ---       #449
      01000757H   LINE      ---      ---       #450
      0100075EH   LINE      ---      ---       #451
      01000764H   LINE      ---      ---       #452
      0100076AH   LINE      ---      ---       #453
      01000772H   LINE      ---      ---       #454
      0100077AH   LINE      ---      ---       #455
      01000781H   LINE      ---      ---       #456
      0100078AH   LINE      ---      ---       #457
      0100078FH   LINE      ---      ---       #458
      01000795H   LINE      ---      ---       #459
      0100079CH   LINE      ---      ---       #464
      0100079FH   LINE      ---      ---       #469
      010007A4H   LINE      ---      ---       #470
      010007A9H   LINE      ---      ---       #471
      010007AEH   LINE      ---      ---       #477
      010007B0H   LINE      ---      ---       #479
      010007B3H   LINE      ---      ---       #480
      010007B6H   LINE      ---      ---       #482
      010007BDH   LINE      ---      ---       #483
      010007C0H   LINE      ---      ---       #484
      00000044H   SYMBOL    DATA     ---       temp_adr
      ---         BLOCKEND  CODE     ---       LVL=1
      ---         BLOCKEND  CODE     ---       LVL=0
      00000007H   SYMBOL    DATA     BYTE      param
      00000004H   SYMBOL    DATA     WORD      val
      00000007H   SYMBOL    DATA     BYTE      param
      00000001H   SYMBOL    DATA     ---       channels
      00000005H   SYMBOL    DATA     BYTE      channel_tab_size
      00000007H   SYMBOL    DATA     BYTE      pipe
      00000001H   SYMBOL    DATA     ---       address

      01000DC3H   BLOCK     CODE     ---       LVL=0
      01000DC3H   LINE      ---      ---       #618
      01000DC3H   LINE      ---      ---       #619
      01000DC3H   BLOCK     CODE     NEAR LAB  LVL=1
      01000DC3H   LINE      ---      ---       #622
      01000DC5H   LINE      ---      ---       #624
      01000DC8H   LINE      ---      ---       #625
      01000DC8H   LINE      ---      ---       #626
      01000DCAH   LINE      ---      ---       #628
      01000DCCH   LINE      ---      ---       #629
      01000DCEH   LINE      ---      ---       #634
      01000DD0H   LINE      ---      ---       #639
      01000DD4H   LINE      ---      ---       #640
      01000DD7H   LINE      ---      ---       #641
      01000DD7H   LINE      ---      ---       #642
LX51 LINKER/LOCATER V4.64.0.0                                                         09/23/2013  15:07:48  PAGE 31


      01000DF4H   LINE      ---      ---       #643
      01000DF4H   LINE      ---      ---       #644
      01000DFAH   LINE      ---      ---       #645
      01000DFAH   LINE      ---      ---       #646
      01000E03H   LINE      ---      ---       #647
      01000E07H   LINE      ---      ---       #648
      01000E07H   LINE      ---      ---       #650
      01000E0CH   LINE      ---      ---       #651
      01000E13H   LINE      ---      ---       #652
      01000E19H   LINE      ---      ---       #654
      01000E1FH   LINE      ---      ---       #655
      00000044H   SYMBOL    DATA     BYTE      i
      ---         BLOCKEND  CODE     ---       LVL=1
      ---         BLOCKEND  CODE     ---       LVL=0
      00000007H   SYMBOL    DATA     BYTE      dr_rx_pipe
      00000007H   SYMBOL    DATA     BYTE      available_rx_data_pipe

      01000F49H   BLOCK     CODE     ---       LVL=0
      01000F49H   LINE      ---      ---       #942
      01000F4FH   LINE      ---      ---       #943
      00000044H   SYMBOL    DATA     ---       dst
      00000047H   SYMBOL    DATA     ---       length
      0000004AH   SYMBOL    DATA     ---       pipe
      01000F4FH   BLOCK     CODE     NEAR LAB  LVL=1
      01000F4FH   LINE      ---      ---       #950
      01000F51H   LINE      ---      ---       #952
      01000F54H   LINE      ---      ---       #953
      01000F54H   LINE      ---      ---       #954
      01000F59H   LINE      ---      ---       #955
      01000F60H   LINE      ---      ---       #956
      01000F60H   LINE      ---      ---       #957
      01000F68H   LINE      ---      ---       #958
      01000F71H   LINE      ---      ---       #959
      01000F71H   LINE      ---      ---       #960
      01000F74H   LINE      ---      ---       #961
      01000F81H   LINE      ---      ---       #962
      01000F83H   LINE      ---      ---       #964
      01000F83H   LINE      ---      ---       #965
      01000F85H   LINE      ---      ---       #966
      01000F85H   LINE      ---      ---       #973
      01000F8BH   LINE      ---      ---       #974
      01000F8BH   LINE      ---      ---       #975
      01000F8DH   LINE      ---      ---       #976
      01000F8DH   LINE      ---      ---       #978
      01000F95H   LINE      ---      ---       #979
      01000F95H   LINE      ---      ---       #980
      01000FA0H   LINE      ---      ---       #981
      01000FA0H   LINE      ---      ---       #983
      01000FA8H   LINE      ---      ---       #984
      01000FA8H   LINE      ---      ---       #985
      01000FB3H   LINE      ---      ---       #986
      01000FB3H   LINE      ---      ---       #988
      01000FB6H   LINE      ---      ---       #989
      01000FB9H   LINE      ---      ---       #990
      01000FB9H   LINE      ---      ---       #992
      01000FB9H   LINE      ---      ---       #993
      01000FBBH   LINE      ---      ---       #994
      01000FBBH   LINE      ---      ---       #995
      01000FBBH   LINE      ---      ---       #997
      01000FBEH   LINE      ---      ---       #998
      01000FC0H   LINE      ---      ---       #999
      0000004DH   SYMBOL    DATA     BYTE      temp_pipe
      0000004EH   SYMBOL    DATA     BYTE      temp_length
      00000006H   SYMBOL    DATA     WORD      pipe_and_length
      ---         BLOCKEND  CODE     ---       LVL=1
LX51 LINKER/LOCATER V4.64.0.0                                                         09/23/2013  15:07:48  PAGE 32


      ---         BLOCKEND  CODE     ---       LVL=0

      01000F3AH   BLOCK     CODE     ---       LVL=0
      01000F3AH   LINE      ---      ---       #1006
      01000F3AH   LINE      ---      ---       #1007
      01000F3AH   LINE      ---      ---       #1008
      01000F3CH   LINE      ---      ---       #1010
      01000F3FH   LINE      ---      ---       #1011
      01000F44H   LINE      ---      ---       #1012
      01000F46H   LINE      ---      ---       #1014
      ---         BLOCKEND  ---      ---       LVL=0

      01000E3DH   BLOCK     CODE     ---       LVL=0
      01000E3DH   LINE      ---      ---       #1017
      01000E3DH   LINE      ---      ---       #1018
      01000E3DH   LINE      ---      ---       #1019
      01000E44H   LINE      ---      ---       #1020
      01000E44H   LINE      ---      ---       #1021
      01000E46H   LINE      ---      ---       #1023
      01000E4EH   LINE      ---      ---       #1027
      01000E4EH   LINE      ---      ---       #1028
      01000E55H   LINE      ---      ---       #1029
      01000E55H   LINE      ---      ---       #1030
      01000E57H   LINE      ---      ---       #1031
      01000E59H   LINE      ---      ---       #1032
      01000E5CH   LINE      ---      ---       #1033
      01000E5CH   LINE      ---      ---       #1034
      01000E5CH   LINE      ---      ---       #1035
      ---         BLOCKEND  ---      ---       LVL=0

      0100100AH   BLOCK     CODE     ---       LVL=0
      0100100AH   LINE      ---      ---       #1041
      0100100AH   LINE      ---      ---       #1042
      00000007H   SYMBOL    DATA     BYTE      seed
      00000005H   SYMBOL    DATA     BYTE      max_limit
      0100100AH   BLOCK     CODE     NEAR LAB  LVL=1
      0100100AH   LINE      ---      ---       #1046
      01001010H   LINE      ---      ---       #1047
      01001010H   LINE      ---      ---       #1048
      01001015H   LINE      ---      ---       #1049
      01001015H   LINE      ---      ---       #1051
      01001021H   LINE      ---      ---       #1052
      01001029H   LINE      ---      ---       #1053
      01001031H   LINE      ---      ---       #1054
      01001036H   LINE      ---      ---       #1056
      0100103BH   LINE      ---      ---       #1058
      01001040H   LINE      ---      ---       #1059
      02008000H   SYMBOL    XDATA    BYTE      pseudoreg
      00000006H   SYMBOL    DATA     BYTE      shiftbit
      ---         BLOCKEND  CODE     ---       LVL=1
      ---         BLOCKEND  CODE     ---       LVL=0

      01001041H   BLOCK     CODE     ---       LVL=0
      01001041H   LINE      ---      ---       #1061
      01001041H   LINE      ---      ---       #1062
      00000007H   SYMBOL    DATA     BYTE      n
      01001041H   BLOCK     CODE     NEAR LAB  LVL=1
      01001041H   LINE      ---      ---       #1065
      0100104AH   LINE      ---      ---       #1066
      0100104AH   LINE      ---      ---       #1067
      0100104EH   LINE      ---      ---       #1068
      0100105FH   LINE      ---      ---       #1071
      00000004H   SYMBOL    DATA     WORD      c
      ---         BLOCKEND  CODE     ---       LVL=1
      ---         BLOCKEND  CODE     ---       LVL=0
LX51 LINKER/LOCATER V4.64.0.0                                                         09/23/2013  15:07:48  PAGE 33



      01000BD2H   BLOCK     CODE     ---       LVL=0
      01000BD2H   LINE      ---      ---       #1073
      01000BD4H   LINE      ---      ---       #1074
      00000018H   SYMBOL    DATA     BYTE      channel_select
      01000BD4H   BLOCK     CODE     NEAR LAB  LVL=1
      01000BD4H   LINE      ---      ---       #1077
      01000BD6H   LINE      ---      ---       #1078
      01000BD8H   LINE      ---      ---       #1081
      01000BE5H   LINE      ---      ---       #1082
      01000BE5H   LINE      ---      ---       #1083
      01000BE5H   LINE      ---      ---       #1084
      01000BE5H   LINE      ---      ---       #1085
      01000BEBH   LINE      ---      ---       #1086
      01000BEDH   LINE      ---      ---       #1087
      01000BEDH   LINE      ---      ---       #1088
      01000BF9H   LINE      ---      ---       #1089
      01000BFBH   LINE      ---      ---       #1090
      01000BFBH   LINE      ---      ---       #1091
      01000C00H   LINE      ---      ---       #1092
      01000C02H   LINE      ---      ---       #1093
      01000C02H   LINE      ---      ---       #1094
      01000C09H   LINE      ---      ---       #1095
      01000C16H   LINE      ---      ---       #1096
      01000C16H   LINE      ---      ---       #1097
      01000C16H   LINE      ---      ---       #1100
      01000C1EH   LINE      ---      ---       #1101
      01000C1EH   LINE      ---      ---       #1102
      01000C21H   LINE      ---      ---       #1103
      01000C2FH   LINE      ---      ---       #1104
      01000C3DH   LINE      ---      ---       #1105
      01000C3DH   LINE      ---      ---       #1107
      01000C40H   LINE      ---      ---       #1108
      01000C40H   LINE      ---      ---       #1110
      01000C42H   LINE      ---      ---       #1111
      01000C43H   LINE      ---      ---       #1113
      01000C43H   LINE      ---      ---       #1114
      01000C45H   LINE      ---      ---       #1115
      01000C49H   LINE      ---      ---       #1116
      01000C49H   LINE      ---      ---       #1118
      00000019H   SYMBOL    DATA     BYTE      temp
      ---         BLOCKEND  CODE     ---       LVL=1
      ---         BLOCKEND  CODE     ---       LVL=0

      01000F15H   BLOCK     CODE     ---       LVL=0
      01000F15H   LINE      ---      ---       #1120
      01000F15H   LINE      ---      ---       #1121
      01000F15H   LINE      ---      ---       #1122
      01000F18H   LINE      ---      ---       #1123
      01000F18H   LINE      ---      ---       #1124
      01000F1BH   LINE      ---      ---       #1125
      01000F1DH   LINE      ---      ---       #1127
      01000F1DH   LINE      ---      ---       #1128
      01000F26H   LINE      ---      ---       #1129
      01000F26H   LINE      ---      ---       #1130
      ---         BLOCKEND  ---      ---       LVL=0

      01000C5EH   BLOCK     CODE     ---       LVL=0
      01000C5EH   LINE      ---      ---       #1132
      01000C5EH   LINE      ---      ---       #1133
      01000C5EH   LINE      ---      ---       #1134
      01000C67H   LINE      ---      ---       #1135
      01000C67H   LINE      ---      ---       #1136
      01000C6DH   LINE      ---      ---       #1137
      01000C6FH   LINE      ---      ---       #1139
LX51 LINKER/LOCATER V4.64.0.0                                                         09/23/2013  15:07:48  PAGE 34


      01000C6FH   LINE      ---      ---       #1140
      ---         BLOCKEND  ---      ---       LVL=0

      01000B6DH   BLOCK     CODE     ---       LVL=0
      01000B6DH   LINE      ---      ---       #1144
      01000B6DH   LINE      ---      ---       #1145
      01000B6DH   LINE      ---      ---       #1146
      01000B75H   LINE      ---      ---       #1148
      01000B7CH   LINE      ---      ---       #1149
      01000B7CH   LINE      ---      ---       #1151
      01000B81H   LINE      ---      ---       #1152
      01000B81H   LINE      ---      ---       #1154
      01000B8DH   LINE      ---      ---       #1155
      01000B8DH   LINE      ---      ---       #1156
      01000B8EH   LINE      ---      ---       #1157
      01000B90H   LINE      ---      ---       #1159
      01000B90H   LINE      ---      ---       #1160
      01000B95H   LINE      ---      ---       #1161
      01000B95H   LINE      ---      ---       #1163
      01000B97H   LINE      ---      ---       #1164
      01000B99H   LINE      ---      ---       #1165
      01000B9EH   LINE      ---      ---       #1166
      ---         BLOCKEND  ---      ---       LVL=0

      010009C8H   BLOCK     CODE     ---       LVL=0
      010009C8H   LINE      ---      ---       #1171
      010009C8H   LINE      ---      ---       #1172
      010009C8H   BLOCK     CODE     NEAR LAB  LVL=1
      010009C8H   LINE      ---      ---       #1180
      010009CCH   LINE      ---      ---       #1181
      010009D0H   LINE      ---      ---       #1183
      010009D4H   LINE      ---      ---       #1186
      010009D9H   LINE      ---      ---       #1187
      010009D9H   LINE      ---      ---       #1188
      010009DBH   LINE      ---      ---       #1189
      010009E2H   LINE      ---      ---       #1190
      010009E4H   LINE      ---      ---       #1197
      010009EBH   LINE      ---      ---       #1198
      010009EBH   LINE      ---      ---       #1199
      01000A00H   LINE      ---      ---       #1200
      01000A06H   LINE      ---      ---       #1201
      01000A06H   LINE      ---      ---       #1202
      01000A0CH   LINE      ---      ---       #1203
      01000A0CH   LINE      ---      ---       #1204
      01000A0CH   LINE      ---      ---       #1206
      01000A0CH   LINE      ---      ---       #1210
      01000A14H   LINE      ---      ---       #1211
      01000A14H   LINE      ---      ---       #1212
      01000A1AH   LINE      ---      ---       #1213
      01000A22H   LINE      ---      ---       #1214
      01000A30H   LINE      ---      ---       #1215
      01000A30H   LINE      ---      ---       #1219
      01000A37H   LINE      ---      ---       #1220
      01000A37H   LINE      ---      ---       #1222
      01000A41H   LINE      ---      ---       #1223
      01000A41H   LINE      ---      ---       #1224
      01000A43H   LINE      ---      ---       #1226
      01000A68H   LINE      ---      ---       #1227
      01000A6DH   LINE      ---      ---       #1228
      01000A6DH   LINE      ---      ---       #1229
      01000A75H   LINE      ---      ---       #1230
      01000A75H   LINE      ---      ---       #1232
      01000A77H   LINE      ---      ---       #1234
      01000A7AH   LINE      ---      ---       #1235
      01000A7CH   LINE      ---      ---       #1237
LX51 LINKER/LOCATER V4.64.0.0                                                         09/23/2013  15:07:48  PAGE 35


      01000A86H   LINE      ---      ---       #1239
      01000A95H   LINE      ---      ---       #1241
      01000AADH   LINE      ---      ---       #1242
      01000AADH   LINE      ---      ---       #1243
      01000AAFH   LINE      ---      ---       #1244
      01000AAFH   LINE      ---      ---       #1249
      01000AB4H   LINE      ---      ---       #1250
      01000AB4H   LINE      ---      ---       #1251
      01000AB6H   LINE      ---      ---       #1252
      01000AB8H   LINE      ---      ---       #1253
      01000ABAH   LINE      ---      ---       #1255
      01000ABAH   LINE      ---      ---       #1256
      01000ABCH   LINE      ---      ---       #1257
      01000AC3H   LINE      ---      ---       #1258
      01000AC9H   LINE      ---      ---       #1259
      01000AD6H   LINE      ---      ---       #1260
      01000AD6H   LINE      ---      ---       #1261
      01000AD6H   LINE      ---      ---       #1263
      01000AD6H   LINE      ---      ---       #1269
      01000ADDH   LINE      ---      ---       #1270
      01000ADDH   LINE      ---      ---       #1271
      01000AE5H   LINE      ---      ---       #1273
      01000AF3H   LINE      ---      ---       #1274
      01000AFDH   LINE      ---      ---       #1277
      01000B15H   LINE      ---      ---       #1279
      01000B15H   LINE      ---      ---       #1280
      01000B17H   LINE      ---      ---       #1281
      01000B19H   LINE      ---      ---       #1283
      01000B19H   LINE      ---      ---       #1285
      01000B1FH   LINE      ---      ---       #1286
      01000B1FH   LINE      ---      ---       #1288
      01000B34H   LINE      ---      ---       #1289
      01000B34H   LINE      ---      ---       #1290
      01000B3BH   LINE      ---      ---       #1291
      01000B3DH   LINE      ---      ---       #1292
      01000B3FH   LINE      ---      ---       #1293
      01000B41H   LINE      ---      ---       #1295
      01000B41H   LINE      ---      ---       #1296
      01000B44H   LINE      ---      ---       #1297
      01000B44H   LINE      ---      ---       #1299
      01000B50H   LINE      ---      ---       #1300
      01000B50H   LINE      ---      ---       #1301
      01000B52H   LINE      ---      ---       #1302
      01000B52H   LINE      ---      ---       #1303
      01000B54H   LINE      ---      ---       #1304
      01000B56H   LINE      ---      ---       #1306
      01000B56H   LINE      ---      ---       #1307
      01000B5AH   LINE      ---      ---       #1308
      01000B5AH   LINE      ---      ---       #1309
      01000B5AH   LINE      ---      ---       #1310
      01000B5CH   LINE      ---      ---       #1312
      01000B5CH   LINE      ---      ---       #1313
      01000B5EH   LINE      ---      ---       #1314
      01000B62H   LINE      ---      ---       #1315
      01000B62H   LINE      ---      ---       #1316
      01000B62H   LINE      ---      ---       #1317
      01000B62H   LINE      ---      ---       #1320
      01000B68H   LINE      ---      ---       #1321
      01000B6CH   LINE      ---      ---       #1322
      00000024H   SYMBOL    DATA     BYTE      tries
      00000006H   SYMBOL    DATA     WORD      timer_mod_period
      00000025H   SYMBOL    DATA     WORD      temp
      00000027H   SYMBOL    DATA     BYTE      status
      ---         BLOCKEND  CODE     ---       LVL=1
      ---         BLOCKEND  CODE     ---       LVL=0
LX51 LINKER/LOCATER V4.64.0.0                                                         09/23/2013  15:07:48  PAGE 36



      01000859H   BLOCK     CODE     ---       LVL=0
      01000859H   LINE      ---      ---       #1324
      01000859H   LINE      ---      ---       #1325
      01000859H   BLOCK     CODE     NEAR LAB  LVL=1
      01000859H   LINE      ---      ---       #1328
      0100085DH   LINE      ---      ---       #1329
      01000860H   LINE      ---      ---       #1333
      01000863H   LINE      ---      ---       #1334
      01000863H   LINE      ---      ---       #1335
      0100086DH   LINE      ---      ---       #1336
      0100086FH   LINE      ---      ---       #1337
      0100086FH   LINE      ---      ---       #1342
      01000879H   LINE      ---      ---       #1343
      01000879H   LINE      ---      ---       #1344
      01000880H   LINE      ---      ---       #1345
      01000884H   LINE      ---      ---       #1348
      01000890H   LINE      ---      ---       #1349
      01000890H   LINE      ---      ---       #1350
      01000898H   LINE      ---      ---       #1351
      010008A7H   LINE      ---      ---       #1352
      010008ADH   LINE      ---      ---       #1353
      010008B3H   LINE      ---      ---       #1354
      010008B3H   LINE      ---      ---       #1356
      010008B9H   LINE      ---      ---       #1359
      010008BFH   LINE      ---      ---       #1360
      010008BFH   LINE      ---      ---       #1361
      010008C4H   LINE      ---      ---       #1362
      010008C6H   LINE      ---      ---       #1363
      010008CCH   LINE      ---      ---       #1364
      010008CEH   LINE      ---      ---       #1366
      010008CEH   LINE      ---      ---       #1367
      010008D6H   LINE      ---      ---       #1368
      010008D8H   LINE      ---      ---       #1369
      010008DDH   LINE      ---      ---       #1370
      010008DDH   LINE      ---      ---       #1372
      010008EBH   LINE      ---      ---       #1374
      010008F6H   LINE      ---      ---       #1375
      0100090CH   LINE      ---      ---       #1376
      0100090CH   LINE      ---      ---       #1377
      0100090EH   LINE      ---      ---       #1378
      0100090EH   LINE      ---      ---       #1379
      01000910H   LINE      ---      ---       #1382
      01000910H   LINE      ---      ---       #1385
      01000918H   LINE      ---      ---       #1386
      01000918H   LINE      ---      ---       #1388
      0100091BH   LINE      ---      ---       #1389
      0100091BH   LINE      ---      ---       #1390
      01000922H   LINE      ---      ---       #1392
      01000934H   LINE      ---      ---       #1395
      01000934H   LINE      ---      ---       #1396
      01000938H   LINE      ---      ---       #1397
      0100093AH   LINE      ---      ---       #1398
      0100093CH   LINE      ---      ---       #1399
      0100093CH   LINE      ---      ---       #1400
      0100093CH   LINE      ---      ---       #1401
      0100093CH   LINE      ---      ---       #1403
      0100093CH   LINE      ---      ---       #1406
      0100094BH   LINE      ---      ---       #1407
      0100094BH   LINE      ---      ---       #1408
      01000957H   LINE      ---      ---       #1409
      01000959H   LINE      ---      ---       #1411
      01000959H   LINE      ---      ---       #1412
      0100095BH   LINE      ---      ---       #1413
      0100095BH   LINE      ---      ---       #1416
LX51 LINKER/LOCATER V4.64.0.0                                                         09/23/2013  15:07:48  PAGE 37


      01000961H   LINE      ---      ---       #1417
      01000965H   LINE      ---      ---       #1418
      00000022H   SYMBOL    DATA     WORD      temp
      ---         BLOCKEND  CODE     ---       LVL=1
      ---         BLOCKEND  CODE     ---       LVL=0

      01001060H   BLOCK     CODE     ---       LVL=0
      01001060H   LINE      ---      ---       #1429
      01001060H   LINE      ---      ---       #1430
      01001060H   LINE      ---      ---       #1431
      0100106FH   LINE      ---      ---       #1432
      0100106FH   LINE      ---      ---       #1433
      0100107BH   LINE      ---      ---       #1434
      0100107BH   LINE      ---      ---       #1437
      0100109CH   LINE      ---      ---       #1439
      010010B0H   LINE      ---      ---       #1441
      010010B0H   LINE      ---      ---       #1442
      010010C5H   LINE      ---      ---       #1443
      010010C5H   LINE      ---      ---       #1444
      ---         BLOCKEND  ---      ---       LVL=0

      010010C6H   BLOCK     CODE     ---       LVL=0
      010010C6H   LINE      ---      ---       #1446
      010010C6H   LINE      ---      ---       #1447
      010010C6H   LINE      ---      ---       #1448
      010010CEH   LINE      ---      ---       #1449
      010010D5H   LINE      ---      ---       #1450
      ---         BLOCKEND  ---      ---       LVL=0

      010010D6H   BLOCK     CODE     ---       LVL=0
      010010D6H   LINE      ---      ---       #1452
      010010D6H   LINE      ---      ---       #1453
      010010D6H   LINE      ---      ---       #1454
      010010E5H   LINE      ---      ---       #1455
      010010E5H   LINE      ---      ---       #1456
      010010EBH   LINE      ---      ---       #1457
      010010EBH   LINE      ---      ---       #1459
      010010EBH   LINE      ---      ---       #1460
      010010FCH   LINE      ---      ---       #1461
      010010FCH   LINE      ---      ---       #1462
      ---         BLOCKEND  ---      ---       LVL=0

      01000BB7H   BLOCK     CODE     ---       LVL=0
      01000BB7H   LINE      ---      ---       #1464
      01000BB7H   LINE      ---      ---       #1465
      01000BB7H   LINE      ---      ---       #1466
      01000BC6H   LINE      ---      ---       #1467
      01000BC6H   LINE      ---      ---       #1468
      01000BCCH   LINE      ---      ---       #1469
      01000BCCH   LINE      ---      ---       #1471
      01000BCCH   LINE      ---      ---       #1472
      01000BD1H   LINE      ---      ---       #1473
      01000BD1H   LINE      ---      ---       #1474
      ---         BLOCKEND  ---      ---       LVL=0

      01000B9FH   BLOCK     CODE     ---       LVL=0
      01000B9FH   LINE      ---      ---       #1476
      01000B9FH   LINE      ---      ---       #1477
      01000B9FH   LINE      ---      ---       #1478
      01000BAEH   LINE      ---      ---       #1479
      01000BB6H   LINE      ---      ---       #1480
      ---         BLOCKEND  ---      ---       LVL=0

      010010FDH   BLOCK     CODE     ---       LVL=0
      010010FDH   LINE      ---      ---       #1482
LX51 LINKER/LOCATER V4.64.0.0                                                         09/23/2013  15:07:48  PAGE 38


      010010FDH   LINE      ---      ---       #1483
      010010FDH   LINE      ---      ---       #1484
      01001116H   LINE      ---      ---       #1485
      01001116H   LINE      ---      ---       #1486
      0100111AH   LINE      ---      ---       #1487
      0100111AH   LINE      ---      ---       #1490
      0100111AH   LINE      ---      ---       #1491
      01001125H   LINE      ---      ---       #1492
      01001125H   LINE      ---      ---       #1493
      01001128H   LINE      ---      ---       #1494
      01001128H   LINE      ---      ---       #1496
      01001128H   LINE      ---      ---       #1497
      01001135H   LINE      ---      ---       #1498
      01001135H   LINE      ---      ---       #1499
      01001135H   LINE      ---      ---       #1500
      ---         BLOCKEND  ---      ---       LVL=0

      01000E5DH   BLOCK     CODE     ---       LVL=0
      01000E5DH   LINE      ---      ---       #1502
      01000E5DH   LINE      ---      ---       #1503
      01000E5DH   BLOCK     CODE     NEAR LAB  LVL=1
      01000E5DH   LINE      ---      ---       #1507
      01000E76H   LINE      ---      ---       #1508
      01000E76H   LINE      ---      ---       #1509
      01000E7AH   LINE      ---      ---       #1510
      01000E7AH   LINE      ---      ---       #1512
      01000E7AH   LINE      ---      ---       #1513
      01000E84H   LINE      ---      ---       #1514
      01000E84H   LINE      ---      ---       #1515
      01000E87H   LINE      ---      ---       #1516
      01000E87H   LINE      ---      ---       #1518
      01000E87H   LINE      ---      ---       #1519
      01000E96H   LINE      ---      ---       #1520
      01000EA5H   LINE      ---      ---       #1522
      01000EC0H   LINE      ---      ---       #1523
      01000EC0H   LINE      ---      ---       #1524
      01000ED6H   LINE      ---      ---       #1525
      01000ED6H   LINE      ---      ---       #1527
      01000ED6H   LINE      ---      ---       #1528
      01000EEBH   LINE      ---      ---       #1529
      01000EEBH   LINE      ---      ---       #1530
      01000EEBH   LINE      ---      ---       #1531
      01000EEBH   LINE      ---      ---       #1532
      00000006H   SYMBOL    DATA     WORD      total_tx_time_per_channel
      00000002H   SYMBOL    DATA     WORD      rx_periods_per_channel
      ---         BLOCKEND  CODE     ---       LVL=1
      ---         BLOCKEND  CODE     ---       LVL=0

      010007C2H   BLOCK     CODE     ---       LVL=0
      010007C2H   LINE      ---      ---       #1534
      010007C2H   LINE      ---      ---       #1535
      00000007H   SYMBOL    DATA     BYTE      on
      010007C2H   BLOCK     CODE     NEAR LAB  LVL=1
      010007C2H   LINE      ---      ---       #1538
      010007C5H   LINE      ---      ---       #1539
      010007C5H   LINE      ---      ---       #1540
      010007C8H   LINE      ---      ---       #1541
      010007C8H   LINE      ---      ---       #1542
      010007CCH   LINE      ---      ---       #1543
      010007CEH   LINE      ---      ---       #1544
      010007D4H   LINE      ---      ---       #1545
      010007D6H   LINE      ---      ---       #1546
      010007D6H   LINE      ---      ---       #1547
      010007D7H   LINE      ---      ---       #1549
      010007D7H   LINE      ---      ---       #1550
LX51 LINKER/LOCATER V4.64.0.0                                                         09/23/2013  15:07:48  PAGE 39


      010007DBH   LINE      ---      ---       #1551
      010007DDH   LINE      ---      ---       #1552
      010007DDH   LINE      ---      ---       #1553
      00000007H   SYMBOL    DATA     BYTE      n
      ---         BLOCKEND  CODE     ---       LVL=1
      ---         BLOCKEND  CODE     ---       LVL=0

      ---         MODULE    ---      ---       HAL_NRF_HW
      01001136H   PUBLIC    CODE     ---       _hal_nrf_rw
      00000098H.3 SFRSYM    DATA     BIT       TB80
      000000C8H   SFRSYM    DATA     BIT       T2I0
      000000C3H   SFRSYM    DATA     BYTE      CCH1
      000000ABH   SFRSYM    DATA     BYTE      REGXH
      00000080H   SFRSYM    DATA     BYTE      P0
      000000C8H.1 SFRSYM    DATA     BIT       T2I1
      000000C5H   SFRSYM    DATA     BYTE      CCH2
      000000C7H   SFRSYM    DATA     BYTE      CCH3
      00000098H.5 SFRSYM    DATA     BIT       SM20
      000000D0H.6 SFRSYM    DATA     BIT       AC
      000000C2H   SFRSYM    DATA     BYTE      CCL1
      000000ACH   SFRSYM    DATA     BYTE      REGXL
      000000C4H   SFRSYM    DATA     BYTE      CCL2
      000000B3H   SFRSYM    DATA     BYTE      SMCTL
      000000D8H.7 SFRSYM    DATA     BIT       BD
      000000B8H   SFRSYM    DATA     BIT       RFSPI
      000000A8H.7 SFRSYM    DATA     BIT       EA
      000000CCH   SFRSYM    DATA     WORD      T2
      000000C6H   SFRSYM    DATA     BYTE      CCL3
      000000C8H.3 SFRSYM    DATA     BIT       T2R0
      000000C8H.4 SFRSYM    DATA     BIT       T2R1
      000000A8H   SFRSYM    DATA     BYTE      IEN0
      000000B8H   SFRSYM    DATA     BYTE      IEN1
      00000085H   SFRSYM    DATA     BYTE      DPH1
      0000009AH   SFRSYM    DATA     BYTE      IEN2
      00000084H   SFRSYM    DATA     BYTE      DPL1
      000000C8H.5 SFRSYM    DATA     BIT       I2FR
      000000C8H.6 SFRSYM    DATA     BIT       I3FR
      000000E8H   SFRSYM    DATA     BIT       GO
      000000C0H.7 SFRSYM    DATA     BIT       EXF2
      00000098H.4 SFRSYM    DATA     BIT       REN0
      000000F5H   SFRSYM    DATA     BYTE      AESIA1
      000000C8H.2 SFRSYM    DATA     BIT       T2CM
      000000F6H   SFRSYM    DATA     BYTE      AESIA2
      000000B8H.1 SFRSYM    DATA     BIT       RF
      000000B8H.3 SFRSYM    DATA     BIT       USBWU
      000000B8H.5 SFRSYM    DATA     BIT       WUIRQ
      000000C1H   SFRSYM    DATA     BYTE      CCEN
      000000D0H.7 SFRSYM    DATA     BIT       CY
      000000F3H   SFRSYM    DATA     BYTE      AESD
      000000E8H.1 SFRSYM    DATA     BIT       DECR
      00000090H   SFRSYM    DATA     BIT       RFCE
      000000CBH   SFRSYM    DATA     BYTE      CRCH
      00000081H   SFRSYM    DATA     BYTE      SP
      000000A0H.5 SFRSYM    DATA     BIT       SUSPEND
      000000A0H.7 SFRSYM    DATA     BIT       SWRST
      000000D0H.2 SFRSYM    DATA     BIT       OV
      000000CAH   SFRSYM    DATA     BYTE      CRCL
      000000C8H.7 SFRSYM    DATA     BIT       T2PS
      000000A0H.6 SFRSYM    DATA     BIT       WU
      000000F9H   SFRSYM    DATA     BYTE      FPCR
      00000080H   SFRSYM    DATA     BIT       P00
      000000BAH   SFRSYM    DATA     BYTE      S0RELH
      00000080H.1 SFRSYM    DATA     BIT       P01
      000000C0H.4 SFRSYM    DATA     BIT       USBF
      00000087H   SFRSYM    DATA     BYTE      PCON
LX51 LINKER/LOCATER V4.64.0.0                                                         09/23/2013  15:07:48  PAGE 40


      00000080H.3 SFRSYM    DATA     BIT       MCSN
      00000080H.2 SFRSYM    DATA     BIT       P02
      00000080H.3 SFRSYM    DATA     BIT       P03
      000000C0H.2 SFRSYM    DATA     BIT       SPIF
      000000F8H.2 SFRSYM    DATA     BIT       RDIS
      00000080H.4 SFRSYM    DATA     BIT       P04
      000000AAH   SFRSYM    DATA     BYTE      S0RELL
      00000080H.5 SFRSYM    DATA     BIT       P05
      00000089H   SFRSYM    DATA     BYTE      TMOD
      00000088H   SFRSYM    DATA     BYTE      TCON
      000000C2H   SFRSYM    DATA     WORD      CC1
      00000080H.3 SFRSYM    DATA     BIT       SCSN
      000000C4H   SFRSYM    DATA     WORD      CC2
      000000C6H   SFRSYM    DATA     WORD      CC3
      00000090H.2 SFRSYM    DATA     BIT       RFCKEN
      000000F8H   SFRSYM    DATA     BIT       WPEN
      000000F1H   SFRSYM    DATA     BYTE      AESKIN
      00000088H.1 SFRSYM    DATA     BIT       IE0
      000000F8H.4 SFRSYM    DATA     BIT       RDYN
      00000088H.3 SFRSYM    DATA     BIT       IE1
      000000A3H   SFRSYM    DATA     BYTE      CLKCTL
      000000F0H   SFRSYM    DATA     BYTE      B
      000000E9H   SFRSYM    DATA     BYTE      MD0
      000000EAH   SFRSYM    DATA     BYTE      MD1
      000000BDH   SFRSYM    DATA     BYTE      SSDATA
      000000EBH   SFRSYM    DATA     BYTE      MD2
      000000ECH   SFRSYM    DATA     BYTE      MD3
      000000EDH   SFRSYM    DATA     BYTE      MD4
      000000EEH   SFRSYM    DATA     BYTE      MD5
      000000E0H   SFRSYM    DATA     BYTE      ACC
      000000B5H   SFRSYM    DATA     BYTE      TICKDV
      000000A8H.4 SFRSYM    DATA     BIT       ES0
      000000A8H.1 SFRSYM    DATA     BIT       ET0
      000000A9H   SFRSYM    DATA     BYTE      IP0
      000000A8H.3 SFRSYM    DATA     BIT       ET1
      00000088H.5 SFRSYM    DATA     BIT       TF0
      000000B9H   SFRSYM    DATA     BYTE      IP1
      000000A8H.5 SFRSYM    DATA     BIT       ET2
      00000098H   SFRSYM    DATA     BIT       RI0
      00000088H.7 SFRSYM    DATA     BIT       TF1
      000000C0H   SFRSYM    DATA     BIT       RFSPIF
      000000C0H.6 SFRSYM    DATA     BIT       TF2
      000000A0H   SFRSYM    DATA     BYTE      USBCON
      0000008CH   SFRSYM    DATA     BYTE      TH0
      000000A8H   SFRSYM    DATA     BIT       EX0
      00000098H.1 SFRSYM    DATA     BIT       TI0
      00000088H   SFRSYM    DATA     BIT       IT0
      0000008DH   SFRSYM    DATA     BYTE      TH1
      000000A8H.2 SFRSYM    DATA     BIT       EX1
      00000088H.2 SFRSYM    DATA     BIT       IT1
      000000CDH   SFRSYM    DATA     BYTE      TH2
      000000BCH   SFRSYM    DATA     BYTE      SSCONF
      000000A0H   SFRSYM    DATA     BIT       IV0
      000000D0H   SFRSYM    DATA     BIT       P
      000000A0H.1 SFRSYM    DATA     BIT       IV1
      00000098H.7 SFRSYM    DATA     BIT       SM0
      0000008AH   SFRSYM    DATA     BYTE      TL0
      000000A0H.2 SFRSYM    DATA     BIT       IV2
      00000098H.6 SFRSYM    DATA     BIT       SM1
      0000008BH   SFRSYM    DATA     BYTE      TL1
      000000A0H.3 SFRSYM    DATA     BIT       IV3
      000000CCH   SFRSYM    DATA     BYTE      TL2
      000000A0H.4 SFRSYM    DATA     BIT       IV4
      000000A5H   SFRSYM    DATA     BYTE      WUCONF
      000000D0H.3 SFRSYM    DATA     BIT       RS0
LX51 LINKER/LOCATER V4.64.0.0                                                         09/23/2013  15:07:48  PAGE 41


      00000088H.4 SFRSYM    DATA     BIT       TR0
      000000D0H.4 SFRSYM    DATA     BIT       RS1
      00000088H.6 SFRSYM    DATA     BIT       TR1
      000000CAH   SFRSYM    DATA     WORD      CRC
      000000A6H   SFRSYM    DATA     BYTE      INTEXP
      000000FAH   SFRSYM    DATA     BYTE      FCR
      000000D9H   SFRSYM    DATA     BYTE      USBSLP
      00000083H   SFRSYM    DATA     BYTE      DPH
      000000C0H.1 SFRSYM    DATA     BIT       RFF
      000000C0H.3 SFRSYM    DATA     BIT       USBWUF
      00000094H   SFRSYM    DATA     BYTE      P0DIR
      00000082H   SFRSYM    DATA     BYTE      DPL
      00000099H   SFRSYM    DATA     BYTE      S0BUF
      00000095H   SFRSYM    DATA     BYTE      P0ALT
      000000B8H.7 SFRSYM    DATA     BIT       EXEN2
      000000BEH   SFRSYM    DATA     BYTE      SSSTAT
      000000A4H   SFRSYM    DATA     BYTE      PWRDWN
      00000098H   SFRSYM    DATA     BYTE      S0CON
      000000B1H   SFRSYM    DATA     BYTE      RSTRES
      000000C8H   SFRSYM    DATA     BYTE      T2CON
      00000092H   SFRSYM    DATA     BYTE      DPS
      000000B8H.4 SFRSYM    DATA     BIT       USB
      000000F8H.5 SFRSYM    DATA     BIT       WEN
      000000F8H   SFRSYM    DATA     BYTE      FSR
      000000B8H.2 SFRSYM    DATA     BIT       SPI
      000000F8H.1 SFRSYM    DATA     BIT       RDEND
      000000C9H   SFRSYM    DATA     BYTE      P0EXP
      0000008EH   SFRSYM    DATA     BYTE      CKCON
      000000E8H   SFRSYM    DATA     BYTE      AESCS
      000000F8H.3 SFRSYM    DATA     BIT       INFEN
      000000F8H.7 SFRSYM    DATA     BIT       MCDIS
      000000C0H.5 SFRSYM    DATA     BIT       WUF
      000000E5H   SFRSYM    DATA     BYTE      RFDAT
      000000EFH   SFRSYM    DATA     BYTE      ARCON
      000000D0H.5 SFRSYM    DATA     BIT       F0
      000000D0H.1 SFRSYM    DATA     BIT       F1
      000000F8H.6 SFRSYM    DATA     BIT       STP
      000000F2H   SFRSYM    DATA     BYTE      AESIV
      00000090H   SFRSYM    DATA     BYTE      RFCON
      000000D0H   SFRSYM    DATA     BYTE      PSW
      000000B2H   SFRSYM    DATA     BYTE      SMDAT
      000000ADH   SFRSYM    DATA     BYTE      REGXC
      00000098H.2 SFRSYM    DATA     BIT       RB80
      000000E6H   SFRSYM    DATA     BYTE      RFCTL
      000000D8H   SFRSYM    DATA     BYTE      WDCON
      000000C0H   SFRSYM    DATA     BYTE      IRCON
      00000090H.1 SFRSYM    DATA     BIT       RFCSN

      01001136H   BLOCK     CODE     ---       LVL=0
      01001136H   LINE      ---      ---       #25
      01001136H   LINE      ---      ---       #26
      01001136H   LINE      ---      ---       #27
      01001138H   LINE      ---      ---       #28
      0100113AH   LINE      ---      ---       #30
      0100113DH   LINE      ---      ---       #31
      0100113FH   LINE      ---      ---       #32
      00000007H   SYMBOL    DATA     BYTE      value
      ---         BLOCKEND  ---      ---       LVL=0

      ---         MODULE    ---      ---       HAL_AES
      00000098H.3 SFRSYM    DATA     BIT       TB80
      000000C8H   SFRSYM    DATA     BIT       T2I0
      000000C3H   SFRSYM    DATA     BYTE      CCH1
      000000ABH   SFRSYM    DATA     BYTE      REGXH
      00000080H   SFRSYM    DATA     BYTE      P0
LX51 LINKER/LOCATER V4.64.0.0                                                         09/23/2013  15:07:48  PAGE 42


      000000C8H.1 SFRSYM    DATA     BIT       T2I1
      000000C5H   SFRSYM    DATA     BYTE      CCH2
      000000C7H   SFRSYM    DATA     BYTE      CCH3
      00000098H.5 SFRSYM    DATA     BIT       SM20
      000000D0H.6 SFRSYM    DATA     BIT       AC
      000000C2H   SFRSYM    DATA     BYTE      CCL1
      000000ACH   SFRSYM    DATA     BYTE      REGXL
      000000C4H   SFRSYM    DATA     BYTE      CCL2
      000000B3H   SFRSYM    DATA     BYTE      SMCTL
      000000D8H.7 SFRSYM    DATA     BIT       BD
      000000B8H   SFRSYM    DATA     BIT       RFSPI
      000000A8H.7 SFRSYM    DATA     BIT       EA
      000000CCH   SFRSYM    DATA     WORD      T2
      000000C6H   SFRSYM    DATA     BYTE      CCL3
      000000C8H.3 SFRSYM    DATA     BIT       T2R0
      000000C8H.4 SFRSYM    DATA     BIT       T2R1
      000000A8H   SFRSYM    DATA     BYTE      IEN0
      000000B8H   SFRSYM    DATA     BYTE      IEN1
      00000085H   SFRSYM    DATA     BYTE      DPH1
      0000009AH   SFRSYM    DATA     BYTE      IEN2
      00000084H   SFRSYM    DATA     BYTE      DPL1
      000000C8H.5 SFRSYM    DATA     BIT       I2FR
      000000C8H.6 SFRSYM    DATA     BIT       I3FR
      000000E8H   SFRSYM    DATA     BIT       GO
      000000C0H.7 SFRSYM    DATA     BIT       EXF2
      00000098H.4 SFRSYM    DATA     BIT       REN0
      000000F5H   SFRSYM    DATA     BYTE      AESIA1
      000000C8H.2 SFRSYM    DATA     BIT       T2CM
      000000F6H   SFRSYM    DATA     BYTE      AESIA2
      000000B8H.1 SFRSYM    DATA     BIT       RF
      000000B8H.3 SFRSYM    DATA     BIT       USBWU
      000000B8H.5 SFRSYM    DATA     BIT       WUIRQ
      000000C1H   SFRSYM    DATA     BYTE      CCEN
      000000D0H.7 SFRSYM    DATA     BIT       CY
      000000F3H   SFRSYM    DATA     BYTE      AESD
      000000E8H.1 SFRSYM    DATA     BIT       DECR
      00000090H   SFRSYM    DATA     BIT       RFCE
      000000CBH   SFRSYM    DATA     BYTE      CRCH
      00000081H   SFRSYM    DATA     BYTE      SP
      000000A0H.5 SFRSYM    DATA     BIT       SUSPEND
      000000A0H.7 SFRSYM    DATA     BIT       SWRST
      000000D0H.2 SFRSYM    DATA     BIT       OV
      000000CAH   SFRSYM    DATA     BYTE      CRCL
      000000C8H.7 SFRSYM    DATA     BIT       T2PS
      000000A0H.6 SFRSYM    DATA     BIT       WU
      000000F9H   SFRSYM    DATA     BYTE      FPCR
      00000080H   SFRSYM    DATA     BIT       P00
      000000BAH   SFRSYM    DATA     BYTE      S0RELH
      00000080H.1 SFRSYM    DATA     BIT       P01
      000000C0H.4 SFRSYM    DATA     BIT       USBF
      00000087H   SFRSYM    DATA     BYTE      PCON
      00000080H.3 SFRSYM    DATA     BIT       MCSN
      00000080H.2 SFRSYM    DATA     BIT       P02
      00000080H.3 SFRSYM    DATA     BIT       P03
      000000C0H.2 SFRSYM    DATA     BIT       SPIF
      000000F8H.2 SFRSYM    DATA     BIT       RDIS
      00000080H.4 SFRSYM    DATA     BIT       P04
      000000AAH   SFRSYM    DATA     BYTE      S0RELL
      00000080H.5 SFRSYM    DATA     BIT       P05
      00000089H   SFRSYM    DATA     BYTE      TMOD
      00000088H   SFRSYM    DATA     BYTE      TCON
      000000C2H   SFRSYM    DATA     WORD      CC1
      00000080H.3 SFRSYM    DATA     BIT       SCSN
      000000C4H   SFRSYM    DATA     WORD      CC2
      000000C6H   SFRSYM    DATA     WORD      CC3
LX51 LINKER/LOCATER V4.64.0.0                                                         09/23/2013  15:07:48  PAGE 43


      00000090H.2 SFRSYM    DATA     BIT       RFCKEN
      000000F8H   SFRSYM    DATA     BIT       WPEN
      000000F1H   SFRSYM    DATA     BYTE      AESKIN
      00000088H.1 SFRSYM    DATA     BIT       IE0
      000000F8H.4 SFRSYM    DATA     BIT       RDYN
      00000088H.3 SFRSYM    DATA     BIT       IE1
      000000A3H   SFRSYM    DATA     BYTE      CLKCTL
      000000F0H   SFRSYM    DATA     BYTE      B
      000000E9H   SFRSYM    DATA     BYTE      MD0
      000000EAH   SFRSYM    DATA     BYTE      MD1
      000000BDH   SFRSYM    DATA     BYTE      SSDATA
      000000EBH   SFRSYM    DATA     BYTE      MD2
      000000ECH   SFRSYM    DATA     BYTE      MD3
      000000EDH   SFRSYM    DATA     BYTE      MD4
      000000EEH   SFRSYM    DATA     BYTE      MD5
      000000E0H   SFRSYM    DATA     BYTE      ACC
      000000B5H   SFRSYM    DATA     BYTE      TICKDV
      000000A8H.4 SFRSYM    DATA     BIT       ES0
      000000A8H.1 SFRSYM    DATA     BIT       ET0
      000000A9H   SFRSYM    DATA     BYTE      IP0
      000000A8H.3 SFRSYM    DATA     BIT       ET1
      00000088H.5 SFRSYM    DATA     BIT       TF0
      000000B9H   SFRSYM    DATA     BYTE      IP1
      000000A8H.5 SFRSYM    DATA     BIT       ET2
      00000098H   SFRSYM    DATA     BIT       RI0
      00000088H.7 SFRSYM    DATA     BIT       TF1
      000000C0H   SFRSYM    DATA     BIT       RFSPIF
      000000C0H.6 SFRSYM    DATA     BIT       TF2
      000000A0H   SFRSYM    DATA     BYTE      USBCON
      0000008CH   SFRSYM    DATA     BYTE      TH0
      000000A8H   SFRSYM    DATA     BIT       EX0
      00000098H.1 SFRSYM    DATA     BIT       TI0
      00000088H   SFRSYM    DATA     BIT       IT0
      0000008DH   SFRSYM    DATA     BYTE      TH1
      000000A8H.2 SFRSYM    DATA     BIT       EX1
      00000088H.2 SFRSYM    DATA     BIT       IT1
      000000CDH   SFRSYM    DATA     BYTE      TH2
      000000BCH   SFRSYM    DATA     BYTE      SSCONF
      000000A0H   SFRSYM    DATA     BIT       IV0
      000000D0H   SFRSYM    DATA     BIT       P
      000000A0H.1 SFRSYM    DATA     BIT       IV1
      00000098H.7 SFRSYM    DATA     BIT       SM0
      0000008AH   SFRSYM    DATA     BYTE      TL0
      000000A0H.2 SFRSYM    DATA     BIT       IV2
      00000098H.6 SFRSYM    DATA     BIT       SM1
      0000008BH   SFRSYM    DATA     BYTE      TL1
      000000A0H.3 SFRSYM    DATA     BIT       IV3
      000000CCH   SFRSYM    DATA     BYTE      TL2
      000000A0H.4 SFRSYM    DATA     BIT       IV4
      000000A5H   SFRSYM    DATA     BYTE      WUCONF
      000000D0H.3 SFRSYM    DATA     BIT       RS0
      00000088H.4 SFRSYM    DATA     BIT       TR0
      000000D0H.4 SFRSYM    DATA     BIT       RS1
      00000088H.6 SFRSYM    DATA     BIT       TR1
      000000CAH   SFRSYM    DATA     WORD      CRC
      000000A6H   SFRSYM    DATA     BYTE      INTEXP
      000000FAH   SFRSYM    DATA     BYTE      FCR
      000000D9H   SFRSYM    DATA     BYTE      USBSLP
      00000083H   SFRSYM    DATA     BYTE      DPH
      000000C0H.1 SFRSYM    DATA     BIT       RFF
      000000C0H.3 SFRSYM    DATA     BIT       USBWUF
      00000094H   SFRSYM    DATA     BYTE      P0DIR
      00000082H   SFRSYM    DATA     BYTE      DPL
      00000099H   SFRSYM    DATA     BYTE      S0BUF
      00000095H   SFRSYM    DATA     BYTE      P0ALT
LX51 LINKER/LOCATER V4.64.0.0                                                         09/23/2013  15:07:48  PAGE 44


      000000B8H.7 SFRSYM    DATA     BIT       EXEN2
      000000BEH   SFRSYM    DATA     BYTE      SSSTAT
      000000A4H   SFRSYM    DATA     BYTE      PWRDWN
      00000098H   SFRSYM    DATA     BYTE      S0CON
      000000B1H   SFRSYM    DATA     BYTE      RSTRES
      000000C8H   SFRSYM    DATA     BYTE      T2CON
      00000092H   SFRSYM    DATA     BYTE      DPS
      000000B8H.4 SFRSYM    DATA     BIT       USB
      000000F8H.5 SFRSYM    DATA     BIT       WEN
      000000F8H   SFRSYM    DATA     BYTE      FSR
      000000B8H.2 SFRSYM    DATA     BIT       SPI
      000000F8H.1 SFRSYM    DATA     BIT       RDEND
      000000C9H   SFRSYM    DATA     BYTE      P0EXP
      0000008EH   SFRSYM    DATA     BYTE      CKCON
      000000E8H   SFRSYM    DATA     BYTE      AESCS
      000000F8H.3 SFRSYM    DATA     BIT       INFEN
      000000F8H.7 SFRSYM    DATA     BIT       MCDIS
      000000C0H.5 SFRSYM    DATA     BIT       WUF
      000000E5H   SFRSYM    DATA     BYTE      RFDAT
      000000EFH   SFRSYM    DATA     BYTE      ARCON
      000000D0H.5 SFRSYM    DATA     BIT       F0
      000000D0H.1 SFRSYM    DATA     BIT       F1
      000000F8H.6 SFRSYM    DATA     BIT       STP
      000000F2H   SFRSYM    DATA     BYTE      AESIV
      00000090H   SFRSYM    DATA     BYTE      RFCON
      000000D0H   SFRSYM    DATA     BYTE      PSW
      000000B2H   SFRSYM    DATA     BYTE      SMDAT
      000000ADH   SFRSYM    DATA     BYTE      REGXC
      00000098H.2 SFRSYM    DATA     BIT       RB80
      000000E6H   SFRSYM    DATA     BYTE      RFCTL
      000000D8H   SFRSYM    DATA     BYTE      WDCON
      000000C0H   SFRSYM    DATA     BYTE      IRCON
      00000090H.1 SFRSYM    DATA     BIT       RFCSN
      00000007H   SYMBOL    DATA     BYTE      index
      00000006H   SYMBOL    DATA     BYTE      loop
      00000007H   SYMBOL    DATA     BYTE      mode
      00000007H   SYMBOL    DATA     BYTE      operation
      00000005H   SYMBOL    DATA     BYTE      indirect_start_address
      00000007H   SYMBOL    DATA     CHAR      index
      00000005H   SYMBOL    DATA     BYTE      indirect_start_address
      00000007H   SYMBOL    DATA     CHAR      index
      00000005H   SYMBOL    DATA     BYTE      indirect_start_address
      00000007H   SYMBOL    DATA     CHAR      index
      00000005H   SYMBOL    DATA     BYTE      indirect_start_address
      00000007H   SYMBOL    DATA     CHAR      index

      ---         MODULE    ---      ---       HAL_NRF
      0000004DH   PUBLIC    DATA     BYTE      ?_hal_nrf_write_multibyte_reg?BYTE
      0100137CH   PUBLIC    CODE     ---       _hal_nrf_write_multibyte_reg
      01001140H   PUBLIC    CODE     ---       _hal_nrf_read_multibyte_reg
      01000CA0H   PUBLIC    CODE     ---       _hal_nrf_write_reg
      01000D55H   PUBLIC    CODE     ---       _hal_nrf_read_reg
      0100127CH   PUBLIC    CODE     ---       hal_nrf_nop
      010012BDH   PUBLIC    CODE     ---       hal_nrf_flush_tx
      010012B4H   PUBLIC    CODE     ---       hal_nrf_flush_rx
      0100126FH   PUBLIC    CODE     ---       hal_nrf_get_rx_data_source
      01000FF8H   PUBLIC    CODE     ---       _hal_nrf_read_rx_payload
      010007FBH   PUBLIC    CODE     ---       hal_nrf_read_rx_payload_width
      0100135BH   PUBLIC    CODE     ---       _hal_nrf_enable_ack_payload
      01001338H   PUBLIC    CODE     ---       _hal_nrf_enable_dynamic_payload
      0100132CH   PUBLIC    CODE     ---       _hal_nrf_setup_dynamic_payload
      01000F02H   PUBLIC    CODE     ---       hal_nrf_get_carrier_detect
      01000EF9H   PUBLIC    CODE     ---       hal_nrf_get_transmit_attempts
      01000F0BH   PUBLIC    CODE     ---       hal_nrf_tx_fifo_empty
      01001000H   PUBLIC    CODE     ---       hal_nrf_rx_fifo_empty
LX51 LINKER/LOCATER V4.64.0.0                                                         09/23/2013  15:07:48  PAGE 45


      01001301H   PUBLIC    CODE     ---       _hal_nrf_set_datarate
      010012E3H   PUBLIC    CODE     ---       _hal_nrf_set_output_power
      01000C4AH   PUBLIC    CODE     ---       _hal_nrf_set_rf_channel
      01000041H   PUBLIC    CODE     ---       hal_nrf_get_address_width
      010012C6H   PUBLIC    CODE     ---       _hal_nrf_set_address_width
      01000C7BH   PUBLIC    CODE     ---       _hal_nrf_set_auto_retr
      01000CC3H   PUBLIC    CODE     ---       _hal_nrf_set_address
      01000D12H   PUBLIC    CODE     ---       _hal_nrf_close_pipe
      01000D6DH   PUBLIC    CODE     ---       _hal_nrf_open_pipe
      01000CFFH   PUBLIC    CODE     ---       hal_nrf_clear_irq_flags_get_status
      01000039H   PUBLIC    CODE     ---       hal_nrf_get_clear_irq_flags
      01001285H   PUBLIC    CODE     ---       _hal_nrf_set_crc_mode
      010007DEH   PUBLIC    CODE     ---       _hal_nrf_set_power_mode
      01000E22H   PUBLIC    CODE     ---       _hal_nrf_set_operation_mode
      00000098H.3 SFRSYM    DATA     BIT       TB80
      000000C8H   SFRSYM    DATA     BIT       T2I0
      000000C3H   SFRSYM    DATA     BYTE      CCH1
      000000ABH   SFRSYM    DATA     BYTE      REGXH
      00000080H   SFRSYM    DATA     BYTE      P0
      000000C8H.1 SFRSYM    DATA     BIT       T2I1
      000000C5H   SFRSYM    DATA     BYTE      CCH2
      000000C7H   SFRSYM    DATA     BYTE      CCH3
      00000098H.5 SFRSYM    DATA     BIT       SM20
      000000D0H.6 SFRSYM    DATA     BIT       AC
      000000C2H   SFRSYM    DATA     BYTE      CCL1
      000000ACH   SFRSYM    DATA     BYTE      REGXL
      000000C4H   SFRSYM    DATA     BYTE      CCL2
      000000B3H   SFRSYM    DATA     BYTE      SMCTL
      000000D8H.7 SFRSYM    DATA     BIT       BD
      000000B8H   SFRSYM    DATA     BIT       RFSPI
      000000A8H.7 SFRSYM    DATA     BIT       EA
      000000CCH   SFRSYM    DATA     WORD      T2
      000000C6H   SFRSYM    DATA     BYTE      CCL3
      000000C8H.3 SFRSYM    DATA     BIT       T2R0
      000000C8H.4 SFRSYM    DATA     BIT       T2R1
      000000A8H   SFRSYM    DATA     BYTE      IEN0
      000000B8H   SFRSYM    DATA     BYTE      IEN1
      00000085H   SFRSYM    DATA     BYTE      DPH1
      0000009AH   SFRSYM    DATA     BYTE      IEN2
      00000084H   SFRSYM    DATA     BYTE      DPL1
      000000C8H.5 SFRSYM    DATA     BIT       I2FR
      000000C8H.6 SFRSYM    DATA     BIT       I3FR
      000000E8H   SFRSYM    DATA     BIT       GO
      000000C0H.7 SFRSYM    DATA     BIT       EXF2
      00000098H.4 SFRSYM    DATA     BIT       REN0
      000000F5H   SFRSYM    DATA     BYTE      AESIA1
      000000C8H.2 SFRSYM    DATA     BIT       T2CM
      000000F6H   SFRSYM    DATA     BYTE      AESIA2
      000000B8H.1 SFRSYM    DATA     BIT       RF
      000000B8H.3 SFRSYM    DATA     BIT       USBWU
      000000B8H.5 SFRSYM    DATA     BIT       WUIRQ
      000000C1H   SFRSYM    DATA     BYTE      CCEN
      000000D0H.7 SFRSYM    DATA     BIT       CY
      000000F3H   SFRSYM    DATA     BYTE      AESD
      000000E8H.1 SFRSYM    DATA     BIT       DECR
      00000090H   SFRSYM    DATA     BIT       RFCE
      000000CBH   SFRSYM    DATA     BYTE      CRCH
      00000081H   SFRSYM    DATA     BYTE      SP
      000000A0H.5 SFRSYM    DATA     BIT       SUSPEND
      000000A0H.7 SFRSYM    DATA     BIT       SWRST
      000000D0H.2 SFRSYM    DATA     BIT       OV
      000000CAH   SFRSYM    DATA     BYTE      CRCL
      000000C8H.7 SFRSYM    DATA     BIT       T2PS
      000000A0H.6 SFRSYM    DATA     BIT       WU
      000000F9H   SFRSYM    DATA     BYTE      FPCR
LX51 LINKER/LOCATER V4.64.0.0                                                         09/23/2013  15:07:48  PAGE 46


      00000080H   SFRSYM    DATA     BIT       P00
      000000BAH   SFRSYM    DATA     BYTE      S0RELH
      00000080H.1 SFRSYM    DATA     BIT       P01
      000000C0H.4 SFRSYM    DATA     BIT       USBF
      00000087H   SFRSYM    DATA     BYTE      PCON
      00000080H.3 SFRSYM    DATA     BIT       MCSN
      00000080H.2 SFRSYM    DATA     BIT       P02
      00000080H.3 SFRSYM    DATA     BIT       P03
      000000C0H.2 SFRSYM    DATA     BIT       SPIF
      000000F8H.2 SFRSYM    DATA     BIT       RDIS
      00000080H.4 SFRSYM    DATA     BIT       P04
      000000AAH   SFRSYM    DATA     BYTE      S0RELL
      00000080H.5 SFRSYM    DATA     BIT       P05
      00000089H   SFRSYM    DATA     BYTE      TMOD
      00000088H   SFRSYM    DATA     BYTE      TCON
      000000C2H   SFRSYM    DATA     WORD      CC1
      00000080H.3 SFRSYM    DATA     BIT       SCSN
      000000C4H   SFRSYM    DATA     WORD      CC2
      000000C6H   SFRSYM    DATA     WORD      CC3
      00000090H.2 SFRSYM    DATA     BIT       RFCKEN
      000000F8H   SFRSYM    DATA     BIT       WPEN
      000000F1H   SFRSYM    DATA     BYTE      AESKIN
      00000088H.1 SFRSYM    DATA     BIT       IE0
      000000F8H.4 SFRSYM    DATA     BIT       RDYN
      00000088H.3 SFRSYM    DATA     BIT       IE1
      000000A3H   SFRSYM    DATA     BYTE      CLKCTL
      000000F0H   SFRSYM    DATA     BYTE      B
      000000E9H   SFRSYM    DATA     BYTE      MD0
      000000EAH   SFRSYM    DATA     BYTE      MD1
      000000BDH   SFRSYM    DATA     BYTE      SSDATA
      000000EBH   SFRSYM    DATA     BYTE      MD2
      000000ECH   SFRSYM    DATA     BYTE      MD3
      000000EDH   SFRSYM    DATA     BYTE      MD4
      000000EEH   SFRSYM    DATA     BYTE      MD5
      000000E0H   SFRSYM    DATA     BYTE      ACC
      000000B5H   SFRSYM    DATA     BYTE      TICKDV
      000000A8H.4 SFRSYM    DATA     BIT       ES0
      000000A8H.1 SFRSYM    DATA     BIT       ET0
      000000A9H   SFRSYM    DATA     BYTE      IP0
      000000A8H.3 SFRSYM    DATA     BIT       ET1
      00000088H.5 SFRSYM    DATA     BIT       TF0
      000000B9H   SFRSYM    DATA     BYTE      IP1
      000000A8H.5 SFRSYM    DATA     BIT       ET2
      00000098H   SFRSYM    DATA     BIT       RI0
      00000088H.7 SFRSYM    DATA     BIT       TF1
      000000C0H   SFRSYM    DATA     BIT       RFSPIF
      000000C0H.6 SFRSYM    DATA     BIT       TF2
      000000A0H   SFRSYM    DATA     BYTE      USBCON
      0000008CH   SFRSYM    DATA     BYTE      TH0
      000000A8H   SFRSYM    DATA     BIT       EX0
      00000098H.1 SFRSYM    DATA     BIT       TI0
      00000088H   SFRSYM    DATA     BIT       IT0
      0000008DH   SFRSYM    DATA     BYTE      TH1
      000000A8H.2 SFRSYM    DATA     BIT       EX1
      00000088H.2 SFRSYM    DATA     BIT       IT1
      000000CDH   SFRSYM    DATA     BYTE      TH2
      000000BCH   SFRSYM    DATA     BYTE      SSCONF
      000000A0H   SFRSYM    DATA     BIT       IV0
      000000D0H   SFRSYM    DATA     BIT       P
      000000A0H.1 SFRSYM    DATA     BIT       IV1
      00000098H.7 SFRSYM    DATA     BIT       SM0
      0000008AH   SFRSYM    DATA     BYTE      TL0
      000000A0H.2 SFRSYM    DATA     BIT       IV2
      00000098H.6 SFRSYM    DATA     BIT       SM1
      0000008BH   SFRSYM    DATA     BYTE      TL1
LX51 LINKER/LOCATER V4.64.0.0                                                         09/23/2013  15:07:48  PAGE 47


      000000A0H.3 SFRSYM    DATA     BIT       IV3
      000000CCH   SFRSYM    DATA     BYTE      TL2
      000000A0H.4 SFRSYM    DATA     BIT       IV4
      000000A5H   SFRSYM    DATA     BYTE      WUCONF
      000000D0H.3 SFRSYM    DATA     BIT       RS0
      00000088H.4 SFRSYM    DATA     BIT       TR0
      000000D0H.4 SFRSYM    DATA     BIT       RS1
      00000088H.6 SFRSYM    DATA     BIT       TR1
      000000CAH   SFRSYM    DATA     WORD      CRC
      000000A6H   SFRSYM    DATA     BYTE      INTEXP
      000000FAH   SFRSYM    DATA     BYTE      FCR
      000000D9H   SFRSYM    DATA     BYTE      USBSLP
      00000083H   SFRSYM    DATA     BYTE      DPH
      000000C0H.1 SFRSYM    DATA     BIT       RFF
      000000C0H.3 SFRSYM    DATA     BIT       USBWUF
      00000094H   SFRSYM    DATA     BYTE      P0DIR
      00000082H   SFRSYM    DATA     BYTE      DPL
      00000099H   SFRSYM    DATA     BYTE      S0BUF
      00000095H   SFRSYM    DATA     BYTE      P0ALT
      000000B8H.7 SFRSYM    DATA     BIT       EXEN2
      000000BEH   SFRSYM    DATA     BYTE      SSSTAT
      000000A4H   SFRSYM    DATA     BYTE      PWRDWN
      00000098H   SFRSYM    DATA     BYTE      S0CON
      000000B1H   SFRSYM    DATA     BYTE      RSTRES
      000000C8H   SFRSYM    DATA     BYTE      T2CON
      00000092H   SFRSYM    DATA     BYTE      DPS
      000000B8H.4 SFRSYM    DATA     BIT       USB
      000000F8H.5 SFRSYM    DATA     BIT       WEN
      000000F8H   SFRSYM    DATA     BYTE      FSR
      000000B8H.2 SFRSYM    DATA     BIT       SPI
      000000F8H.1 SFRSYM    DATA     BIT       RDEND
      000000C9H   SFRSYM    DATA     BYTE      P0EXP
      0000008EH   SFRSYM    DATA     BYTE      CKCON
      000000E8H   SFRSYM    DATA     BYTE      AESCS
      000000F8H.3 SFRSYM    DATA     BIT       INFEN
      000000F8H.7 SFRSYM    DATA     BIT       MCDIS
      000000C0H.5 SFRSYM    DATA     BIT       WUF
      000000E5H   SFRSYM    DATA     BYTE      RFDAT
      000000EFH   SFRSYM    DATA     BYTE      ARCON
      000000D0H.5 SFRSYM    DATA     BIT       F0
      000000D0H.1 SFRSYM    DATA     BIT       F1
      000000F8H.6 SFRSYM    DATA     BIT       STP
      000000F2H   SFRSYM    DATA     BYTE      AESIV
      00000090H   SFRSYM    DATA     BYTE      RFCON
      000000D0H   SFRSYM    DATA     BYTE      PSW
      000000B2H   SFRSYM    DATA     BYTE      SMDAT
      000000ADH   SFRSYM    DATA     BYTE      REGXC
      00000098H.2 SFRSYM    DATA     BIT       RB80
      000000E6H   SFRSYM    DATA     BYTE      RFCTL
      000000D8H   SFRSYM    DATA     BYTE      WDCON
      000000C0H   SFRSYM    DATA     BYTE      IRCON
      00000090H.1 SFRSYM    DATA     BIT       RFCSN

      01000E22H   BLOCK     CODE     ---       LVL=0
      01000E22H   LINE      ---      ---       #189
      01000E24H   LINE      ---      ---       #190
      00000045H   SYMBOL    DATA     BYTE      op_mode
      01000E24H   BLOCK     CODE     NEAR LAB  LVL=1
      01000E24H   LINE      ---      ---       #192
      01000E2AH   LINE      ---      ---       #194
      01000E2FH   LINE      ---      ---       #195
      01000E2FH   LINE      ---      ---       #196
      01000E32H   LINE      ---      ---       #197
      01000E34H   LINE      ---      ---       #199
      01000E34H   LINE      ---      ---       #200
LX51 LINKER/LOCATER V4.64.0.0                                                         09/23/2013  15:07:48  PAGE 48


      01000E37H   LINE      ---      ---       #201
      01000E37H   LINE      ---      ---       #203
      00000046H   SYMBOL    DATA     ---       config
      ---         BLOCKEND  CODE     ---       LVL=1
      ---         BLOCKEND  CODE     ---       LVL=0

      010007DEH   BLOCK     CODE     ---       LVL=0
      010007DEH   LINE      ---      ---       #206
      010007E0H   LINE      ---      ---       #207
      0000001AH   SYMBOL    DATA     BYTE      pwr_mode
      010007E0H   BLOCK     CODE     NEAR LAB  LVL=1
      010007E0H   LINE      ---      ---       #209
      010007E7H   LINE      ---      ---       #211
      010007ECH   LINE      ---      ---       #212
      010007ECH   LINE      ---      ---       #213
      010007EFH   LINE      ---      ---       #214
      010007F1H   LINE      ---      ---       #216
      010007F1H   LINE      ---      ---       #217
      010007F4H   LINE      ---      ---       #218
      010007F4H   LINE      ---      ---       #220
      0000001BH   SYMBOL    DATA     ---       config
      ---         BLOCKEND  CODE     ---       LVL=1
      ---         BLOCKEND  CODE     ---       LVL=0

      01001285H   BLOCK     CODE     ---       LVL=0
      01001285H   LINE      ---      ---       #223
      01001287H   LINE      ---      ---       #224
      00000049H   SYMBOL    DATA     BYTE      crc_mode
      01001287H   BLOCK     CODE     NEAR LAB  LVL=1
      01001287H   LINE      ---      ---       #226
      0100128EH   LINE      ---      ---       #228
      0100129AH   LINE      ---      ---       #229
      0100129AH   LINE      ---      ---       #230
      0100129AH   LINE      ---      ---       #231
      0100129DH   LINE      ---      ---       #232
      0100129FH   LINE      ---      ---       #233
      0100129FH   LINE      ---      ---       #234
      010012A2H   LINE      ---      ---       #235
      010012A5H   LINE      ---      ---       #236
      010012A7H   LINE      ---      ---       #237
      010012A7H   LINE      ---      ---       #238
      010012AAH   LINE      ---      ---       #239
      010012ADH   LINE      ---      ---       #240
      010012ADH   LINE      ---      ---       #241
      010012ADH   LINE      ---      ---       #242
      010012ADH   LINE      ---      ---       #243
      010012ADH   LINE      ---      ---       #245
      0000004AH   SYMBOL    DATA     ---       config
      ---         BLOCKEND  CODE     ---       LVL=1
      ---         BLOCKEND  CODE     ---       LVL=0

      01000039H   BLOCK     CODE     ---       LVL=0
      01000039H   LINE      ---      ---       #269
      01000039H   LINE      ---      ---       #270
      01000039H   BLOCK     CODE     NEAR LAB  LVL=1
      01000039H   LINE      ---      ---       #273
      0100003CH   LINE      ---      ---       #275
      01000040H   LINE      ---      ---       #276
      00000007H   SYMBOL    DATA     BYTE      retval
      ---         BLOCKEND  CODE     ---       LVL=1
      ---         BLOCKEND  CODE     ---       LVL=0

      01000CFFH   BLOCK     CODE     ---       LVL=0
      01000CFFH   LINE      ---      ---       #278
      01000CFFH   LINE      ---      ---       #279
LX51 LINKER/LOCATER V4.64.0.0                                                         09/23/2013  15:07:48  PAGE 49


      01000CFFH   BLOCK     CODE     NEAR LAB  LVL=1
      01000CFFH   LINE      ---      ---       #283
      01000D06H   LINE      ---      ---       #284
      01000D0FH   LINE      ---      ---       #286
      01000D11H   LINE      ---      ---       #287
      00000028H   SYMBOL    DATA     BYTE      retval
      ---         BLOCKEND  CODE     ---       LVL=1
      ---         BLOCKEND  CODE     ---       LVL=0
      00000007H   SYMBOL    DATA     BYTE      int_source

      01000D6DH   BLOCK     CODE     ---       LVL=0
      01000D6DH   LINE      ---      ---       #300
      01000D71H   LINE      ---      ---       #301
      00000045H   SYMBOL    DATA     BYTE      pipe_num
      00000046H   SYMBOL    DATA     BYTE      auto_ack
      01000D71H   BLOCK     CODE     NEAR LAB  LVL=1
      01000D71H   LINE      ---      ---       #304
      01000D77H   LINE      ---      ---       #305
      01000D7DH   LINE      ---      ---       #307
      01000D89H   LINE      ---      ---       #308
      01000D89H   LINE      ---      ---       #309
      01000D89H   LINE      ---      ---       #310
      01000D89H   LINE      ---      ---       #311
      01000D89H   LINE      ---      ---       #312
      01000D89H   LINE      ---      ---       #313
      01000D89H   LINE      ---      ---       #314
      01000D89H   LINE      ---      ---       #315
      01000D99H   LINE      ---      ---       #317
      01000D9DH   LINE      ---      ---       #318
      01000D9DH   LINE      ---      ---       #319
      01000DA0H   LINE      ---      ---       #320
      01000DA2H   LINE      ---      ---       #322
      01000DA2H   LINE      ---      ---       #323
      01000DA6H   LINE      ---      ---       #324
      01000DA6H   LINE      ---      ---       #325
      01000DA8H   LINE      ---      ---       #327
      01000DA8H   LINE      ---      ---       #328
      01000DABH   LINE      ---      ---       #330
      01000DAFH   LINE      ---      ---       #331
      01000DAFH   LINE      ---      ---       #332
      01000DB2H   LINE      ---      ---       #333
      01000DB4H   LINE      ---      ---       #335
      01000DB4H   LINE      ---      ---       #336
      01000DB7H   LINE      ---      ---       #337
      01000DB7H   LINE      ---      ---       #338
      01000DB7H   LINE      ---      ---       #340
      01000DB7H   LINE      ---      ---       #341
      01000DB7H   LINE      ---      ---       #342
      01000DB7H   LINE      ---      ---       #343
      01000DB7H   LINE      ---      ---       #345
      01000DBDH   LINE      ---      ---       #346
      00000047H   SYMBOL    DATA     ---       en_rxaddr
      00000048H   SYMBOL    DATA     ---       en_aa
      ---         BLOCKEND  CODE     ---       LVL=1
      ---         BLOCKEND  CODE     ---       LVL=0

      01000D12H   BLOCK     CODE     ---       LVL=0
      01000D12H   LINE      ---      ---       #349
      01000D14H   LINE      ---      ---       #350
      00000045H   SYMBOL    DATA     BYTE      pipe_num
      01000D14H   BLOCK     CODE     NEAR LAB  LVL=1
      01000D14H   LINE      ---      ---       #353
      01000D1AH   LINE      ---      ---       #354
      01000D20H   LINE      ---      ---       #356
      01000D2CH   LINE      ---      ---       #357
LX51 LINKER/LOCATER V4.64.0.0                                                         09/23/2013  15:07:48  PAGE 50


      01000D2CH   LINE      ---      ---       #358
      01000D2CH   LINE      ---      ---       #359
      01000D2CH   LINE      ---      ---       #360
      01000D2CH   LINE      ---      ---       #361
      01000D2CH   LINE      ---      ---       #362
      01000D2CH   LINE      ---      ---       #363
      01000D2CH   LINE      ---      ---       #364
      01000D3CH   LINE      ---      ---       #365
      01000D3EH   LINE      ---      ---       #366
      01000D40H   LINE      ---      ---       #368
      01000D40H   LINE      ---      ---       #369
      01000D43H   LINE      ---      ---       #370
      01000D45H   LINE      ---      ---       #371
      01000D45H   LINE      ---      ---       #373
      01000D45H   LINE      ---      ---       #374
      01000D45H   LINE      ---      ---       #375
      01000D45H   LINE      ---      ---       #376
      01000D45H   LINE      ---      ---       #378
      01000D4BH   LINE      ---      ---       #379
      00000046H   SYMBOL    DATA     ---       en_rxaddr
      00000047H   SYMBOL    DATA     ---       en_aa
      ---         BLOCKEND  CODE     ---       LVL=1
      ---         BLOCKEND  CODE     ---       LVL=0

      01000CBBH   BLOCK     CODE     ---       LVL=0
      01000CC3H   LINE      ---      ---       #382
      01000CCBH   LINE      ---      ---       #383
      01000CCBH   LINE      ---      ---       #384
      01000CDAH   LINE      ---      ---       #385
      01000CDAH   LINE      ---      ---       #386
      01000CDAH   LINE      ---      ---       #387
      01000CDAH   LINE      ---      ---       #388
      01000CDAH   LINE      ---      ---       #389
      01000CEDH   LINE      ---      ---       #390
      01000CEDH   LINE      ---      ---       #391
      01000CEDH   LINE      ---      ---       #392
      01000CEDH   LINE      ---      ---       #393
      01000CEDH   LINE      ---      ---       #394
      01000CEDH   LINE      ---      ---       #395
      01000CFEH   LINE      ---      ---       #396
      01000CFEH   LINE      ---      ---       #398
      01000CFEH   LINE      ---      ---       #399
      01000CFEH   LINE      ---      ---       #400
      01000CFEH   LINE      ---      ---       #401
      01000CFEH   LINE      ---      ---       #402
      00000049H   SYMBOL    DATA     BYTE      address
      0000004AH   SYMBOL    DATA     ---       addr
      ---         BLOCKEND  ---      ---       LVL=0

      01000C7BH   BLOCK     CODE     ---       LVL=0
      01000C7BH   LINE      ---      ---       #418
      01000C7DH   LINE      ---      ---       #419
      00000003H   SYMBOL    DATA     BYTE      retr
      00000004H   SYMBOL    DATA     WORD      delay
      01000C7DH   BLOCK     CODE     NEAR LAB  LVL=1
      01000C7DH   LINE      ---      ---       #421
      01000C8BH   LINE      ---      ---       #422
      01000C96H   LINE      ---      ---       #424
      0000001CH   SYMBOL    DATA     ---       setup_retr
      ---         BLOCKEND  CODE     ---       LVL=1
      ---         BLOCKEND  CODE     ---       LVL=0

      010012C6H   BLOCK     CODE     ---       LVL=0
      010012C6H   LINE      ---      ---       #427
      010012C6H   LINE      ---      ---       #428
LX51 LINKER/LOCATER V4.64.0.0                                                         09/23/2013  15:07:48  PAGE 51


      00000007H   SYMBOL    DATA     BYTE      address_width
      010012C6H   BLOCK     CODE     NEAR LAB  LVL=1
      010012C6H   LINE      ---      ---       #430
      010012C9H   LINE      ---      ---       #431
      010012D6H   LINE      ---      ---       #433
      00000049H   SYMBOL    DATA     ---       setup_aw
      ---         BLOCKEND  CODE     ---       LVL=1
      ---         BLOCKEND  CODE     ---       LVL=0

      01000041H   BLOCK     CODE     ---       LVL=0
      01000041H   LINE      ---      ---       #436
      01000041H   LINE      ---      ---       #437
      01000041H   LINE      ---      ---       #438
      0100004AH   LINE      ---      ---       #439
      ---         BLOCKEND  ---      ---       LVL=0
      00000007H   SYMBOL    DATA     BYTE      pipe_num
      00000005H   SYMBOL    DATA     BYTE      pload_width
      00000007H   SYMBOL    DATA     BYTE      pipe_num

      01000C4AH   BLOCK     CODE     ---       LVL=0
      01000C4AH   LINE      ---      ---       #532
      01000C4AH   LINE      ---      ---       #533
      00000007H   SYMBOL    DATA     BYTE      channel
      01000C4AH   BLOCK     CODE     NEAR LAB  LVL=1
      01000C4AH   LINE      ---      ---       #535
      01000C4DH   LINE      ---      ---       #536
      01000C58H   LINE      ---      ---       #537
      0000001DH   SYMBOL    DATA     ---       rf_ch
      ---         BLOCKEND  CODE     ---       LVL=1
      ---         BLOCKEND  CODE     ---       LVL=0

      010012DDH   BLOCK     CODE     ---       LVL=0
      010012E3H   LINE      ---      ---       #540
      010012E5H   LINE      ---      ---       #541
      00000049H   SYMBOL    DATA     BYTE      power
      010012E5H   BLOCK     CODE     NEAR LAB  LVL=1
      010012E5H   LINE      ---      ---       #543
      010012ECH   LINE      ---      ---       #545
      010012FAH   LINE      ---      ---       #547
      0000004AH   SYMBOL    DATA     ---       rf_setup
      ---         BLOCKEND  CODE     ---       LVL=1
      ---         BLOCKEND  CODE     ---       LVL=0

      01001301H   BLOCK     CODE     ---       LVL=0
      01001301H   LINE      ---      ---       #550
      01001303H   LINE      ---      ---       #551
      00000049H   SYMBOL    DATA     BYTE      datarate
      01001303H   BLOCK     CODE     NEAR LAB  LVL=1
      01001303H   LINE      ---      ---       #553
      0100130AH   LINE      ---      ---       #555
      01001312H   LINE      ---      ---       #556
      01001312H   LINE      ---      ---       #557
      01001312H   LINE      ---      ---       #558
      01001315H   LINE      ---      ---       #559
      01001315H   LINE      ---      ---       #560
      01001317H   LINE      ---      ---       #561
      01001317H   LINE      ---      ---       #562
      0100131AH   LINE      ---      ---       #563
      0100131DH   LINE      ---      ---       #564
      0100131FH   LINE      ---      ---       #565
      0100131FH   LINE      ---      ---       #566
      0100131FH   LINE      ---      ---       #567
      01001322H   LINE      ---      ---       #568
      01001325H   LINE      ---      ---       #569
      01001325H   LINE      ---      ---       #570
LX51 LINKER/LOCATER V4.64.0.0                                                         09/23/2013  15:07:48  PAGE 52


      01001325H   LINE      ---      ---       #572
      0000004AH   SYMBOL    DATA     ---       rf_setup
      ---         BLOCKEND  CODE     ---       LVL=1
      ---         BLOCKEND  CODE     ---       LVL=0

      01001000H   BLOCK     CODE     ---       LVL=0
      01001000H   LINE      ---      ---       #575
      01001000H   LINE      ---      ---       #576
      01001000H   LINE      ---      ---       #577
      01001009H   LINE      ---      ---       #578
      ---         BLOCKEND  ---      ---       LVL=0

      01000F0BH   BLOCK     CODE     ---       LVL=0
      01000F0BH   LINE      ---      ---       #585
      01000F0BH   LINE      ---      ---       #586
      01000F0BH   LINE      ---      ---       #587
      01000F14H   LINE      ---      ---       #588
      ---         BLOCKEND  ---      ---       LVL=0

      01000EF9H   BLOCK     CODE     ---       LVL=0
      01000EF9H   LINE      ---      ---       #610
      01000EF9H   LINE      ---      ---       #611
      01000EF9H   LINE      ---      ---       #612
      01000F01H   LINE      ---      ---       #613
      ---         BLOCKEND  ---      ---       LVL=0

      01000F02H   BLOCK     CODE     ---       LVL=0
      01000F02H   LINE      ---      ---       #615
      01000F02H   LINE      ---      ---       #616
      01000F02H   LINE      ---      ---       #617
      01000F0AH   LINE      ---      ---       #618
      ---         BLOCKEND  ---      ---       LVL=0

      0100132CH   BLOCK     CODE     ---       LVL=0
      0100132CH   LINE      ---      ---       #623
      0100132CH   LINE      ---      ---       #624
      00000007H   SYMBOL    DATA     BYTE      setup
      0100132CH   BLOCK     CODE     NEAR LAB  LVL=1
      0100132CH   LINE      ---      ---       #626
      01001331H   LINE      ---      ---       #628
      00000049H   SYMBOL    DATA     ---       dynpd
      ---         BLOCKEND  CODE     ---       LVL=1
      ---         BLOCKEND  CODE     ---       LVL=0

      01001338H   BLOCK     CODE     ---       LVL=0
      01001338H   LINE      ---      ---       #631
      00000049H   SYMBOL    DATA     BYTE      enable
      01001338H   BLOCK     CODE     NEAR LAB  LVL=1
      0100133DH   LINE      ---      ---       #635
      01001354H   LINE      ---      ---       #637
      0000004AH   SYMBOL    DATA     ---       feature
      ---         BLOCKEND  CODE     ---       LVL=1
      ---         BLOCKEND  CODE     ---       LVL=0

      0100135BH   BLOCK     CODE     ---       LVL=0
      0100135BH   LINE      ---      ---       #640
      00000049H   SYMBOL    DATA     BYTE      enable
      0100135BH   BLOCK     CODE     NEAR LAB  LVL=1
      01001360H   LINE      ---      ---       #644
      01001375H   LINE      ---      ---       #646
      0000004AH   SYMBOL    DATA     ---       feature
      ---         BLOCKEND  CODE     ---       LVL=1
      ---         BLOCKEND  CODE     ---       LVL=0
      00000001H   SYMBOL    DATA     ---       tx_pload
      00000005H   SYMBOL    DATA     BYTE      length
LX51 LINKER/LOCATER V4.64.0.0                                                         09/23/2013  15:07:48  PAGE 53


      00000001H   SYMBOL    DATA     ---       tx_pload
      00000005H   SYMBOL    DATA     BYTE      length
      00000007H   SYMBOL    DATA     BYTE      pipe
      00000001H   SYMBOL    DATA     ---       tx_pload

      010007FBH   BLOCK     CODE     ---       LVL=0
      010007FBH   LINE      ---      ---       #673
      010007FBH   LINE      ---      ---       #674
      010007FBH   LINE      ---      ---       #675
      ---         BLOCKEND  ---      ---       LVL=0

      01000FF8H   BLOCK     CODE     ---       LVL=0
      01000FF8H   LINE      ---      ---       #678
      01000FF8H   LINE      ---      ---       #679
      01000FF8H   LINE      ---      ---       #680
      00000001H   SYMBOL    DATA     ---       rx_pload
      ---         BLOCKEND  ---      ---       LVL=0

      0100126FH   BLOCK     CODE     ---       LVL=0
      0100126FH   LINE      ---      ---       #683
      0100126FH   LINE      ---      ---       #684
      0100126FH   LINE      ---      ---       #685
      0100127BH   LINE      ---      ---       #686
      ---         BLOCKEND  ---      ---       LVL=0

      010012B4H   BLOCK     CODE     ---       LVL=0
      010012B4H   LINE      ---      ---       #700
      010012B4H   LINE      ---      ---       #701
      010012B4H   LINE      ---      ---       #702
      010012B6H   LINE      ---      ---       #703
      010012BAH   LINE      ---      ---       #704
      010012BCH   LINE      ---      ---       #705
      ---         BLOCKEND  ---      ---       LVL=0

      010012BDH   BLOCK     CODE     ---       LVL=0
      010012BDH   LINE      ---      ---       #707
      010012BDH   LINE      ---      ---       #708
      010012BDH   LINE      ---      ---       #709
      010012BFH   LINE      ---      ---       #710
      010012C3H   LINE      ---      ---       #711
      010012C5H   LINE      ---      ---       #712
      ---         BLOCKEND  ---      ---       LVL=0

      0100127CH   BLOCK     CODE     ---       LVL=0
      0100127CH   LINE      ---      ---       #714
      0100127CH   LINE      ---      ---       #715
      0100127CH   BLOCK     CODE     NEAR LAB  LVL=1
      0100127CH   LINE      ---      ---       #718
      0100127EH   LINE      ---      ---       #719
      01001282H   LINE      ---      ---       #720
      01001284H   LINE      ---      ---       #722
      01001284H   LINE      ---      ---       #723
      00000007H   SYMBOL    DATA     BYTE      retval
      ---         BLOCKEND  CODE     ---       LVL=1
      ---         BLOCKEND  CODE     ---       LVL=0

      01000D51H   BLOCK     CODE     ---       LVL=0
      01000D55H   LINE      ---      ---       #743
      01000D55H   LINE      ---      ---       #744
      00000007H   SYMBOL    DATA     BYTE      reg
      01000D55H   BLOCK     CODE     NEAR LAB  LVL=1
      01000D55H   LINE      ---      ---       #747
      01000D57H   LINE      ---      ---       #749
      01000D5BH   LINE      ---      ---       #750
      01000D5EH   LINE      ---      ---       #751
LX51 LINKER/LOCATER V4.64.0.0                                                         09/23/2013  15:07:48  PAGE 54


      01000D60H   LINE      ---      ---       #753
      01000D65H   LINE      ---      ---       #754
      01000D68H   LINE      ---      ---       #755
      01000D6AH   LINE      ---      ---       #757
      01000D6CH   LINE      ---      ---       #759
      01000D6CH   LINE      ---      ---       #760
      00000007H   SYMBOL    DATA     BYTE      temp
      ---         BLOCKEND  CODE     ---       LVL=1
      ---         BLOCKEND  CODE     ---       LVL=0

      01000C9CH   BLOCK     CODE     ---       LVL=0
      01000CA0H   LINE      ---      ---       #762
      01000CA0H   LINE      ---      ---       #763
      00000007H   SYMBOL    DATA     BYTE      reg
      00000005H   SYMBOL    DATA     BYTE      value
      01000CA0H   BLOCK     CODE     NEAR LAB  LVL=1
      01000CA0H   LINE      ---      ---       #770
      01000CA2H   LINE      ---      ---       #772
      01000CA9H   LINE      ---      ---       #773
      01000CACH   LINE      ---      ---       #774
      01000CAEH   LINE      ---      ---       #776
      01000CB2H   LINE      ---      ---       #777
      01000CB5H   LINE      ---      ---       #778
      01000CB8H   LINE      ---      ---       #780
      01000CBAH   LINE      ---      ---       #782
      01000CBAH   LINE      ---      ---       #783
      00000007H   SYMBOL    DATA     BYTE      retval
      0000001EH   SYMBOL    DATA     BYTE      dummy
      ---         BLOCKEND  CODE     ---       LVL=1
      ---         BLOCKEND  CODE     ---       LVL=0

      01001140H   BLOCK     CODE     ---       LVL=0
      01001140H   LINE      ---      ---       #804
      01001148H   LINE      ---      ---       #805
      00000056H   SYMBOL    DATA     BYTE      reg
      00000057H   SYMBOL    DATA     ---       pbuf
      01001148H   BLOCK     CODE     NEAR LAB  LVL=1
      01001148H   LINE      ---      ---       #810
      0100114BH   LINE      ---      ---       #812
      0100114EH   LINE      ---      ---       #814
      0100115FH   LINE      ---      ---       #815
      0100115FH   LINE      ---      ---       #816
      0100115FH   LINE      ---      ---       #817
      0100115FH   LINE      ---      ---       #818
      0100115FH   LINE      ---      ---       #819
      01001166H   LINE      ---      ---       #820
      01001168H   LINE      ---      ---       #821
      0100116DH   LINE      ---      ---       #822
      0100116FH   LINE      ---      ---       #824
      0100116FH   LINE      ---      ---       #825
      01001173H   LINE      ---      ---       #826
      0100117AH   LINE      ---      ---       #827
      0100117AH   LINE      ---      ---       #828
      01001181H   LINE      ---      ---       #829
      01001183H   LINE      ---      ---       #830
      01001187H   LINE      ---      ---       #831
      01001189H   LINE      ---      ---       #838
      01001189H   LINE      ---      ---       #839
      0100118EH   LINE      ---      ---       #840
      0100118EH   LINE      ---      ---       #841
      0100118EH   LINE      ---      ---       #843
      01001192H   LINE      ---      ---       #844
      0000005AH   SYMBOL    DATA     BYTE      ctr
      0000005BH   SYMBOL    DATA     BYTE      length
      0000005CH   SYMBOL    DATA     BYTE      memtype
LX51 LINKER/LOCATER V4.64.0.0                                                         09/23/2013  15:07:48  PAGE 55


      0000005DH   SYMBOL    DATA     BYTE      read_byte
      0000005EH   SYMBOL    DATA     BYTE      first_round
      01001192H   BLOCK     CODE     NEAR LAB  LVL=2
      01001192H   LINE      ---      ---       #845
      01001195H   LINE      ---      ---       #846
      010011B6H   LINE      ---      ---       #847
      0000005FH   SYMBOL    DATA     ---       buf
      0000005FH   SYMBOL    DATA     ---       buf
      0000005FH   SYMBOL    DATA     ---       buf
      0000005FH   SYMBOL    DATA     ---       buf
      010011B8H   LINE      ---      ---       #848
      010011BEH   LINE      ---      ---       #849
      010011BEH   LINE      CODE     ---       #849
      010011BEH   BLOCK     CODE     NEAR LAB  LVL=2
      010011BEH   LINE      ---      ---       #850
      010011C4H   LINE      ---      ---       #851
      010011F5H   LINE      ---      ---       #852
      0000005FH   SYMBOL    DATA     ---       buf
      0000005FH   SYMBOL    DATA     ---       buf
      0000005FH   SYMBOL    DATA     ---       buf
      010011F7H   LINE      ---      ---       #853
      010011FDH   LINE      ---      ---       #854
      010011FDH   LINE      CODE     ---       #854
      010011FDH   BLOCK     CODE     NEAR LAB  LVL=2
      010011FDH   LINE      ---      ---       #855
      01001200H   LINE      ---      ---       #856
      01001223H   LINE      ---      ---       #857
      0000005FH   SYMBOL    DATA     ---       buf
      0000005FH   SYMBOL    DATA     ---       buf
      01001225H   LINE      ---      ---       #859
      01001225H   LINE      CODE     ---       #859
      01001225H   BLOCK     CODE     NEAR LAB  LVL=2
      01001225H   LINE      ---      ---       #860
      0100122EH   LINE      ---      ---       #861
      01001266H   LINE      ---      ---       #862
      0000005FH   SYMBOL    DATA     ---       buf
      01001266H   LINE      ---      ---       #864
      01001268H   LINE      ---      ---       #866
      0100126EH   LINE      ---      ---       #867
      0100126EH   LINE      CODE     ---       #867
      ---         BLOCKEND  CODE     ---       LVL=1
      ---         BLOCKEND  CODE     ---       LVL=0

      0100137CH   BLOCK     CODE     ---       LVL=0
      0100137CH   LINE      ---      ---       #878
      01001382H   LINE      ---      ---       #882
      00000007H   SYMBOL    DATA     BYTE      reg
      0000004EH   SYMBOL    DATA     ---       pbuf
      00000051H   SYMBOL    DATA     BYTE      length
      01001382H   BLOCK     CODE     NEAR LAB  LVL=1
      01001382H   LINE      ---      ---       #887
      01001384H   LINE      ---      ---       #889
      01001386H   LINE      ---      ---       #890
      0100138AH   LINE      ---      ---       #892
      0100138DH   LINE      ---      ---       #893
      00000005H   SYMBOL    DATA     BYTE      memtype
      00000006H   SYMBOL    DATA     BYTE      next
      00000052H   SYMBOL    DATA     BYTE      dummy
      0100138DH   BLOCK     CODE     NEAR LAB  LVL=2
      0100138DH   LINE      ---      ---       #894
      01001390H   LINE      ---      ---       #895
      010013A3H   LINE      ---      ---       #896
      00000053H   SYMBOL    DATA     ---       buf
      00000053H   SYMBOL    DATA     ---       buf
      00000053H   SYMBOL    DATA     ---       buf
LX51 LINKER/LOCATER V4.64.0.0                                                         09/23/2013  15:07:48  PAGE 56


      00000053H   SYMBOL    DATA     ---       buf
      010013A5H   LINE      ---      ---       #897
      010013AAH   LINE      ---      ---       #898
      010013AAH   LINE      CODE     ---       #898
      010013AAH   BLOCK     CODE     NEAR LAB  LVL=2
      010013AAH   LINE      ---      ---       #899
      010013B0H   LINE      ---      ---       #900
      010013CDH   LINE      ---      ---       #901
      00000053H   SYMBOL    DATA     ---       buf
      00000053H   SYMBOL    DATA     ---       buf
      00000053H   SYMBOL    DATA     ---       buf
      010013CFH   LINE      ---      ---       #902
      010013D4H   LINE      ---      ---       #903
      010013D4H   LINE      CODE     ---       #903
      010013D4H   BLOCK     CODE     NEAR LAB  LVL=2
      010013D4H   LINE      ---      ---       #904
      010013D7H   LINE      ---      ---       #905
      010013EAH   LINE      ---      ---       #906
      00000053H   SYMBOL    DATA     ---       buf
      00000053H   SYMBOL    DATA     ---       buf
      010013ECH   LINE      ---      ---       #908
      010013ECH   LINE      CODE     ---       #908
      010013ECH   BLOCK     CODE     NEAR LAB  LVL=2
      010013ECH   LINE      ---      ---       #909
      010013F5H   LINE      ---      ---       #910
      01001417H   LINE      ---      ---       #911
      00000053H   SYMBOL    DATA     ---       buf
      01001417H   LINE      ---      ---       #913
      0100141AH   LINE      ---      ---       #914
      0100141DH   LINE      ---      ---       #915
      0100141FH   LINE      ---      ---       #916
      0100141FH   LINE      CODE     ---       #916
      ---         BLOCKEND  CODE     ---       LVL=1
      ---         BLOCKEND  CODE     ---       LVL=0

      ---         MODULE    ---      ---       HAL_DELAY
      010009B9H   PUBLIC    CODE     ---       _delay_us

      010009AFH   BLOCK     CODE     ---       LVL=0
      010009B9H   LINE      ---      ---       #37
      010009B9H   LINE      ---      ---       #38
      010009B9H   LINE      ---      ---       #40
      010009B9H   LINE      ---      ---       #41
      010009BAH   LINE      ---      ---       #42
      010009BBH   LINE      ---      ---       #43
      010009BCH   LINE      ---      ---       #44
      010009BDH   LINE      ---      ---       #45
      010009BEH   LINE      ---      ---       #46
      010009C7H   LINE      ---      ---       #47
      00000006H   SYMBOL    DATA     WORD      us
      ---         BLOCKEND  ---      ---       LVL=0
      00000004H   SYMBOL    DATA     WORD      ms

      ---         MODULE    ---      ---       LIB_CRYPT_LU1
      00000098H.3 SFRSYM    DATA     BIT       TB80
      000000C8H   SFRSYM    DATA     BIT       T2I0
      000000C3H   SFRSYM    DATA     BYTE      CCH1
      000000ABH   SFRSYM    DATA     BYTE      REGXH
      00000080H   SFRSYM    DATA     BYTE      P0
      000000C8H.1 SFRSYM    DATA     BIT       T2I1
      000000C5H   SFRSYM    DATA     BYTE      CCH2
      000000C7H   SFRSYM    DATA     BYTE      CCH3
      00000098H.5 SFRSYM    DATA     BIT       SM20
      000000D0H.6 SFRSYM    DATA     BIT       AC
      000000C2H   SFRSYM    DATA     BYTE      CCL1
LX51 LINKER/LOCATER V4.64.0.0                                                         09/23/2013  15:07:48  PAGE 57


      000000ACH   SFRSYM    DATA     BYTE      REGXL
      000000C4H   SFRSYM    DATA     BYTE      CCL2
      000000B3H   SFRSYM    DATA     BYTE      SMCTL
      000000D8H.7 SFRSYM    DATA     BIT       BD
      000000B8H   SFRSYM    DATA     BIT       RFSPI
      000000A8H.7 SFRSYM    DATA     BIT       EA
      000000CCH   SFRSYM    DATA     WORD      T2
      000000C6H   SFRSYM    DATA     BYTE      CCL3
      000000C8H.3 SFRSYM    DATA     BIT       T2R0
      000000C8H.4 SFRSYM    DATA     BIT       T2R1
      000000A8H   SFRSYM    DATA     BYTE      IEN0
      000000B8H   SFRSYM    DATA     BYTE      IEN1
      00000085H   SFRSYM    DATA     BYTE      DPH1
      0000009AH   SFRSYM    DATA     BYTE      IEN2
      00000084H   SFRSYM    DATA     BYTE      DPL1
      000000C8H.5 SFRSYM    DATA     BIT       I2FR
      000000C8H.6 SFRSYM    DATA     BIT       I3FR
      000000E8H   SFRSYM    DATA     BIT       GO
      000000C0H.7 SFRSYM    DATA     BIT       EXF2
      00000098H.4 SFRSYM    DATA     BIT       REN0
      000000F5H   SFRSYM    DATA     BYTE      AESIA1
      000000C8H.2 SFRSYM    DATA     BIT       T2CM
      000000F6H   SFRSYM    DATA     BYTE      AESIA2
      000000B8H.1 SFRSYM    DATA     BIT       RF
      000000B8H.3 SFRSYM    DATA     BIT       USBWU
      000000B8H.5 SFRSYM    DATA     BIT       WUIRQ
      000000C1H   SFRSYM    DATA     BYTE      CCEN
      000000D0H.7 SFRSYM    DATA     BIT       CY
      000000F3H   SFRSYM    DATA     BYTE      AESD
      000000E8H.1 SFRSYM    DATA     BIT       DECR
      00000090H   SFRSYM    DATA     BIT       RFCE
      000000CBH   SFRSYM    DATA     BYTE      CRCH
      00000081H   SFRSYM    DATA     BYTE      SP
      000000A0H.5 SFRSYM    DATA     BIT       SUSPEND
      000000A0H.7 SFRSYM    DATA     BIT       SWRST
      000000D0H.2 SFRSYM    DATA     BIT       OV
      000000CAH   SFRSYM    DATA     BYTE      CRCL
      000000C8H.7 SFRSYM    DATA     BIT       T2PS
      000000A0H.6 SFRSYM    DATA     BIT       WU
      000000F9H   SFRSYM    DATA     BYTE      FPCR
      00000080H   SFRSYM    DATA     BIT       P00
      000000BAH   SFRSYM    DATA     BYTE      S0RELH
      00000080H.1 SFRSYM    DATA     BIT       P01
      000000C0H.4 SFRSYM    DATA     BIT       USBF
      00000087H   SFRSYM    DATA     BYTE      PCON
      00000080H.3 SFRSYM    DATA     BIT       MCSN
      00000080H.2 SFRSYM    DATA     BIT       P02
      00000080H.3 SFRSYM    DATA     BIT       P03
      000000C0H.2 SFRSYM    DATA     BIT       SPIF
      000000F8H.2 SFRSYM    DATA     BIT       RDIS
      00000080H.4 SFRSYM    DATA     BIT       P04
      000000AAH   SFRSYM    DATA     BYTE      S0RELL
      00000080H.5 SFRSYM    DATA     BIT       P05
      00000089H   SFRSYM    DATA     BYTE      TMOD
      00000088H   SFRSYM    DATA     BYTE      TCON
      000000C2H   SFRSYM    DATA     WORD      CC1
      00000080H.3 SFRSYM    DATA     BIT       SCSN
      000000C4H   SFRSYM    DATA     WORD      CC2
      000000C6H   SFRSYM    DATA     WORD      CC3
      00000090H.2 SFRSYM    DATA     BIT       RFCKEN
      000000F8H   SFRSYM    DATA     BIT       WPEN
      000000F1H   SFRSYM    DATA     BYTE      AESKIN
      00000088H.1 SFRSYM    DATA     BIT       IE0
      000000F8H.4 SFRSYM    DATA     BIT       RDYN
      00000088H.3 SFRSYM    DATA     BIT       IE1
LX51 LINKER/LOCATER V4.64.0.0                                                         09/23/2013  15:07:48  PAGE 58


      000000A3H   SFRSYM    DATA     BYTE      CLKCTL
      000000F0H   SFRSYM    DATA     BYTE      B
      000000E9H   SFRSYM    DATA     BYTE      MD0
      000000EAH   SFRSYM    DATA     BYTE      MD1
      000000BDH   SFRSYM    DATA     BYTE      SSDATA
      000000EBH   SFRSYM    DATA     BYTE      MD2
      000000ECH   SFRSYM    DATA     BYTE      MD3
      000000EDH   SFRSYM    DATA     BYTE      MD4
      000000EEH   SFRSYM    DATA     BYTE      MD5
      000000E0H   SFRSYM    DATA     BYTE      ACC
      000000B5H   SFRSYM    DATA     BYTE      TICKDV
      000000A8H.4 SFRSYM    DATA     BIT       ES0
      000000A8H.1 SFRSYM    DATA     BIT       ET0
      000000A9H   SFRSYM    DATA     BYTE      IP0
      000000A8H.3 SFRSYM    DATA     BIT       ET1
      00000088H.5 SFRSYM    DATA     BIT       TF0
      000000B9H   SFRSYM    DATA     BYTE      IP1
      000000A8H.5 SFRSYM    DATA     BIT       ET2
      00000098H   SFRSYM    DATA     BIT       RI0
      00000088H.7 SFRSYM    DATA     BIT       TF1
      000000C0H   SFRSYM    DATA     BIT       RFSPIF
      000000C0H.6 SFRSYM    DATA     BIT       TF2
      000000A0H   SFRSYM    DATA     BYTE      USBCON
      0000008CH   SFRSYM    DATA     BYTE      TH0
      000000A8H   SFRSYM    DATA     BIT       EX0
      00000098H.1 SFRSYM    DATA     BIT       TI0
      00000088H   SFRSYM    DATA     BIT       IT0
      0000008DH   SFRSYM    DATA     BYTE      TH1
      000000A8H.2 SFRSYM    DATA     BIT       EX1
      00000088H.2 SFRSYM    DATA     BIT       IT1
      000000CDH   SFRSYM    DATA     BYTE      TH2
      000000BCH   SFRSYM    DATA     BYTE      SSCONF
      000000A0H   SFRSYM    DATA     BIT       IV0
      000000D0H   SFRSYM    DATA     BIT       P
      000000A0H.1 SFRSYM    DATA     BIT       IV1
      00000098H.7 SFRSYM    DATA     BIT       SM0
      0000008AH   SFRSYM    DATA     BYTE      TL0
      000000A0H.2 SFRSYM    DATA     BIT       IV2
      00000098H.6 SFRSYM    DATA     BIT       SM1
      0000008BH   SFRSYM    DATA     BYTE      TL1
      000000A0H.3 SFRSYM    DATA     BIT       IV3
      000000CCH   SFRSYM    DATA     BYTE      TL2
      000000A0H.4 SFRSYM    DATA     BIT       IV4
      000000A5H   SFRSYM    DATA     BYTE      WUCONF
      000000D0H.3 SFRSYM    DATA     BIT       RS0
      00000088H.4 SFRSYM    DATA     BIT       TR0
      000000D0H.4 SFRSYM    DATA     BIT       RS1
      00000088H.6 SFRSYM    DATA     BIT       TR1
      000000CAH   SFRSYM    DATA     WORD      CRC
      000000A6H   SFRSYM    DATA     BYTE      INTEXP
      000000FAH   SFRSYM    DATA     BYTE      FCR
      000000D9H   SFRSYM    DATA     BYTE      USBSLP
      00000083H   SFRSYM    DATA     BYTE      DPH
      000000C0H.1 SFRSYM    DATA     BIT       RFF
      000000C0H.3 SFRSYM    DATA     BIT       USBWUF
      00000094H   SFRSYM    DATA     BYTE      P0DIR
      00000082H   SFRSYM    DATA     BYTE      DPL
      00000099H   SFRSYM    DATA     BYTE      S0BUF
      00000095H   SFRSYM    DATA     BYTE      P0ALT
      000000B8H.7 SFRSYM    DATA     BIT       EXEN2
      000000BEH   SFRSYM    DATA     BYTE      SSSTAT
      000000A4H   SFRSYM    DATA     BYTE      PWRDWN
      00000098H   SFRSYM    DATA     BYTE      S0CON
      000000B1H   SFRSYM    DATA     BYTE      RSTRES
      000000C8H   SFRSYM    DATA     BYTE      T2CON
LX51 LINKER/LOCATER V4.64.0.0                                                         09/23/2013  15:07:48  PAGE 59


      00000092H   SFRSYM    DATA     BYTE      DPS
      000000B8H.4 SFRSYM    DATA     BIT       USB
      000000F8H.5 SFRSYM    DATA     BIT       WEN
      000000F8H   SFRSYM    DATA     BYTE      FSR
      000000B8H.2 SFRSYM    DATA     BIT       SPI
      000000F8H.1 SFRSYM    DATA     BIT       RDEND
      000000C9H   SFRSYM    DATA     BYTE      P0EXP
      0000008EH   SFRSYM    DATA     BYTE      CKCON
      000000E8H   SFRSYM    DATA     BYTE      AESCS
      000000F8H.3 SFRSYM    DATA     BIT       INFEN
      000000F8H.7 SFRSYM    DATA     BIT       MCDIS
      000000C0H.5 SFRSYM    DATA     BIT       WUF
      000000E5H   SFRSYM    DATA     BYTE      RFDAT
      000000EFH   SFRSYM    DATA     BYTE      ARCON
      000000D0H.5 SFRSYM    DATA     BIT       F0
      000000D0H.1 SFRSYM    DATA     BIT       F1
      000000F8H.6 SFRSYM    DATA     BIT       STP
      000000F2H   SFRSYM    DATA     BYTE      AESIV
      00000090H   SFRSYM    DATA     BYTE      RFCON
      000000D0H   SFRSYM    DATA     BYTE      PSW
      000000B2H   SFRSYM    DATA     BYTE      SMDAT
      000000ADH   SFRSYM    DATA     BYTE      REGXC
      00000098H.2 SFRSYM    DATA     BIT       RB80
      000000E6H   SFRSYM    DATA     BYTE      RFCTL
      000000D8H   SFRSYM    DATA     BYTE      WDCON
      000000C0H   SFRSYM    DATA     BYTE      IRCON
      00000090H.1 SFRSYM    DATA     BIT       RFCSN
      00000006H   SYMBOL    DATA     BYTE      i
      00000007H   SYMBOL    DATA     BYTE      wrap
      0200804EH   SYMBOL    XDATA    ---       ls5b

      ---         MODULE    ---      ---       LIB_CRYPT
      00000008H   SYMBOL    DATA     ---       aes_counter
      00000001H   SYMBOL    DATA     ---       key
      00000007H   SYMBOL    DATA     BYTE      i
      00000007H   SYMBOL    DATA     BYTE      i

      ---         MODULE    ---      ---       ?C?FPADD
      01000055H   PUBLIC    CODE     ---       ?C?FPADD
      01000051H   PUBLIC    CODE     ---       ?C?FPSUB

      ---         MODULE    ---      ---       ?C?FPMUL
      01000146H   PUBLIC    CODE     ---       ?C?FPMUL

      ---         MODULE    ---      ---       ?C?FPDIV
      0100024FH   PUBLIC    CODE     ---       ?C?FPDIV

      ---         MODULE    ---      ---       ?C?FCAST
      010002F6H   PUBLIC    CODE     ---       ?C?FCASTC
      010002F1H   PUBLIC    CODE     ---       ?C?FCASTI
      010002ECH   PUBLIC    CODE     ---       ?C?FCASTL

      ---         MODULE    ---      ---       ?C?CASTF
      0100032AH   PUBLIC    CODE     ---       ?C?CASTF

      ---         MODULE    ---      ---       ?C?FPGETOPN
      01000361H   PUBLIC    CODE     ---       ?C?FPGETOPN2
      01000396H   PUBLIC    CODE     ---       ?C?FPNANRESULT
      010003A0H   PUBLIC    CODE     ---       ?C?FPOVERFLOW
      01000378H   PUBLIC    CODE     ---       ?C?FPRESULT
      0100038CH   PUBLIC    CODE     ---       ?C?FPRESULT2
      0100039DH   PUBLIC    CODE     ---       ?C?FPUNDERFLOW

      ---         MODULE    ---      ---       ?C_STARTUP
      01000000H   PUBLIC    CODE     ---       ?C_STARTUP
LX51 LINKER/LOCATER V4.64.0.0                                                         09/23/2013  15:07:48  PAGE 60



      ---         MODULE    ---      ---       ?C?CLDPTR
      010003ABH   PUBLIC    CODE     ---       ?C?CLDPTR

      ---         MODULE    ---      ---       ?C?CLDOPTR
      010003C4H   PUBLIC    CODE     ---       ?C?CLDOPTR

      ---         MODULE    ---      ---       ?C?CSTPTR
      010003F1H   PUBLIC    CODE     ---       ?C?CSTPTR

      ---         MODULE    ---      ---       ?C?CSTOPTR
      01000403H   PUBLIC    CODE     ---       ?C?CSTOPTR

      ---         MODULE    ---      ---       ?C?IMUL
      01000425H   PUBLIC    CODE     ---       ?C?IMUL

      ---         MODULE    ---      ---       ?C?UIDIV
      01000437H   PUBLIC    CODE     ---       ?C?UIDIV

      ---         MODULE    ---      ---       ?C?LNEG
      0100048CH   PUBLIC    CODE     ---       ?C?LNEG

      ---         MODULE    ---      ---       ?C?COPYE2
      01000556H   PUBLIC    CODE     ---       ?C?COPYE2

      ---         MODULE    ---      ---       ?C_INIT
      010005C3H   PUBLIC    CODE     ---       ?C_START



FUNCTION REGISTER MASKS


FUNCTION . . . . . . . . . . . . . . . REG MASK
================================================

_aes_data_read_buf . . . . . . . . . . @0x1e0008af
_aes_data_write_buf. . . . . . . . . . @0x1e0008af
_aes_initvect_write_buf. . . . . . . . @0x1e0008af
_aes_keyin_write_buf . . . . . . . . . @0x1e0008af
_aes_select_e_d. . . . . . . . . . . . @0x18000880
_aes_set_mode. . . . . . . . . . . . . @0x18000880
_delay_ms. . . . . . . . . . . . . . . @0x080008f0
_delay_us. . . . . . . . . . . . . . . @0x080008c0
_gzll_delay_50us . . . . . . . . . . . @0x180008f4
_gzll_get_channels . . . . . . . . . . @0x3e000cff
_gzll_get_param. . . . . . . . . . . . @0x1e0008c0
_hal_aes_get_dec_key . . . . . . . . . @0x1e0008ff
_hal_nrf_read_reg. . . . . . . . . . . @0x08000880
_hal_nrf_rw. . . . . . . . . . . . . . @0x08000080
_hal_nrf_write_multibyte_reg . . . . . @0x1e00086f
_hal_nrf_write_reg . . . . . . . . . . @0x18000880
_lib_crypt_generate_ls5b . . . . . . . @0x1e0008cf
_lib_crypt_set_counter . . . . . . . . @0x1e0008cf
aes_busy . . . . . . . . . . . . . . . @0x08000880
aes_go . . . . . . . . . . . . . . . . @0x80000000
gzll_get_channel_tab_size. . . . . . . @0x0e000880
gzll_get_state . . . . . . . . . . . . @0x0e000880
gzll_get_tx_attempts . . . . . . . . . @0x0e0008c0
gzll_get_tx_channel_switches . . . . . @0x0e0008c0
gzll_radio_active. . . . . . . . . . . @0x18000880
gzll_rx_fifo_flush . . . . . . . . . . @0x1e000880
gzll_rx_power_high . . . . . . . . . . @0x18000880
gzll_tx_fifo_flush . . . . . . . . . . @0x18000880
gzll_tx_success. . . . . . . . . . . . @0x18000880
LX51 LINKER/LOCATER V4.64.0.0                                                         09/23/2013  15:07:48  PAGE 61


hal_nrf_activate_features. . . . . . . @0x80000000
hal_nrf_flush_rx . . . . . . . . . . . @0x08000080
hal_nrf_flush_tx . . . . . . . . . . . @0x08000080
hal_nrf_nop. . . . . . . . . . . . . . @0x08000080
hal_nrf_reuse_tx . . . . . . . . . . . @0x08000080
mcu_init . . . . . . . . . . . . . . . @0x80000000

Program Size: data=98.0 xdata=85 const=37 code=5109
LX51 RUN COMPLETE.  0 WARNING(S),  0 ERROR(S)
