LX51 LINKER/LOCATER V4.64.0.0                                                           09/06/2013  01:48:08  PAGE 1


LX51 LINKER/LOCATER V4.64.0.0, INVOKED BY:
C:\KEIL\C51\BIN\LX51.EXE .\build\main.obj, .\build\gzll_timer_isr.obj, .\build\gzll_mcu.obj, .\build\gzll_radio_isr.obj,
>>  .\build\gzll.obj, .\build\gzp_host.obj, .\build\gzp.obj, .\build\gzp_host_le1.obj, .\build\hal_nrf_hw.obj, .\build\h
>> al_rtc.obj, .\build\hal_nrf.obj, .\build\hal_clk.obj, .\build\hal_aes.obj, .\build\hal_flash.obj, .\build\hal_rng.obj
>> , .\build\hal_delay.obj TO .\build\gzll_host_w_dyn_pair_nrf24le1 REGFILE (.\build\gzll_host_w_dyn_pair_nrf24le1.ORC) 
>> PRINT (.\lst\gzll_host_w_dyn_pair_nrf24le1.map) WARNINGLEVEL (0) REMOVEUNUSED OVERLAY (?PR?_HAL_NRF_WRITE_REG?HAL_NRF
>>  ! *, ?PR?_HAL_NRF_READ_MULTIBYTE_REG?HAL_NRF ! *, ?PR?_GZLL_SET_TIMER_PERIOD?GZLL_MCU ! *, ?PR?_HAL_NRF_SET_POWER_MO
>> DE?HAL_NRF ! *, ?PR?_HAL_NRF_SET_RF_CHANNEL?HAL_NRF ! *, ?PR?_HAL_NRF_SET_AUTO_RETR?HAL_NRF ! *, ?PR?_GZLL_START_NEW_
>> TX?GZLL ! *, ?PR?_GZLL_LFSR_GET?GZLL ! *) CLASSES (XDATA (X:0X0-X:0X3FF), HDATA (X:0X0-X:0X3FF), CODE (C:0X0-C:0X3FFF
>> ), CONST (C:0X0-C:0X3FFF), ECODE (C:0X0-C:0X3FFF), HCONST (C:0X0-C:0X3FFF))


CPU MODE:     8051 MODE
MEMORY MODEL: LARGE WITH FLOATING POINT ARITHMETIC


INPUT MODULES INCLUDED:
  .\build\main.obj (MAIN)
         COMMENT TYPE 0: C51 V9.51
  .\build\gzll_timer_isr.obj (GZLL_TIMER_ISR)
         COMMENT TYPE 0: C51 V9.51
  .\build\gzll_mcu.obj (GZLL_MCU)
         COMMENT TYPE 0: C51 V9.51
  .\build\gzll_radio_isr.obj (GZLL_RADIO_ISR)
         COMMENT TYPE 0: C51 V9.51
  .\build\gzll.obj (GZLL)
         COMMENT TYPE 0: C51 V9.51
  .\build\gzp_host.obj (GZP_HOST)
         COMMENT TYPE 0: C51 V9.51
  .\build\gzp.obj (GZP)
         COMMENT TYPE 0: C51 V9.51
  .\build\gzp_host_le1.obj (GZP_HOST_LE1)
         COMMENT TYPE 0: C51 V9.51
  .\build\hal_nrf_hw.obj (HAL_NRF_HW)
         COMMENT TYPE 0: C51 V9.51
  .\build\hal_rtc.obj (HAL_RTC)
         COMMENT TYPE 0: C51 V9.51
  .\build\hal_nrf.obj (HAL_NRF)
         COMMENT TYPE 0: C51 V9.51
  .\build\hal_clk.obj (HAL_CLK)
         COMMENT TYPE 0: C51 V9.51
  .\build\hal_aes.obj (HAL_AES)
         COMMENT TYPE 0: C51 V9.51
  .\build\hal_flash.obj (HAL_FLASH)
         COMMENT TYPE 0: C51 V9.51
  .\build\hal_rng.obj (HAL_RNG)
         COMMENT TYPE 0: C51 V9.51
  .\build\hal_delay.obj (HAL_DELAY)
         COMMENT TYPE 0: C51 V9.51
  C:\KEIL\C51\LIB\C51FPL.LIB (?C?FPADD)
         COMMENT TYPE 1: A51 / ASM51 Assembler
  C:\KEIL\C51\LIB\C51FPL.LIB (?C?FPMUL)
         COMMENT TYPE 1: A51 / ASM51 Assembler
  C:\KEIL\C51\LIB\C51FPL.LIB (?C?FPDIV)
         COMMENT TYPE 1: A51 / ASM51 Assembler
  C:\KEIL\C51\LIB\C51FPL.LIB (?C?FCAST)
         COMMENT TYPE 1: A51 / ASM51 Assembler
  C:\KEIL\C51\LIB\C51FPL.LIB (?C?CASTF)
         COMMENT TYPE 1: A51 / ASM51 Assembler
  C:\KEIL\C51\LIB\C51FPL.LIB (?C?FPGETOPN)
         COMMENT TYPE 1: A51 / ASM51 Assembler
  C:\KEIL\C51\LIB\C51L.LIB (?C_STARTUP)
         COMMENT TYPE 1: A51 / ASM51 Assembler
  C:\KEIL\C51\LIB\C51L.LIB (?C?CLDPTR)
         COMMENT TYPE 1: A51 / ASM51 Assembler
  C:\KEIL\C51\LIB\C51L.LIB (?C?CLDOPTR)
LX51 LINKER/LOCATER V4.64.0.0                                                         09/06/2013  01:48:08  PAGE 2


         COMMENT TYPE 1: A51 / ASM51 Assembler
  C:\KEIL\C51\LIB\C51L.LIB (?C?CILDOPTR)
         COMMENT TYPE 1: A51 / ASM51 Assembler
  C:\KEIL\C51\LIB\C51L.LIB (?C?CSTPTR)
         COMMENT TYPE 1: A51 / ASM51 Assembler
  C:\KEIL\C51\LIB\C51L.LIB (?C?CSTOPTR)
         COMMENT TYPE 1: A51 / ASM51 Assembler
  C:\KEIL\C51\LIB\C51L.LIB (?C?IMUL)
         COMMENT TYPE 1: A51 / ASM51 Assembler
  C:\KEIL\C51\LIB\C51L.LIB (?C?UIDIV)
         COMMENT TYPE 1: A51 / ASM51 Assembler
  C:\KEIL\C51\LIB\C51L.LIB (?C?IILDX)
         COMMENT TYPE 1: A51 / ASM51 Assembler
  C:\KEIL\C51\LIB\C51L.LIB (?C?ILDIX)
         COMMENT TYPE 1: A51 / ASM51 Assembler
  C:\KEIL\C51\LIB\C51L.LIB (?C?LNEG)
         COMMENT TYPE 1: A51 / ASM51 Assembler
  C:\KEIL\C51\LIB\C51L.LIB (?C?MEMCMPE2)
         COMMENT TYPE 1: A51 / ASM51 Assembler
  C:\KEIL\C51\LIB\C51L.LIB (?C?COPYE2)
         COMMENT TYPE 1: A51 / ASM51 Assembler
  C:\KEIL\C51\LIB\C51L.LIB (?C_INIT)
         COMMENT TYPE 1: A51 / ASM51 Assembler


ACTIVE MEMORY CLASSES OF MODULE:  .\build\gzll_host_w_dyn_pair_nrf24le1 (MAIN)

BASE        START       END         USED      MEMORY CLASS
==========================================================
X:000000H   X:000000H   X:0003FFH   00012FH   XDATA
X:000000H   X:000000H   X:0003FFH             HDATA
C:000000H   C:000000H   C:003FFFH   002ADAH   CODE
C:000000H   C:000000H   C:003FFFH   000148H   CONST
C:000000H   C:000000H   C:003FFFH             ECODE
B00:0000H   C:000000H   C:003FFFH             HCONST
I:000000H   I:000000H   I:00007FH   00001AH   DATA
X:000000H   X:000000H   X:0000FFH   000010H   PDATA
I:000000H   I:000000H   I:0000FFH   000001H   IDATA


MEMORY MAP OF MODULE:  .\build\gzll_host_w_dyn_pair_nrf24le1 (MAIN)


START     STOP      LENGTH    ALIGN  RELOC    MEMORY CLASS   SEGMENT NAME
=========================================================================

* * * * * * * * * * *   D A T A   M E M O R Y   * * * * * * * * * * * * *
000000H   000007H   000008H   ---    AT..     DATA           "REG BANK 0"
000008H   000017H   000010H   BYTE   UNIT     DATA           _DATA_GROUP_
000018H   00001FH   000008H   ---    ---      **GAP**
000020H   000021H   000002H   BYTE   BITADDR  DATA           ?BA?GZLL
000022H   000022H   000001H   BYTE   UNIT     IDATA          ?STACK

* * * * * * * * * * *   C O D E   M E M O R Y   * * * * * * * * * * * * *
000000H   000002H   000003H   ---    OFFS..   CODE           ?CO??C_STARTUP?0
000003H   00004AH   000048H   ---    ---      **GAP**
00004BH   00004DH   000003H   BYTE   OFFS..   CODE           ?GZLL_RADIO_ISR?0004B
00004EH   00006AH   00001DH   ---    ---      **GAP**
00006BH   00006DH   000003H   BYTE   OFFS..   CODE           ?GZLL_TIMER_ISR?0006B
00006EH   00077CH   00070FH   BYTE   UNIT     CODE           ?C?LIB_CODE
00077DH   000808H   00008CH   BYTE   UNIT     CODE           ?C_C51STARTUP
000809H   00083AH   000032H   BYTE   UNIT     CODE           ?C_INITSEG
00083BH   000945H   00010BH   BYTE   UNIT     CONST          ?CO?HAL_AES
000946H   00096AH   000025H   BYTE   UNIT     CONST          ?CO?GZLL
00096BH   000982H   000018H   BYTE   UNIT     CONST          ?CO?GZP
LX51 LINKER/LOCATER V4.64.0.0                                                         09/06/2013  01:48:08  PAGE 3


000983H   0009F9H   000077H   BYTE   INBLOCK  CODE           ?PR?MAIN?MAIN
0009FAH   000A57H   00005EH   BYTE   INBLOCK  CODE           ?PR?_GZLL_SET_PARAM?GZLL
000A58H   000A62H   00000BH   BYTE   INBLOCK  CODE           ?PR?GZLL_INTERUPTS_ENABLE_RFCK_DISABLE?GZLL
000A63H   000B56H   0000F4H   BYTE   INBLOCK  CODE           ?PR?_GZP_PROCESS_ADDRESS_REQ?GZP_HOST
000B57H   000BC5H   00006FH   BYTE   INBLOCK  CODE           ?PR?GZLL_RX_START?GZLL
000BC6H   000BE9H   000024H   BYTE   INBLOCK  CODE           ?PR?_GZLL_GET_PARAM?GZLL
000BEAH   000C32H   000049H   BYTE   INBLOCK  CODE           ?PR?_GZP_PAIRING_ENABLE?GZP_HOST
000C33H   000CD0H   00009EH   BYTE   INBLOCK  CODE           ?PR?GZP_HOST_EXECUTE?GZP_HOST
000CD1H   000CF2H   000022H   BYTE   INBLOCK  CODE           ?PR?GZP_SESSION_COUNTER_INC?GZP_HOST
000CF3H   000D83H   000091H   BYTE   INBLOCK  CODE           ?PR?_GZLL_RX_FIFO_READ?GZLL
000D84H   000D89H   000006H   BYTE   INBLOCK  CODE           ?PR?GZLL_GET_STATE?GZLL
000D8AH   000D97H   00000EH   BYTE   INBLOCK  CODE           ?PR?GZLL_RX_FIFO_FLUSH?GZLL
000D98H   000DB2H   00001BH   BYTE   INBLOCK  CODE           ?PR?GZLL_INTERUPTS_DISABLE_RFCK_ENABLE?GZLL
000DB3H   000DD2H   000020H   BYTE   INBLOCK  CODE           ?PR?GZLL_GOTO_IDLE?GZLL
000DD3H   000F24H   000152H   BYTE   INBLOCK  CODE           ?PR?GZLL_INIT?GZLL
000F25H   000F7CH   000058H   BYTE   INBLOCK  CODE           ?PR?_HAL_NRF_SET_ADDRESS?HAL_NRF
000F7DH   000FA7H   00002BH   BYTE   INBLOCK  CODE           ?PR?GZLL_GET_RX_DATA_READY_PIPE_NUMBER?GZLL
000FA8H   000FE0H   000039H   BYTE   INBLOCK  CODE           ?PR?GZP_INIT?GZP_HOST
000FE1H   000FE7H   000007H   BYTE   INBLOCK  CODE           ?PR?GZLL_TX_FIFO_FLUSH?GZLL
000FE8H   00177EH   000797H   ---    ---      **GAP**
00177FH   0017C3H   000045H   BYTE   INBLOCK  CODE           ?PR?_GZLL_ACK_PAYLOAD_WRITE?GZLL
0017C4H   0017F0H   00002DH   BYTE   INBLOCK  CODE           ?PR?_GZP_PRELOAD_ACK?GZP_HOST
0017F1H   0017FAH   00000AH   BYTE   INBLOCK  CODE           ?PR?HAL_NRF_FLUSH_RX?HAL_NRF
*** OVERLAP ***
0017F0H   0017F9H   00000AH   BYTE   INBLOCK  CODE           ?PR?HAL_NRF_FLUSH_TX?HAL_NRF
*** OVERLAP ***
0017FAH   0017FEH   000005H   BYTE   INBLOCK  CODE           ?PR?HAL_NRF_READ_RX_PAYLOAD_WIDTH?HAL_NRF
0017FFH   0017FFH   000001H   ---    ---      **GAP**
001800H   001809H   00000AH   BYTE   INBLOCK  CODE           ?PR?_HAL_NRF_RW?HAL_NRF_HW
00180AH   0019FFH   0001F6H   BYTE   INBLOCK  CODE           ?PR?_HAL_NRF_READ_MULTIBYTE_REG?HAL_NRF
001A00H   001A48H   000049H   BYTE   INBLOCK  CODE           ?PR?TICK_ISR?GZLL_TIMER_ISR
001A49H   001A51H   000009H   BYTE   INBLOCK  CODE           ?PR?HAL_NRF_GET_ADDRESS_WIDTH?HAL_NRF
001A52H   001A5EH   00000DH   BYTE   INBLOCK  CODE           ?PR?HAL_NRF_GET_RX_DATA_SOURCE?HAL_NRF
001A5FH   001A67H   000009H   BYTE   INBLOCK  CODE           ?PR?HAL_NRF_NOP?HAL_NRF
001A68H   001A85H   00001EH   BYTE   INBLOCK  CODE           ?PR?_HAL_NRF_READ_REG?HAL_NRF
001A86H   001AD9H   000054H   BYTE   INBLOCK  CODE           ?PR?_HAL_NRF_CLOSE_PIPE?HAL_NRF
001ADAH   001AFFH   000026H   BYTE   INBLOCK  CODE           ?PR?_HAL_NRF_WRITE_REG?HAL_NRF
001B00H   001B89H   00008AH   BYTE   INBLOCK  CODE           ?PR?_HAL_NRF_OPEN_PIPE?HAL_NRF
001B8AH   001BB5H   00002CH   BYTE   INBLOCK  CODE           ?PR?_HAL_NRF_SET_POWER_MODE?HAL_NRF
001BB6H   001BD1H   00001CH   BYTE   INBLOCK  CODE           ?PR?_GZLL_SET_RADIO_POWER_ON?GZLL
001BD2H   001D01H   000130H   BYTE   INBLOCK  CODE           ?PR?GZLL_TIMER_ISR_FUNCTION?GZLL
001D02H   001D1AH   000019H   BYTE   INBLOCK  CODE           ?PR?_DELAY_US?HAL_DELAY
001D1BH   001D35H   00001BH   BYTE   INBLOCK  CODE           ?PR?GZLL_CHM_GET_CURRENT_RX_CHANNEL?GZLL
001D36H   001D66H   000031H   BYTE   INBLOCK  CODE           ?PR?GZLL_SET_SYSTEM_IDLE?GZLL
001D67H   001F2DH   0001C7H   BYTE   INBLOCK  CODE           ?PR?GZLL_RADIO_ISR_FUNCTION?GZLL
001F2EH   001F4FH   000022H   BYTE   INBLOCK  CODE           ?PR?HAL_NRF_CLEAR_IRQ_FLAGS_GET_STATUS?HAL_NRF
001F50H   001F58H   000009H   BYTE   INBLOCK  CODE           ?PR?HAL_NRF_GET_TRANSMIT_ATTEMPTS?HAL_NRF
001F59H   001F61H   000009H   BYTE   INBLOCK  CODE           ?PR?HAL_NRF_GET_CARRIER_DETECT?HAL_NRF
001F62H   001F6BH   00000AH   BYTE   INBLOCK  CODE           ?PR?HAL_NRF_TX_FIFO_EMPTY?HAL_NRF
001F6CH   001F7FH   000014H   BYTE   INBLOCK  CODE           ?PR?_HAL_NRF_SET_RF_CHANNEL?HAL_NRF
001F80H   001F97H   000018H   BYTE   INBLOCK  CODE           ?PR?GZLL_CHM_HOLD_RX_CHANNEL?GZLL
001F98H   001FBCH   000025H   BYTE   INBLOCK  CODE           ?PR?_HAL_NRF_SET_OUTPUT_POWER?HAL_NRF
001FBDH   001FE8H   00002CH   BYTE   INBLOCK  CODE           ?PR?_HAL_NRF_SET_OPERATION_MODE?HAL_NRF
001FE9H   001FECH   000004H   BYTE   INBLOCK  CODE           ?PR?_HAL_NRF_READ_RX_PAYLOAD?HAL_NRF
001FEDH   001FF5H   000009H   BYTE   INBLOCK  CODE           ?PR?HAL_NRF_RX_FIFO_EMPTY?HAL_NRF
001FF6H   001FFFH   00000AH   BYTE   INBLOCK  CODE           ?PR?HAL_CLK_GET_16M_SOURCE?HAL_CLK
002000H   002038H   000039H   BYTE   INBLOCK  CODE           ?PR?GZLL_CHM_GET_TX_CE_OFFSET?GZLL
002039H   00204BH   000013H   BYTE   INBLOCK  CODE           ?PR?MCU_INIT?GZLL_MCU
00204CH   002096H   00004BH   BYTE   INBLOCK  CODE           ?PR?_GZLL_SET_TIMER_PERIOD?GZLL_MCU
002097H   0020AAH   000014H   BYTE   INBLOCK  CODE           ?PR?_HAL_RTC_SET_COMPARE_VALUE?HAL_RTC
0020ABH   0020B5H   00000BH   BYTE   INBLOCK  CODE           ?PR?_HAL_RTC_START?HAL_RTC
0020B6H   0020C1H   00000CH   BYTE   INBLOCK  CODE           ?PR?_HAL_CLKLF_SET_SOURCE?HAL_CLK
0020C2H   0020CFH   00000EH   BYTE   INBLOCK  CODE           ?PR?_HAL_RTC_SET_COMPARE_MODE?HAL_RTC
0020D0H   0020DFH   000010H   BYTE   INBLOCK  CODE           ?PR?_HAL_CLK_REGRET_XOSC16M_ON?HAL_CLK
0020E0H   002129H   00004AH   BYTE   INBLOCK  CODE           ?PR?NRF_ISR?GZLL_RADIO_ISR
LX51 LINKER/LOCATER V4.64.0.0                                                         09/06/2013  01:48:08  PAGE 4


00212AH   00212FH   000006H   BYTE   INBLOCK  CODE           ?PR?GZLL_GET_CHANNEL_TAB_SIZE?GZLL
002130H   0021CEH   00009FH   BYTE   INBLOCK  CODE           ?PR?_GZP_UPDATE_RADIO_PARAMS?GZP
0021CFH   0021FDH   00002FH   BYTE   INBLOCK  CODE           ?PR?_GZLL_SET_CHANNELS?GZLL
0021FEH   00223AH   00003DH   BYTE   INBLOCK  CODE           ?PR?_GZLL_SET_ADDRESS?GZLL
00223BH   002302H   0000C8H   BYTE   INBLOCK  CODE           ?PR?_GZP_GENERATE_CHANNELS?GZP
002303H   002308H   000006H   BYTE   INBLOCK  CODE           ?PR?GZLL_RX_POWER_HIGH?GZLL
002309H   002341H   000039H   BYTE   INBLOCK  CODE           ?PR?_GZLL_LFSR_GET?GZLL
002342H   0023D3H   000092H   BYTE   INBLOCK  CODE           ?PR?_GZLL_START_NEW_TX?GZLL
0023D4H   0023F0H   00001DH   BYTE   INBLOCK  CODE           ?PR?GZLL_SET_RADIO_AUTO_RETRIES?GZLL
0023F1H   002411H   000021H   BYTE   INBLOCK  CODE           ?PR?_HAL_NRF_SET_AUTO_RETR?HAL_NRF
002412H   002423H   000012H   BYTE   INBLOCK  CODE           ?PR?GZLL_RELOAD_TRIES_PR_CHANNEL_COUNTER?GZLL
002424H   00244AH   000027H   BYTE   INBLOCK  CODE           ?PR?GZLL_CHM_GET_NEXT_RX_CHANNEL?GZLL
00244BH   002469H   00001FH   BYTE   INBLOCK  CODE           ?PR?_GZLL_DELAY_50US?GZLL
00246AH   0024CFH   000066H   BYTE   INBLOCK  CODE           ?PR?GZLL_CHM_EXECUTE?GZLL
0024D0H   0024DFH   000010H   BYTE   INBLOCK  CODE           ?PR?GZLL_CHM_RESET_RX_CHANNEL_INDEX?GZLL
0024E0H   00256EH   00008FH   BYTE   INBLOCK  CODE           ?PR?GZLL_CHM_GET_RX_CE_OFFSET?GZLL
00256FH   00257CH   00000EH   BYTE   INBLOCK  CODE           ?PR?GZP_CRYPT_USER_DATA_RECEIVED?GZP_HOST
00257DH   0025D4H   000058H   BYTE   INBLOCK  CODE           ?PR?_GZP_CRYPT_USER_DATA_READ?GZP_HOST
0025D5H   0025DFH   00000BH   BYTE   INBLOCK  CODE           ?PR?GZP_ID_REQ_RECEIVED?GZP_HOST
0025E0H   0026B3H   0000D4H   BYTE   INBLOCK  CODE           ?PR?_GZP_PROCESS_ENCRYPTED_USER_DATA?GZP_HOST
0026B4H   0026DFH   00002CH   BYTE   INBLOCK  CODE           ?PR?GZP_PROCESS_KEY_UPDATE_PREPARE?GZP_HOST
0026E0H   0026ECH   00000DH   BYTE   INBLOCK  CODE           ?PR?_GZP_CRYPT_SET_SESSION_TOKEN?GZP
0026EDH   00276DH   000081H   BYTE   INBLOCK  CODE           ?PR?_GZP_PROCESS_ID_REQ?GZP_HOST
00276EH   002794H   000027H   BYTE   INBLOCK  CODE           ?PR?_GZP_GET_SESSION_COUNTER?GZP_HOST
002795H   00279AH   000006H   BYTE   INBLOCK  CODE           ?PR?_GZP_CRYPT_SELECT_KEY?GZP
00279BH   0027A6H   00000CH   BYTE   INBLOCK  CODE           ?PR?GZP_ID_REQ_GRANT?GZP_HOST
0027A7H   0027CDH   000027H   BYTE   INBLOCK  CODE           ?PR?_GZP_ADD_VALIDATION_ID?GZP
0027CEH   0027F7H   00002AH   BYTE   INBLOCK  CODE           ?PR?_GZP_GET_HOST_ID?GZP_HOST
0027F8H   0027FFH   000008H   ---    ---      **GAP**
002800H   00282EH   00002FH   BYTE   INBLOCK  CODE           ?PR?_GZP_SET_HOST_ID?GZP_HOST
00282FH   002841H   000013H   BYTE   INBLOCK  CODE           ?PR?_HAL_FLASH_BYTE_READ?HAL_FLASH
002842H   0028CEH   00008DH   BYTE   INBLOCK  CODE           ?PR?_GZP_HOST_CHIP_ID_READ?GZP_HOST_LE1
0028CFH   0028EEH   000020H   BYTE   INBLOCK  CODE           ?PR?_HAL_FLASH_BYTE_WRITE?HAL_FLASH
0028EFH   0028F9H   00000BH   BYTE   INBLOCK  CODE           ?PR?_HAL_RNG_POWER_UP?HAL_RNG
0028FAH   0028FCH   000003H   BYTE   INBLOCK  CODE           ?PR?HAL_RNG_READ?HAL_RNG
0028FDH   00290DH   000011H   BYTE   INBLOCK  CODE           ?PR?HAL_RNG_DATA_READY?HAL_RNG
00290EH   002967H   00005AH   BYTE   INBLOCK  CODE           ?PR?_HAL_FLASH_BYTES_WRITE?HAL_FLASH
002968H   002A25H   0000BEH   BYTE   INBLOCK  CODE           ?PR?_GZP_PROCESS_ID_FETCH?GZP_HOST
002A26H   002B24H   0000FFH   BYTE   INBLOCK  CODE           ?PR?_GZP_CRYPT?GZP
002B25H   002B8BH   000067H   BYTE   INBLOCK  CODE           ?PR?_GZP_XOR_CIPHER?GZP
002B8CH   002B93H   000008H   BYTE   INBLOCK  CODE           ?PR?_HAL_AES_SETUP?HAL_AES
002B94H   002BCCH   000039H   BYTE   INBLOCK  CODE           ?PR?_AES_SET_KEY?HAL_AES
002BCDH   002C0DH   000041H   BYTE   INBLOCK  CODE           ?PR?_GZP_VALIDATE_ID?GZP
002C0EH   002C6EH   000061H   BYTE   INBLOCK  CODE           ?PR?_GZP_PROCESS_KEY_UPDATE?GZP_HOST
002C6FH   002D1AH   0000ACH   BYTE   INBLOCK  CODE           ?PR?_HAL_AES_CRYPT?HAL_AES
002D1BH   002DD0H   0000B6H   BYTE   INBLOCK  CODE           ?PR?_KEY_UPGRADE?HAL_AES
002DD1H   002F0FH   00013FH   BYTE   INBLOCK  CODE           ?PR?_ADD_SUB_SHIFT?HAL_AES
002F10H   002F1CH   00000DH   BYTE   INBLOCK  CODE           ?PR?_GZP_CRYPT_SET_DYN_KEY?GZP
002F1DH   002F64H   000048H   BYTE   INBLOCK  CODE           ?PR?_HAL_NRF_SET_CRC_MODE?HAL_NRF
002F65H   002F70H   00000CH   BYTE   INBLOCK  CODE           ?PR?HAL_NRF_GET_CLEAR_IRQ_FLAGS?HAL_NRF
002F71H   002F87H   000017H   BYTE   INBLOCK  CODE           ?PR?_HAL_NRF_SET_ADDRESS_WIDTH?HAL_NRF
002F88H   002FC6H   00003FH   BYTE   INBLOCK  CODE           ?PR?_HAL_NRF_SET_DATARATE?HAL_NRF
002FC7H   002FD2H   00000CH   BYTE   INBLOCK  CODE           ?PR?HAL_NRF_TX_FIFO_FULL?HAL_NRF
002FD3H   002FE0H   00000EH   BYTE   INBLOCK  CODE           ?PR?_HAL_NRF_SETUP_DYNAMIC_PAYLOAD?HAL_NRF
002FE1H   002FEEH   00000EH   BYTE   INBLOCK  CODE           ?PR?_HAL_NRF_WRITE_ACK_PAYLOAD?HAL_NRF
002FEFH   002FFFH   000011H   ---    ---      **GAP**
003000H   00302FH   000030H   BYTE   INBLOCK  CODE           ?PR?_HAL_NRF_ENABLE_DYNAMIC_PAYLOAD?HAL_NRF
003030H   00305DH   00002EH   BYTE   INBLOCK  CODE           ?PR?_HAL_NRF_ENABLE_ACK_PAYLOAD?HAL_NRF
00305EH   003169H   00010CH   BYTE   INBLOCK  CODE           ?PR?_HAL_NRF_WRITE_MULTIBYTE_REG?HAL_NRF
00316AH   003257H   0000EEH   BYTE   INBLOCK  CODE           ?PR?_ADD_KEY?HAL_AES
003258H   003407H   0001B0H   BYTE   INBLOCK  CODE           ?PR?_MIX_COLUMNS_HW?HAL_AES
003408H   00342CH   000025H   BYTE   INBLOCK  CODE           ?PR?_HAL_FLASH_BYTES_READ?HAL_FLASH

* * * * * * * * * * *  X D A T A   M E M O R Y  * * * * * * * * * * * * *
000000H   00000FH   000010H   BYTE   INPAGE   PDATA          ?PD?HAL_AES
LX51 LINKER/LOCATER V4.64.0.0                                                         09/06/2013  01:48:08  PAGE 5


000010H   00008CH   00007DH   BYTE   UNIT     XDATA          _XDATA_GROUP_
00008DH   0000DAH   00004EH   BYTE   UNIT     XDATA          ?XD?GZLL
0000DBH   0000F0H   000016H   BYTE   UNIT     XDATA          ?XD?GZP_HOST
0000F1H   000103H   000013H   BYTE   UNIT     XDATA          ?XD?GZP
000104H   000115H   000012H   BYTE   UNIT     XDATA          ?XD?GZP_HOST_LE1
000116H   000125H   000010H   BYTE   UNIT     XDATA          ?XD?HAL_AES
000126H   000131H   00000CH   BYTE   UNIT     XDATA          ?XD?_HAL_NRF_READ_MULTIBYTE_REG?HAL_NRF
000132H   000135H   000004H   BYTE   UNIT     XDATA          ?XD?HAL_FLASH
000136H   000137H   000002H   BYTE   UNIT     XDATA          ?XD?_GZLL_SET_TIMER_PERIOD?GZLL_MCU
000138H   000139H   000002H   BYTE   UNIT     XDATA          ?XD?_GZLL_START_NEW_TX?GZLL
00013AH   00013BH   000002H   BYTE   UNIT     XDATA          ?XD?_HAL_NRF_SET_POWER_MODE?HAL_NRF
00013CH   00013CH   000001H   BYTE   UNIT     XDATA          ?XD?_HAL_NRF_SET_AUTO_RETR?HAL_NRF
00013DH   00013DH   000001H   BYTE   UNIT     XDATA          ?XD?_HAL_NRF_SET_RF_CHANNEL?HAL_NRF
00013EH   00013EH   000001H   BYTE   UNIT     XDATA          ?XD?_HAL_NRF_WRITE_REG?HAL_NRF

* * * * * * * * *   R E M O V E D     S E G M E N T S   * * * * * * * *
   *DEL*:           00002DH   BYTE   INBLOCK  CODE           ?PR?_GZLL_GET_PARAM_MAX?GZLL
   *DEL*:           000021H   BYTE   UNIT     XDATA          ?XD?_GZLL_GET_PARAM_MAX?GZLL
   *DEL*:           00002AH   BYTE   INBLOCK  CODE           ?PR?_GZLL_GET_CHANNELS?GZLL
   *DEL*:           000003H   BYTE   UNIT     XDATA          ?XD?_GZLL_GET_CHANNELS?GZLL
   *DEL*:           00000DH   BYTE   INBLOCK  CODE           ?PR?_GZLL_GET_ADDRESS?GZLL
   *DEL*:           000194H   BYTE   INBLOCK  CODE           ?PR?_GZLL_TX_DATA?GZLL
   *DEL*:           00000DH   BYTE   UNIT     XDATA          ?XD?_GZLL_TX_DATA?GZLL
   *DEL*:           000029H   BYTE   INBLOCK  CODE           ?PR?GZLL_DEV_MODE2_RX_CHANNEL_MATCH?GZLL
   *DEL*:           000006H   BYTE   INBLOCK  CODE           ?PR?GZLL_TX_SUCCESS?GZLL
   *DEL*:           000009H   BYTE   INBLOCK  CODE           ?PR?GZLL_GET_TX_ATTEMPTS?GZLL
   *DEL*:           000009H   BYTE   INBLOCK  CODE           ?PR?GZLL_GET_TX_CHANNEL_SWITCHES?GZLL
   *DEL*:           000006H   BYTE   INBLOCK  CODE           ?PR?GZLL_RADIO_ACTIVE?GZLL
   *DEL*:           000021H   BYTE   INBLOCK  CODE           ?PR?_GZLL_RX_DATA_READY?GZLL
   *DEL*:           000001H   BYTE   UNIT     XDATA          ?XD?_GZLL_RX_DATA_READY?GZLL
   *DEL*:           000006H   BYTE   INBLOCK  CODE           ?PR?GZP_ADDRESS_EXCHANGED?GZP_HOST
   *DEL*:           00000DH   BYTE   INBLOCK  CODE           ?PR?GZP_ID_REQ_REJECT?GZP_HOST
   *DEL*:           00000CH   BYTE   INBLOCK  CODE           ?PR?GZP_ID_REQ_CANCEL?GZP_HOST
   *DEL*:           000027H   BYTE   INBLOCK  CODE           ?PR?_GZP_CRYPT_GET_SESSION_TOKEN?GZP
   *DEL*:           000003H   BYTE   UNIT     XDATA          ?XD?_GZP_CRYPT_GET_SESSION_TOKEN?GZP
   *DEL*:           000027H   BYTE   INBLOCK  CODE           ?PR?_GZP_CRYPT_GET_DYN_KEY?GZP
   *DEL*:           000003H   BYTE   UNIT     XDATA          ?XD?_GZP_CRYPT_GET_DYN_KEY?GZP
   *DEL*:           000004H   BYTE   INBLOCK  CODE           ?PR?HAL_RTC_CAPTURE?HAL_RTC
   *DEL*:           00000BH   BYTE   INBLOCK  CODE           ?PR?_HAL_RTC_RADIO_CAPTURE_ENABLE?HAL_RTC
   *DEL*:           000016H   BYTE   INBLOCK  CODE           ?PR?HAL_RTC_GET_COMPARE_VALUE?HAL_RTC
   *DEL*:           000016H   BYTE   INBLOCK  CODE           ?PR?HAL_RTC_GET_CAPTURE_VALUE?HAL_RTC
   *DEL*:           000003H   BYTE   INBLOCK  CODE           ?PR?HAL_RTC_GET_CAPTURE_CLOCK_CYCLES?HAL_RTC
   *DEL*:           00007DH   BYTE   INBLOCK  CODE           ?PR?_HAL_NRF_SET_IRQ_MODE?HAL_NRF
   *DEL*:           000003H   BYTE   UNIT     XDATA          ?XD?_HAL_NRF_SET_IRQ_MODE?HAL_NRF
   *DEL*:           000011H   BYTE   INBLOCK  CODE           ?PR?_HAL_NRF_CLEAR_IRQ_FLAG?HAL_NRF
   *DEL*:           000008H   BYTE   INBLOCK  CODE           ?PR?HAL_NRF_GET_IRQ_FLAGS?HAL_NRF
   *DEL*:           000048H   BYTE   INBLOCK  CODE           ?PR?_HAL_NRF_GET_ADDRESS?HAL_NRF
   *DEL*:           000004H   BYTE   UNIT     XDATA          ?XD?_HAL_NRF_GET_ADDRESS?HAL_NRF
   *DEL*:           000007H   BYTE   INBLOCK  CODE           ?PR?_HAL_NRF_SET_RX_PAYLOAD_WIDTH?HAL_NRF
   *DEL*:           0000C2H   BYTE   INBLOCK  CODE           ?PR?_HAL_NRF_GET_PIPE_STATUS?HAL_NRF
   *DEL*:           000005H   BYTE   UNIT     XDATA          ?XD?_HAL_NRF_GET_PIPE_STATUS?HAL_NRF
   *DEL*:           000005H   BYTE   INBLOCK  CODE           ?PR?HAL_NRF_GET_AUTO_RETR_STATUS?HAL_NRF
   *DEL*:           000016H   BYTE   INBLOCK  CODE           ?PR?HAL_NRF_GET_PACKET_LOST_CTR?HAL_NRF
   *DEL*:           00003FH   BYTE   INBLOCK  CODE           ?PR?_HAL_NRF_GET_RX_PAYLOAD_WIDTH?HAL_NRF
   *DEL*:           000001H   BYTE   UNIT     XDATA          ?XD?_HAL_NRF_GET_RX_PAYLOAD_WIDTH?HAL_NRF
   *DEL*:           00000CH   BYTE   INBLOCK  CODE           ?PR?HAL_NRF_RX_FIFO_FULL?HAL_NRF
   *DEL*:           000016H   BYTE   INBLOCK  CODE           ?PR?HAL_NRF_GET_TX_FIFO_STATUS?HAL_NRF
   *DEL*:           00000AH   BYTE   INBLOCK  CODE           ?PR?HAL_NRF_GET_RX_FIFO_STATUS?HAL_NRF
   *DEL*:           000005H   BYTE   INBLOCK  CODE           ?PR?HAL_NRF_GET_FIFO_STATUS?HAL_NRF
   *DEL*:           000001H   BYTE   INBLOCK  CODE           ?PR?HAL_NRF_ACTIVATE_FEATURES?HAL_NRF
   *DEL*:           00002CH   BYTE   INBLOCK  CODE           ?PR?_HAL_NRF_ENABLE_DYNAMIC_ACK?HAL_NRF
   *DEL*:           000002H   BYTE   UNIT     XDATA          ?XD?_HAL_NRF_ENABLE_DYNAMIC_ACK?HAL_NRF
   *DEL*:           00000AH   BYTE   INBLOCK  CODE           ?PR?_HAL_NRF_WRITE_TX_PAYLOAD?HAL_NRF
   *DEL*:           00000AH   BYTE   INBLOCK  CODE           ?PR?_HAL_NRF_WRITE_TX_PAYLOAD_NOACK?HAL_NRF
   *DEL*:           00000AH   BYTE   INBLOCK  CODE           ?PR?HAL_NRF_REUSE_TX?HAL_NRF
LX51 LINKER/LOCATER V4.64.0.0                                                         09/06/2013  01:48:08  PAGE 6


   *DEL*:           000013H   BYTE   INBLOCK  CODE           ?PR?HAL_NRF_GET_REUSE_TX_STATUS?HAL_NRF
   *DEL*:           00002BH   BYTE   INBLOCK  CODE           ?PR?_HAL_NRF_SET_PLL_MODE?HAL_NRF
   *DEL*:           000002H   BYTE   UNIT     XDATA          ?XD?_HAL_NRF_SET_PLL_MODE?HAL_NRF
   *DEL*:           00002EH   BYTE   INBLOCK  CODE           ?PR?_HAL_NRF_ENABLE_CONTINIOUS_WAVE?HAL_NRF
   *DEL*:           000002H   BYTE   UNIT     XDATA          ?XD?_HAL_NRF_ENABLE_CONTINIOUS_WAVE?HAL_NRF
   *DEL*:           000011H   BYTE   INBLOCK  CODE           ?PR?_HAL_CLK_SET_INPUT?HAL_CLK
   *DEL*:           00000FH   BYTE   INBLOCK  CODE           ?PR?_HAL_CLK_SET_16M_SOURCE?HAL_CLK
   *DEL*:           00000CH   BYTE   INBLOCK  CODE           ?PR?_HAL_CLK_SET_FREQ?HAL_CLK
   *DEL*:           000006H   BYTE   INBLOCK  CODE           ?PR?HAL_CLKLF_PHASE?HAL_CLK
   *DEL*:           000006H   BYTE   INBLOCK  CODE           ?PR?HAL_CLKLF_READY?HAL_CLK
   *DEL*:           000014H   BYTE   INBLOCK  CODE           ?PR?_HAL_FLASH_PAGE_ERASE?HAL_FLASH
   *DEL*:           00000BH   BYTE   INBLOCK  CODE           ?PR?_HAL_RNG_BIAS_CORR_ENABLE?HAL_RNG
   *DEL*:           00002AH   BYTE   INBLOCK  CODE           ?PR?_DELAY_MS?HAL_DELAY



OVERLAY MAP OF MODULE:   .\build\gzll_host_w_dyn_pair_nrf24le1 (MAIN)


FUNCTION/MODULE                               DATA_GROUP   XDATA_GROUP
--> CALLED FUNCTION/MODULE                    START  STOP  START  STOP
======================================================================
TICK_ISR/GZLL_TIMER_ISR                       ----- -----  ----- -----
  +--> GZLL_TIMER_ISR_FUNCTION/GZLL

GZLL_TIMER_ISR_FUNCTION/GZLL                  ----- -----  0010H 0011H
  +--> GZLL_CHM_EXECUTE/GZLL
  +--> _GZLL_SET_TIMER_PERIOD/GZLL_MCU
  +--> GZLL_CHM_GET_CURRENT_RX_CHANNEL/GZLL
  +--> _HAL_NRF_SET_RF_CHANNEL/HAL_NRF
  +--> GZLL_CHM_GET_RX_CE_OFFSET/GZLL
  +--> _GZLL_SET_RADIO_POWER_ON/GZLL
  +--> GZLL_SET_SYSTEM_IDLE/GZLL
  +--> GZLL_CHM_GET_TX_CE_OFFSET/GZLL
  +--> _DELAY_US/HAL_DELAY

GZLL_CHM_EXECUTE/GZLL                         ----- -----  ----- -----

_GZLL_SET_TIMER_PERIOD/GZLL_MCU               ----- -----  ----- -----
  +--> _HAL_RTC_START/HAL_RTC
  +--> _HAL_RTC_SET_COMPARE_VALUE/HAL_RTC

_HAL_RTC_START/HAL_RTC                        ----- -----  ----- -----

_HAL_RTC_SET_COMPARE_VALUE/HAL_RTC            ----- -----  ----- -----

GZLL_CHM_GET_CURRENT_RX_CHANNEL/GZLL          ----- -----  ----- -----

_HAL_NRF_SET_RF_CHANNEL/HAL_NRF               ----- -----  ----- -----
  +--> _HAL_NRF_WRITE_REG/HAL_NRF

_HAL_NRF_WRITE_REG/HAL_NRF                    ----- -----  ----- -----

GZLL_CHM_GET_RX_CE_OFFSET/GZLL                ----- -----  ----- -----

_GZLL_SET_RADIO_POWER_ON/GZLL                 ----- -----  ----- -----
  +--> _HAL_NRF_SET_POWER_MODE/HAL_NRF

_HAL_NRF_SET_POWER_MODE/HAL_NRF               ----- -----  ----- -----
  +--> _HAL_NRF_READ_REG/HAL_NRF
  +--> _HAL_NRF_WRITE_REG/HAL_NRF

_HAL_NRF_READ_REG/HAL_NRF                     ----- -----  ----- -----

GZLL_SET_SYSTEM_IDLE/GZLL                     ----- -----  ----- -----
LX51 LINKER/LOCATER V4.64.0.0                                                         09/06/2013  01:48:08  PAGE 7


  +--> _GZLL_DELAY_50US/GZLL
  +--> _GZLL_SET_RADIO_POWER_ON/GZLL

_GZLL_DELAY_50US/GZLL                         ----- -----  ----- -----

GZLL_CHM_GET_TX_CE_OFFSET/GZLL                ----- -----  ----- -----

_DELAY_US/HAL_DELAY                           ----- -----  ----- -----

*** NEW ROOT ********************************

NRF_ISR/GZLL_RADIO_ISR                        ----- -----  ----- -----
  +--> GZLL_RADIO_ISR_FUNCTION/GZLL

GZLL_RADIO_ISR_FUNCTION/GZLL                  ----- -----  0012H 0015H
  +--> HAL_NRF_CLEAR_IRQ_FLAGS_GET_STATUS/HAL_NRF
  +--> HAL_NRF_GET_CARRIER_DETECT/HAL_NRF
  +--> GZLL_CHM_HOLD_RX_CHANNEL/GZLL
  +--> HAL_NRF_GET_TRANSMIT_ATTEMPTS/HAL_NRF
  +--> _GZLL_SET_TIMER_PERIOD/GZLL_MCU
  +--> GZLL_CHM_RESET_RX_CHANNEL_INDEX/GZLL
  +--> HAL_NRF_TX_FIFO_EMPTY/HAL_NRF
  +--> GZLL_SET_SYSTEM_IDLE/GZLL
  +--> GZLL_RELOAD_TRIES_PR_CHANNEL_COUNTER/GZLL
  +--> _DELAY_US/HAL_DELAY
  +--> GZLL_CHM_GET_TX_CE_OFFSET/GZLL
  +--> _GZLL_START_NEW_TX/GZLL
  +--> GZLL_SET_RADIO_AUTO_RETRIES/GZLL

HAL_NRF_CLEAR_IRQ_FLAGS_GET_STATUS/HAL_N+     ----- -----  0016H 0016H
... RF
  +--> _HAL_NRF_WRITE_REG/HAL_NRF
  +--> _HAL_NRF_READ_REG/HAL_NRF

HAL_NRF_GET_CARRIER_DETECT/HAL_NRF            ----- -----  ----- -----
  +--> _HAL_NRF_READ_REG/HAL_NRF

GZLL_CHM_HOLD_RX_CHANNEL/GZLL                 ----- -----  ----- -----

HAL_NRF_GET_TRANSMIT_ATTEMPTS/HAL_NRF         ----- -----  ----- -----
  +--> _HAL_NRF_READ_REG/HAL_NRF

GZLL_CHM_RESET_RX_CHANNEL_INDEX/GZLL          ----- -----  ----- -----

HAL_NRF_TX_FIFO_EMPTY/HAL_NRF                 ----- -----  ----- -----
  +--> _HAL_NRF_READ_REG/HAL_NRF

GZLL_RELOAD_TRIES_PR_CHANNEL_COUNTER/GZL+     ----- -----  ----- -----
... L

_GZLL_START_NEW_TX/GZLL                       ----- -----  ----- -----
  +--> GZLL_RELOAD_TRIES_PR_CHANNEL_COUNTER/GZLL
  +--> GZLL_SET_RADIO_AUTO_RETRIES/GZLL
  +--> _GZLL_LFSR_GET/GZLL
  +--> GZLL_CHM_GET_NEXT_RX_CHANNEL/GZLL
  +--> _HAL_NRF_SET_RF_CHANNEL/HAL_NRF
  +--> _DELAY_US/HAL_DELAY

GZLL_SET_RADIO_AUTO_RETRIES/GZLL              ----- -----  ----- -----
  +--> _HAL_NRF_SET_AUTO_RETR/HAL_NRF

_HAL_NRF_SET_AUTO_RETR/HAL_NRF                ----- -----  ----- -----
  +--> _HAL_NRF_WRITE_REG/HAL_NRF

_GZLL_LFSR_GET/GZLL                           ----- -----  ----- -----
LX51 LINKER/LOCATER V4.64.0.0                                                         09/06/2013  01:48:08  PAGE 8



GZLL_CHM_GET_NEXT_RX_CHANNEL/GZLL             ----- -----  ----- -----

*** NEW ROOT ********************************

?C_C51STARTUP                                 ----- -----  ----- -----
  +--> MAIN/MAIN
  +--> ?C_INITSEG

MAIN/MAIN                                     ----- -----  0017H 0031H
  +--> MCU_INIT/GZLL_MCU
  +--> GZLL_INIT/GZLL
  +--> GZP_INIT/GZP_HOST
  +--> _GZP_PAIRING_ENABLE/GZP_HOST
  +--> _GZLL_GET_PARAM/GZLL
  +--> _GZLL_SET_PARAM/GZLL
  +--> GZLL_RX_START/GZLL
  +--> GZP_HOST_EXECUTE/GZP_HOST
  +--> GZP_ID_REQ_RECEIVED/GZP_HOST
  +--> GZP_ID_REQ_GRANT/GZP_HOST
  +--> GZLL_GET_RX_DATA_READY_PIPE_NUMBER/GZLL
  +--> GZP_CRYPT_USER_DATA_RECEIVED/GZP_HOST
  +--> _GZLL_RX_FIFO_READ/GZLL
  +--> _GZP_CRYPT_USER_DATA_READ/GZP_HOST

MCU_INIT/GZLL_MCU                             ----- -----  ----- -----
  +--> _HAL_CLKLF_SET_SOURCE/HAL_CLK
  +--> _HAL_RTC_SET_COMPARE_MODE/HAL_RTC
  +--> _HAL_CLK_REGRET_XOSC16M_ON/HAL_CLK
  +--> HAL_CLK_GET_16M_SOURCE/HAL_CLK

_HAL_CLKLF_SET_SOURCE/HAL_CLK                 ----- -----  ----- -----

_HAL_RTC_SET_COMPARE_MODE/HAL_RTC             ----- -----  ----- -----

_HAL_CLK_REGRET_XOSC16M_ON/HAL_CLK            ----- -----  ----- -----

HAL_CLK_GET_16M_SOURCE/HAL_CLK                ----- -----  ----- -----

GZLL_INIT/GZLL                                ----- -----  0032H 0036H
  +--> ?CO?GZLL
  +--> GZLL_INTERUPTS_DISABLE_RFCK_ENABLE/GZLL
  +--> _HAL_NRF_ENABLE_ACK_PAYLOAD/HAL_NRF
  +--> _HAL_NRF_ENABLE_DYNAMIC_PAYLOAD/HAL_NRF
  +--> _HAL_NRF_SETUP_DYNAMIC_PAYLOAD/HAL_NRF
  +--> _HAL_NRF_SET_ADDRESS/HAL_NRF
  +--> _HAL_NRF_SET_RF_CHANNEL/HAL_NRF
  +--> _HAL_NRF_SET_OUTPUT_POWER/HAL_NRF
  +--> _HAL_NRF_SET_DATARATE/HAL_NRF
  +--> _HAL_NRF_SET_CRC_MODE/HAL_NRF
  +--> _HAL_NRF_SET_ADDRESS_WIDTH/HAL_NRF
  +--> HAL_NRF_GET_CLEAR_IRQ_FLAGS/HAL_NRF
  +--> HAL_NRF_FLUSH_RX/HAL_NRF
  +--> HAL_NRF_FLUSH_TX/HAL_NRF
  +--> _GZLL_SET_TIMER_PERIOD/GZLL_MCU
  +--> GZLL_SET_SYSTEM_IDLE/GZLL
  +--> GZLL_INTERUPTS_ENABLE_RFCK_DISABLE/GZLL

?CO?GZLL                                      ----- -----  ----- -----

GZLL_INTERUPTS_DISABLE_RFCK_ENABLE/GZLL       ----- -----  ----- -----

_HAL_NRF_ENABLE_ACK_PAYLOAD/HAL_NRF           ----- -----  0037H 0038H
  +--> _HAL_NRF_READ_REG/HAL_NRF
  +--> _HAL_NRF_WRITE_REG/HAL_NRF
LX51 LINKER/LOCATER V4.64.0.0                                                         09/06/2013  01:48:08  PAGE 9



_HAL_NRF_ENABLE_DYNAMIC_PAYLOAD/HAL_NRF       ----- -----  0037H 0038H
  +--> _HAL_NRF_READ_REG/HAL_NRF
  +--> _HAL_NRF_WRITE_REG/HAL_NRF

_HAL_NRF_SETUP_DYNAMIC_PAYLOAD/HAL_NRF        ----- -----  0037H 0037H
  +--> _HAL_NRF_WRITE_REG/HAL_NRF

_HAL_NRF_SET_ADDRESS/HAL_NRF                  ----- -----  0061H 0064H
  +--> HAL_NRF_GET_ADDRESS_WIDTH/HAL_NRF
  +--> _HAL_NRF_WRITE_MULTIBYTE_REG/HAL_NRF
  +--> _HAL_NRF_WRITE_REG/HAL_NRF

HAL_NRF_GET_ADDRESS_WIDTH/HAL_NRF             ----- -----  ----- -----
  +--> _HAL_NRF_READ_REG/HAL_NRF

_HAL_NRF_WRITE_MULTIBYTE_REG/HAL_NRF          ----- -----  006AH 0072H

_HAL_NRF_SET_OUTPUT_POWER/HAL_NRF             ----- -----  0058H 0059H
  +--> _HAL_NRF_READ_REG/HAL_NRF
  +--> _HAL_NRF_WRITE_REG/HAL_NRF

_HAL_NRF_SET_DATARATE/HAL_NRF                 ----- -----  0037H 0038H
  +--> _HAL_NRF_READ_REG/HAL_NRF
  +--> _HAL_NRF_WRITE_REG/HAL_NRF

_HAL_NRF_SET_CRC_MODE/HAL_NRF                 ----- -----  0037H 0038H
  +--> _HAL_NRF_READ_REG/HAL_NRF
  +--> _HAL_NRF_WRITE_REG/HAL_NRF

_HAL_NRF_SET_ADDRESS_WIDTH/HAL_NRF            ----- -----  0037H 0037H
  +--> _HAL_NRF_WRITE_REG/HAL_NRF

HAL_NRF_GET_CLEAR_IRQ_FLAGS/HAL_NRF           ----- -----  ----- -----
  +--> _HAL_NRF_WRITE_REG/HAL_NRF

HAL_NRF_FLUSH_RX/HAL_NRF                      ----- -----  ----- -----
  +--> _HAL_NRF_RW/HAL_NRF_HW

_HAL_NRF_RW/HAL_NRF_HW                        ----- -----  ----- -----

HAL_NRF_FLUSH_TX/HAL_NRF                      ----- -----  ----- -----
  +--> _HAL_NRF_RW/HAL_NRF_HW

GZLL_INTERUPTS_ENABLE_RFCK_DISABLE/GZLL       ----- -----  ----- -----

GZP_INIT/GZP_HOST                             ----- -----  0032H 0035H
  +--> _GZP_HOST_CHIP_ID_READ/GZP_HOST_LE1
  +--> _GZP_UPDATE_RADIO_PARAMS/GZP
  +--> _GZLL_GET_PARAM/GZLL
  +--> _GZLL_SET_PARAM/GZLL

_GZP_HOST_CHIP_ID_READ/GZP_HOST_LE1           ----- -----  0058H 005CH
  +--> _HAL_FLASH_BYTE_READ/HAL_FLASH
  +--> _HAL_FLASH_BYTE_WRITE/HAL_FLASH
  +--> _HAL_RNG_POWER_UP/HAL_RNG
  +--> HAL_RNG_DATA_READY/HAL_RNG
  +--> HAL_RNG_READ/HAL_RNG

_HAL_FLASH_BYTE_READ/HAL_FLASH                ----- -----  ----- -----

_HAL_FLASH_BYTE_WRITE/HAL_FLASH               ----- -----  ----- -----

_HAL_RNG_POWER_UP/HAL_RNG                     ----- -----  ----- -----

LX51 LINKER/LOCATER V4.64.0.0                                                         09/06/2013  01:48:08  PAGE 10


HAL_RNG_DATA_READY/HAL_RNG                    ----- -----  ----- -----

HAL_RNG_READ/HAL_RNG                          ----- -----  ----- -----

_GZP_UPDATE_RADIO_PARAMS/GZP                  ----- -----  0036H 004EH
  +--> ?CO?GZP
  +--> _GZLL_SET_ADDRESS/GZLL
  +--> GZLL_GET_CHANNEL_TAB_SIZE/GZLL
  +--> _GZP_GENERATE_CHANNELS/GZP
  +--> _GZLL_SET_CHANNELS/GZLL

?CO?GZP                                       ----- -----  ----- -----

_GZLL_SET_ADDRESS/GZLL                        ----- -----  004FH 0052H
  +--> GZLL_INTERUPTS_DISABLE_RFCK_ENABLE/GZLL
  +--> _HAL_NRF_SET_ADDRESS/HAL_NRF
  +--> GZLL_INTERUPTS_ENABLE_RFCK_DISABLE/GZLL

GZLL_GET_CHANNEL_TAB_SIZE/GZLL                ----- -----  ----- -----

_GZP_GENERATE_CHANNELS/GZP                    ----- -----  004FH 0055H

_GZLL_SET_CHANNELS/GZLL                       ----- -----  ----- -----
  +--> GZLL_INTERUPTS_DISABLE_RFCK_ENABLE/GZLL
  +--> _HAL_NRF_SET_RF_CHANNEL/HAL_NRF
  +--> GZLL_INTERUPTS_ENABLE_RFCK_DISABLE/GZLL

_GZLL_GET_PARAM/GZLL                          ----- -----  ----- -----
  +--> GZLL_INTERUPTS_DISABLE_RFCK_ENABLE/GZLL
  +--> GZLL_INTERUPTS_ENABLE_RFCK_DISABLE/GZLL

_GZLL_SET_PARAM/GZLL                          ----- -----  ----- -----
  +--> GZLL_INTERUPTS_DISABLE_RFCK_ENABLE/GZLL
  +--> _GZLL_SET_RADIO_POWER_ON/GZLL
  +--> _HAL_NRF_SET_OUTPUT_POWER/HAL_NRF
  +--> GZLL_INTERUPTS_ENABLE_RFCK_DISABLE/GZLL

_GZP_PAIRING_ENABLE/GZP_HOST                  ----- -----  0032H 0033H
  +--> GZLL_GET_STATE/GZLL
  +--> GZLL_GOTO_IDLE/GZLL
  +--> _GZLL_GET_PARAM/GZLL
  +--> _GZLL_SET_PARAM/GZLL
  +--> GZLL_RX_START/GZLL

GZLL_GET_STATE/GZLL                           ----- -----  ----- -----

GZLL_GOTO_IDLE/GZLL                           ----- -----  ----- -----
  +--> GZLL_INTERUPTS_DISABLE_RFCK_ENABLE/GZLL
  +--> GZLL_SET_SYSTEM_IDLE/GZLL
  +--> GZLL_INTERUPTS_ENABLE_RFCK_DISABLE/GZLL

GZLL_RX_START/GZLL                            ----- -----  0060H 0060H
  +--> GZLL_GOTO_IDLE/GZLL
  +--> GZLL_INTERUPTS_DISABLE_RFCK_ENABLE/GZLL
  +--> _HAL_NRF_SET_ADDRESS/HAL_NRF
  +--> _HAL_NRF_CLOSE_PIPE/HAL_NRF
  +--> _HAL_NRF_OPEN_PIPE/HAL_NRF
  +--> _HAL_NRF_SET_OPERATION_MODE/HAL_NRF
  +--> _GZLL_SET_RADIO_POWER_ON/GZLL
  +--> GZLL_INTERUPTS_ENABLE_RFCK_DISABLE/GZLL

_HAL_NRF_CLOSE_PIPE/HAL_NRF                   ----- -----  0061H 0063H
  +--> _HAL_NRF_READ_REG/HAL_NRF
  +--> _HAL_NRF_WRITE_REG/HAL_NRF

LX51 LINKER/LOCATER V4.64.0.0                                                         09/06/2013  01:48:08  PAGE 11


_HAL_NRF_OPEN_PIPE/HAL_NRF                    ----- -----  0061H 0064H
  +--> _HAL_NRF_READ_REG/HAL_NRF
  +--> _HAL_NRF_WRITE_REG/HAL_NRF

_HAL_NRF_SET_OPERATION_MODE/HAL_NRF           ----- -----  0061H 0062H
  +--> _HAL_NRF_READ_REG/HAL_NRF
  +--> _HAL_NRF_WRITE_REG/HAL_NRF

GZP_HOST_EXECUTE/GZP_HOST                     ----- -----  0032H 004DH
  +--> GZLL_GET_RX_DATA_READY_PIPE_NUMBER/GZLL
  +--> _GZLL_RX_FIFO_READ/GZLL
  +--> _GZP_PROCESS_ADDRESS_REQ/GZP_HOST
  +--> _GZP_PROCESS_ID_REQ/GZP_HOST
  +--> _GZP_PROCESS_ID_FETCH/GZP_HOST
  +--> GZP_PROCESS_KEY_UPDATE_PREPARE/GZP_HOST
  +--> _GZP_PROCESS_KEY_UPDATE/GZP_HOST
  +--> _GZP_PROCESS_ENCRYPTED_USER_DATA/GZP_HOST
  +--> GZLL_GET_STATE/GZLL
  +--> _GZLL_SET_PARAM/GZLL
  +--> _GZLL_GET_PARAM/GZLL
  +--> GZLL_RX_START/GZLL
  +--> GZP_SESSION_COUNTER_INC/GZP_HOST

GZLL_GET_RX_DATA_READY_PIPE_NUMBER/GZLL       ----- -----  ----- -----
  +--> GZLL_INTERUPTS_DISABLE_RFCK_ENABLE/GZLL
  +--> HAL_NRF_GET_RX_DATA_SOURCE/HAL_NRF
  +--> GZLL_INTERUPTS_ENABLE_RFCK_DISABLE/GZLL

HAL_NRF_GET_RX_DATA_SOURCE/HAL_NRF            ----- -----  ----- -----
  +--> HAL_NRF_NOP/HAL_NRF

HAL_NRF_NOP/HAL_NRF                           ----- -----  ----- -----
  +--> _HAL_NRF_RW/HAL_NRF_HW

_GZLL_RX_FIFO_READ/GZLL                       ----- -----  0058H 0062H
  +--> GZLL_INTERUPTS_DISABLE_RFCK_ENABLE/GZLL
  +--> HAL_NRF_READ_RX_PAYLOAD_WIDTH/HAL_NRF
  +--> _HAL_NRF_READ_RX_PAYLOAD/HAL_NRF
  +--> HAL_NRF_RX_FIFO_EMPTY/HAL_NRF
  +--> GZLL_INTERUPTS_ENABLE_RFCK_DISABLE/GZLL
  +--> GZLL_RX_FIFO_FLUSH/GZLL

HAL_NRF_READ_RX_PAYLOAD_WIDTH/HAL_NRF         ----- -----  ----- -----
  +--> _HAL_NRF_READ_REG/HAL_NRF

_HAL_NRF_READ_RX_PAYLOAD/HAL_NRF              ----- -----  ----- -----
  +--> _HAL_NRF_READ_MULTIBYTE_REG/HAL_NRF

_HAL_NRF_READ_MULTIBYTE_REG/HAL_NRF           ----- -----  ----- -----
  +--> HAL_NRF_GET_ADDRESS_WIDTH/HAL_NRF
  +--> HAL_NRF_GET_RX_DATA_SOURCE/HAL_NRF
  +--> HAL_NRF_READ_RX_PAYLOAD_WIDTH/HAL_NRF
  +--> _HAL_NRF_RW/HAL_NRF_HW

HAL_NRF_RX_FIFO_EMPTY/HAL_NRF                 ----- -----  ----- -----
  +--> _HAL_NRF_READ_REG/HAL_NRF

GZLL_RX_FIFO_FLUSH/GZLL                       ----- -----  ----- -----
  +--> GZLL_INTERUPTS_DISABLE_RFCK_ENABLE/GZLL
  +--> HAL_NRF_FLUSH_RX/HAL_NRF
  +--> GZLL_INTERUPTS_ENABLE_RFCK_DISABLE/GZLL

_GZP_PROCESS_ADDRESS_REQ/GZP_HOST             ----- -----  004EH 0057H
  +--> GZLL_GOTO_IDLE/GZLL
  +--> _GZLL_GET_PARAM/GZLL
LX51 LINKER/LOCATER V4.64.0.0                                                         09/06/2013  01:48:08  PAGE 12


  +--> GZLL_RX_POWER_HIGH/GZLL
  +--> _GZLL_SET_PARAM/GZLL
  +--> GZLL_RX_FIFO_FLUSH/GZLL
  +--> GZLL_RX_START/GZLL
  +--> GZLL_GET_STATE/GZLL
  +--> _GZP_HOST_CHIP_ID_READ/GZP_HOST_LE1
  +--> _GZLL_ACK_PAYLOAD_WRITE/GZLL
  +--> _GZLL_RX_FIFO_READ/GZLL
  +--> GZLL_TX_FIFO_FLUSH/GZLL

GZLL_RX_POWER_HIGH/GZLL                       ----- -----  ----- -----

_GZLL_ACK_PAYLOAD_WRITE/GZLL                  ----- -----  0060H 0064H
  +--> GZLL_INTERUPTS_DISABLE_RFCK_ENABLE/GZLL
  +--> HAL_NRF_TX_FIFO_FULL/HAL_NRF
  +--> GZLL_INTERUPTS_ENABLE_RFCK_DISABLE/GZLL
  +--> _HAL_NRF_WRITE_ACK_PAYLOAD/HAL_NRF

HAL_NRF_TX_FIFO_FULL/HAL_NRF                  ----- -----  ----- -----
  +--> _HAL_NRF_READ_REG/HAL_NRF

_HAL_NRF_WRITE_ACK_PAYLOAD/HAL_NRF            ----- -----  0065H 0069H
  +--> _HAL_NRF_WRITE_MULTIBYTE_REG/HAL_NRF

GZLL_TX_FIFO_FLUSH/GZLL                       ----- -----  ----- -----
  +--> GZLL_INTERUPTS_DISABLE_RFCK_ENABLE/GZLL
  +--> HAL_NRF_FLUSH_TX/HAL_NRF
  +--> GZLL_INTERUPTS_ENABLE_RFCK_DISABLE/GZLL

_GZP_PROCESS_ID_REQ/GZP_HOST                  ----- -----  004EH 0055H
  +--> GZP_ID_REQ_RECEIVED/GZP_HOST
  +--> _GZP_CRYPT_SET_SESSION_TOKEN/GZP
  +--> _GZP_GET_HOST_ID/GZP_HOST
  +--> _GZP_GET_SESSION_COUNTER/GZP_HOST
  +--> _GZP_XOR_CIPHER/GZP
  +--> _GZP_SET_HOST_ID/GZP_HOST

GZP_ID_REQ_RECEIVED/GZP_HOST                  ----- -----  ----- -----

_GZP_CRYPT_SET_SESSION_TOKEN/GZP              ----- -----  ----- -----

_GZP_GET_HOST_ID/GZP_HOST                     ----- -----  0082H 0084H
  +--> _HAL_FLASH_BYTE_READ/HAL_FLASH
  +--> _HAL_FLASH_BYTES_READ/HAL_FLASH

_HAL_FLASH_BYTES_READ/HAL_FLASH               ----- -----  0085H 008BH

_GZP_GET_SESSION_COUNTER/GZP_HOST             ----- -----  005BH 005DH

_GZP_XOR_CIPHER/GZP                           ----- -----  0082H 008BH

_GZP_SET_HOST_ID/GZP_HOST                     ----- -----  0056H 0058H
  +--> _HAL_FLASH_BYTE_READ/HAL_FLASH
  +--> _HAL_FLASH_BYTE_WRITE/HAL_FLASH
  +--> _HAL_FLASH_BYTES_WRITE/HAL_FLASH

_HAL_FLASH_BYTES_WRITE/HAL_FLASH              ----- -----  0059H 005FH

_GZP_PROCESS_ID_FETCH/GZP_HOST                ----- -----  004EH 005AH
  +--> GZP_ID_REQ_RECEIVED/GZP_HOST
  +--> _GZP_CRYPT_SELECT_KEY/GZP
  +--> _GZP_CRYPT/GZP
  +--> _GZP_VALIDATE_ID/GZP
  +--> _GZP_GET_HOST_ID/GZP_HOST
  +--> _GZP_ADD_VALIDATION_ID/GZP
LX51 LINKER/LOCATER V4.64.0.0                                                         09/06/2013  01:48:08  PAGE 13


  +--> _GZP_PRELOAD_ACK/GZP_HOST

_GZP_CRYPT_SELECT_KEY/GZP                     ----- -----  ----- -----

_GZP_CRYPT/GZP                                ----- -----  005BH 0081H
  +--> ?CO?GZP
  +--> _GZP_GET_HOST_ID/GZP_HOST
  +--> _HAL_AES_SETUP/HAL_AES
  +--> _HAL_AES_CRYPT/HAL_AES
  +--> _GZP_XOR_CIPHER/GZP

_HAL_AES_SETUP/HAL_AES                        ----- -----  0082H 0089H
  +--> _AES_SET_KEY/HAL_AES

_AES_SET_KEY/HAL_AES                          ----- -----  008AH 008CH

_HAL_AES_CRYPT/HAL_AES                        0008H 0017H  0082H 0088H
  +--> _ADD_SUB_SHIFT/HAL_AES
  +--> _MIX_COLUMNS_HW/HAL_AES
  +--> _KEY_UPGRADE/HAL_AES
  +--> _ADD_KEY/HAL_AES

_ADD_SUB_SHIFT/HAL_AES                        ----- -----  0089H 008AH
  +--> ?CO?HAL_AES

?CO?HAL_AES                                   ----- -----  ----- -----

_MIX_COLUMNS_HW/HAL_AES                       ----- -----  ----- -----

_KEY_UPGRADE/HAL_AES                          ----- -----  ----- -----
  +--> ?CO?HAL_AES

_ADD_KEY/HAL_AES                              ----- -----  ----- -----

_GZP_VALIDATE_ID/GZP                          ----- -----  005BH 005DH
  +--> ?CO?GZP

_GZP_ADD_VALIDATION_ID/GZP                    ----- -----  005BH 005DH
  +--> ?CO?GZP

_GZP_PRELOAD_ACK/GZP_HOST                     ----- -----  005BH 005FH
  +--> GZLL_GOTO_IDLE/GZLL
  +--> GZLL_TX_FIFO_FLUSH/GZLL
  +--> _GZLL_ACK_PAYLOAD_WRITE/GZLL
  +--> GZLL_RX_START/GZLL

GZP_PROCESS_KEY_UPDATE_PREPARE/GZP_HOST       ----- -----  004EH 0053H
  +--> _GZP_GET_SESSION_COUNTER/GZP_HOST
  +--> GZP_ID_REQ_RECEIVED/GZP_HOST
  +--> _GZP_CRYPT_SET_SESSION_TOKEN/GZP
  +--> _GZP_PRELOAD_ACK/GZP_HOST

_GZP_PROCESS_KEY_UPDATE/GZP_HOST              ----- -----  004EH 0050H
  +--> _GZP_CRYPT_SELECT_KEY/GZP
  +--> _GZP_CRYPT/GZP
  +--> _GZP_VALIDATE_ID/GZP
  +--> _GZP_CRYPT_SET_DYN_KEY/GZP

_GZP_CRYPT_SET_DYN_KEY/GZP                    ----- -----  ----- -----

_GZP_PROCESS_ENCRYPTED_USER_DATA/GZP_HOS+     ----- -----  004EH 005AH
... T
  +--> GZP_ID_REQ_RECEIVED/GZP_HOST
  +--> _GZP_CRYPT_SELECT_KEY/GZP
  +--> _GZP_CRYPT/GZP
LX51 LINKER/LOCATER V4.64.0.0                                                         09/06/2013  01:48:08  PAGE 14


  +--> _GZP_VALIDATE_ID/GZP
  +--> _GZP_ADD_VALIDATION_ID/GZP
  +--> _GZP_GET_SESSION_COUNTER/GZP_HOST
  +--> _GZP_CRYPT_SET_SESSION_TOKEN/GZP
  +--> _GZP_PRELOAD_ACK/GZP_HOST

GZP_SESSION_COUNTER_INC/GZP_HOST              ----- -----  ----- -----

GZP_ID_REQ_GRANT/GZP_HOST                     ----- -----  ----- -----
  +--> GZP_ID_REQ_RECEIVED/GZP_HOST

GZP_CRYPT_USER_DATA_RECEIVED/GZP_HOST         ----- -----  ----- -----

_GZP_CRYPT_USER_DATA_READ/GZP_HOST            ----- -----  0032H 0037H

?C_INITSEG                                    ----- -----  ----- -----



PUBLIC SYMBOLS OF MODULE:  .\build\gzll_host_w_dyn_pair_nrf24le1 (MAIN)


      VALUE       CLASS    TYPE      PUBLIC SYMBOL NAME
      =================================================
      02000060H   XDATA    BYTE      ?_gzll_ack_payload_write?BYTE
      02000058H   XDATA    BYTE      ?_gzll_rx_fifo_read?BYTE
*DEL*:00000000H   XDATA    BYTE      ?_gzll_tx_data?BYTE
      0200005BH   XDATA    BYTE      ?_gzp_crypt?BYTE
      02000032H   XDATA    BYTE      ?_gzp_crypt_user_data_read?BYTE
      0200004FH   XDATA    BYTE      ?_gzp_generate_channels?BYTE
      02000082H   XDATA    BYTE      ?_gzp_xor_cipher?BYTE
      02000082H   XDATA    BYTE      ?_hal_aes_crypt?BYTE
      02000082H   XDATA    BYTE      ?_hal_aes_setup?BYTE
      02000085H   XDATA    BYTE      ?_hal_flash_bytes_read?BYTE
      02000059H   XDATA    BYTE      ?_hal_flash_bytes_write?BYTE
      02000065H   XDATA    BYTE      ?_hal_nrf_write_ack_payload?BYTE
      0200006AH   XDATA    BYTE      ?_hal_nrf_write_multibyte_reg?BYTE
      0100034AH   CODE     ---       ?C?CASTF
      01000411H   CODE     ---       ?C?CILDOPTR
      010003E4H   CODE     ---       ?C?CLDOPTR
      010003CBH   CODE     ---       ?C?CLDPTR
      00000000H   NUMBER   ---       ?C?CODESEG
      01000757H   CODE     ---       ?C?COPYE2
      01000456H   CODE     ---       ?C?CSTOPTR
      01000444H   CODE     ---       ?C?CSTPTR
      01000316H   CODE     ---       ?C?FCASTC
      01000311H   CODE     ---       ?C?FCASTI
      0100030CH   CODE     ---       ?C?FCASTL
      01000075H   CODE     ---       ?C?FPADD
      0100026FH   CODE     ---       ?C?FPDIV
      01000381H   CODE     ---       ?C?FPGETOPN2
      01000166H   CODE     ---       ?C?FPMUL
      010003B6H   CODE     ---       ?C?FPNANRESULT
      010003C0H   CODE     ---       ?C?FPOVERFLOW
      01000398H   CODE     ---       ?C?FPRESULT
      010003ACH   CODE     ---       ?C?FPRESULT2
      01000071H   CODE     ---       ?C?FPSUB
      010003BDH   CODE     ---       ?C?FPUNDERFLOW
      010004DFH   CODE     ---       ?C?IILDX
      010004F5H   CODE     ---       ?C?ILDIX
      01000478H   CODE     ---       ?C?IMUL
      0100050BH   CODE     ---       ?C?LNEG
      01000677H   CODE     ---       ?C?MEMCMPE2
      0100048AH   CODE     ---       ?C?UIDIV
      00000000H   NUMBER   ---       ?C?XDATASEG
LX51 LINKER/LOCATER V4.64.0.0                                                         09/06/2013  01:48:08  PAGE 15


      010007C4H   CODE     ---       ?C_START
      01000000H   CODE     ---       ?C_STARTUP
*DEL*:00000000H   CODE     ---       _delay_ms
      01001D0CH   CODE     ---       _delay_us
      0100177FH   CODE     ---       _gzll_ack_payload_write
      0100244BH   CODE     ---       _gzll_delay_50us
*DEL*:00000000H   CODE     ---       _gzll_get_address
*DEL*:00000000H   CODE     ---       _gzll_get_channels
      01000BC6H   CODE     ---       _gzll_get_param
*DEL*:00000000H   CODE     ---       _gzll_get_param_max
*DEL*:00000000H   CODE     ---       _gzll_rx_data_ready
      01000CF3H   CODE     ---       _gzll_rx_fifo_read
      010021FEH   CODE     ---       _gzll_set_address
      010021CFH   CODE     ---       _gzll_set_channels
      01000A04H   CODE     ---       _gzll_set_param
      0100204CH   CODE     ---       _gzll_set_timer_period
*DEL*:00000000H   CODE     ---       _gzll_tx_data
      010027A7H   CODE     ---       _gzp_add_validation_id
      01002A26H   CODE     ---       _gzp_crypt
*DEL*:00000000H   CODE     ---       _gzp_crypt_get_dyn_key
*DEL*:00000000H   CODE     ---       _gzp_crypt_get_session_token
      01002795H   CODE     ---       _gzp_crypt_select_key
      01002F10H   CODE     ---       _gzp_crypt_set_dyn_key
      010026E0H   CODE     ---       _gzp_crypt_set_session_token
      0100257DH   CODE     ---       _gzp_crypt_user_data_read
      0100223BH   CODE     ---       _gzp_generate_channels
      010027CEH   CODE     ---       _gzp_get_host_id
      01002842H   CODE     ---       _gzp_host_chip_id_read
      01000BEAH   CODE     ---       _gzp_pairing_enable
      01002130H   CODE     ---       _gzp_update_radio_params
      01002BDFH   CODE     ---       _gzp_validate_id
      01002B25H   CODE     ---       _gzp_xor_cipher
      01002C6FH   CODE     ---       _hal_aes_crypt
      01002B8CH   CODE     ---       _hal_aes_setup
      010020D0H   CODE     ---       _hal_clk_regret_xosc16m_on
*DEL*:00000000H   CODE     ---       _hal_clk_set_16m_source
*DEL*:00000000H   CODE     ---       _hal_clk_set_freq
*DEL*:00000000H   CODE     ---       _hal_clk_set_input
      010020B6H   CODE     ---       _hal_clklf_set_source
      0100283BH   CODE     ---       _hal_flash_byte_read
      010028CFH   CODE     ---       _hal_flash_byte_write
      01003408H   CODE     ---       _hal_flash_bytes_read
      0100290EH   CODE     ---       _hal_flash_bytes_write
*DEL*:00000000H   CODE     ---       _hal_flash_page_erase
*DEL*:00000000H   CODE     ---       _hal_nrf_clear_irq_flag
      01001A86H   CODE     ---       _hal_nrf_close_pipe
      01003030H   CODE     ---       _hal_nrf_enable_ack_payload
*DEL*:00000000H   CODE     ---       _hal_nrf_enable_continious_wave
*DEL*:00000000H   CODE     ---       _hal_nrf_enable_dynamic_ack
      01003000H   CODE     ---       _hal_nrf_enable_dynamic_payload
*DEL*:00000000H   CODE     ---       _hal_nrf_get_address
*DEL*:00000000H   CODE     ---       _hal_nrf_get_pipe_status
*DEL*:00000000H   CODE     ---       _hal_nrf_get_rx_payload_width
      01001B00H   CODE     ---       _hal_nrf_open_pipe
      0100180AH   CODE     ---       _hal_nrf_read_multibyte_reg
      01001A6CH   CODE     ---       _hal_nrf_read_reg
      01001FE9H   CODE     ---       _hal_nrf_read_rx_payload
      01001800H   CODE     ---       _hal_nrf_rw
      01000F2DH   CODE     ---       _hal_nrf_set_address
      01002F71H   CODE     ---       _hal_nrf_set_address_width
      010023F1H   CODE     ---       _hal_nrf_set_auto_retr
      01002F1DH   CODE     ---       _hal_nrf_set_crc_mode
      01002F88H   CODE     ---       _hal_nrf_set_datarate
*DEL*:00000000H   CODE     ---       _hal_nrf_set_irq_mode
      01001FBDH   CODE     ---       _hal_nrf_set_operation_mode
LX51 LINKER/LOCATER V4.64.0.0                                                         09/06/2013  01:48:08  PAGE 16


      01001F9EH   CODE     ---       _hal_nrf_set_output_power
*DEL*:00000000H   CODE     ---       _hal_nrf_set_pll_mode
      01001B8AH   CODE     ---       _hal_nrf_set_power_mode
      01001F6CH   CODE     ---       _hal_nrf_set_rf_channel
*DEL*:00000000H   CODE     ---       _hal_nrf_set_rx_payload_width
      01002FD3H   CODE     ---       _hal_nrf_setup_dynamic_payload
      01002FE1H   CODE     ---       _hal_nrf_write_ack_payload
      0100305EH   CODE     ---       _hal_nrf_write_multibyte_reg
      01001ADEH   CODE     ---       _hal_nrf_write_reg
*DEL*:00000000H   CODE     ---       _hal_nrf_write_tx_payload
*DEL*:00000000H   CODE     ---       _hal_nrf_write_tx_payload_noack
*DEL*:00000000H   CODE     ---       _hal_rng_bias_corr_enable
      010028EFH   CODE     ---       _hal_rng_power_up
*DEL*:00000000H   CODE     ---       _hal_rtc_radio_capture_enable
      010020C2H   CODE     ---       _hal_rtc_set_compare_mode
      01002097H   CODE     ---       _hal_rtc_set_compare_value
      010020ABH   CODE     ---       _hal_rtc_start
*SFR* 000000D0H.6 DATA     BIT       AC
*SFR* 000000E0H   DATA     BYTE      ACC
*SFR* 000000D3H   DATA     BYTE      ADCCON1
*SFR* 000000D2H   DATA     BYTE      ADCCON2
*SFR* 000000D1H   DATA     BYTE      ADCCON3
*SFR* 000000D4H   DATA     BYTE      ADCDATH
*SFR* 000000D5H   DATA     BYTE      ADCDATL
*SFR* 000000D8H   DATA     BYTE      ADCON
*SFR* 000000EFH   DATA     BYTE      ARCON
*SFR* 000000F0H   DATA     BYTE      B
      00000021H.4 DATA     BIT       b_rfce
*SFR* 000000D8H.7 DATA     BIT       BD
*SFR* 000000C2H   DATA     WORD      CC1
*SFR* 000000C4H   DATA     WORD      CC2
*SFR* 000000C6H   DATA     WORD      CC3
*SFR* 000000C1H   DATA     BYTE      CCEN
*SFR* 000000C3H   DATA     BYTE      CCH1
*SFR* 000000C5H   DATA     BYTE      CCH2
*SFR* 000000C7H   DATA     BYTE      CCH3
*SFR* 000000C2H   DATA     BYTE      CCL1
*SFR* 000000C4H   DATA     BYTE      CCL2
*SFR* 000000C6H   DATA     BYTE      CCL3
*SFR* 000000DDH   DATA     BYTE      CCPDATIA
*SFR* 000000DEH   DATA     BYTE      CCPDATIB
*SFR* 000000DFH   DATA     BYTE      CCPDATO
*SFR* 000000A3H   DATA     BYTE      CLKCTRL
*SFR* 000000ADH   DATA     BYTE      CLKLFCTRL
*SFR* 000000DBH   DATA     BYTE      COMPCON
*SFR* 000000CAH   DATA     WORD      CRC
*SFR* 000000CBH   DATA     BYTE      CRCH
*SFR* 000000CAH   DATA     BYTE      CRCL
*SFR* 000000D0H.7 DATA     BIT       CY
*SFR* 00000083H   DATA     BYTE      DPH
*SFR* 00000085H   DATA     BYTE      DPH1
*SFR* 00000082H   DATA     BYTE      DPL
*SFR* 00000084H   DATA     BYTE      DPL1
*SFR* 00000092H   DATA     BYTE      DPS
*SFR* 000000A8H.7 DATA     BIT       EA
*SFR* 000000A8H.4 DATA     BIT       ES0
*SFR* 000000A8H.1 DATA     BIT       ET0
*SFR* 000000A8H.3 DATA     BIT       ET1
*SFR* 000000A8H.5 DATA     BIT       ET2
*SFR* 000000A8H   DATA     BIT       EX0
*SFR* 000000A8H.2 DATA     BIT       EX1
*SFR* 000000B8H.7 DATA     BIT       EXEN2
*SFR* 000000C0H.7 DATA     BIT       EXF2
*SFR* 000000D0H.5 DATA     BIT       F0
*SFR* 000000FAH   DATA     BYTE      FCR
LX51 LINKER/LOCATER V4.64.0.0                                                         09/06/2013  01:48:08  PAGE 17


*SFR* 000000FBH   DATA     BYTE      FDCR
*SFR* 000000F9H   DATA     BYTE      FPCR
*SFR* 000000F8H   DATA     BYTE      FSR
      00000021H.3 DATA     BIT       gzll_claim_rfck_en
*DEL*:00000000H   CODE     ---       gzll_dev_mode2_rx_channel_match
      0100212AH   CODE     ---       gzll_get_channel_tab_size
      01000F7DH   CODE     ---       gzll_get_rx_data_ready_pipe_number
      01000D84H   CODE     ---       gzll_get_state
*DEL*:00000000H   CODE     ---       gzll_get_tx_attempts
*DEL*:00000000H   CODE     ---       gzll_get_tx_channel_switches
      01000DB3H   CODE     ---       gzll_goto_idle
      01000DD3H   CODE     ---       gzll_init
      00000021H.1 DATA     BIT       gzll_pending_goto_idle
      00000021H.0 DATA     BIT       gzll_pending_tx_start
      00000020H.7 DATA     BIT       gzll_power_on
*DEL*:00000000H   CODE     ---       gzll_radio_active
      00000020H.6 DATA     BIT       gzll_radio_active_f
      01001D67H   CODE     ---       gzll_radio_isr_function
      00000020H.4 DATA     BIT       gzll_rx_dr
      01000D8AH   CODE     ---       gzll_rx_fifo_flush
      01002303H   CODE     ---       gzll_rx_power_high
      00000020H.5 DATA     BIT       gzll_rx_power_high_f
      00000020H.2 DATA     BIT       gzll_rx_setup_modified
      01000B57H   CODE     ---       gzll_rx_start
      00000020H.3 DATA     BIT       gzll_sync_on
      01001BD2H   CODE     ---       gzll_timer_isr_function
      00000021H.2 DATA     BIT       gzll_timer_period_modified
      01000FE1H   CODE     ---       gzll_tx_fifo_flush
      00000020H.1 DATA     BIT       gzll_tx_setup_modified
*DEL*:00000000H   CODE     ---       gzll_tx_success
      00000020H.0 DATA     BIT       gzll_tx_success_f
*DEL*:00000000H   CODE     ---       gzp_address_exchanged
      0100256FH   CODE     ---       gzp_crypt_user_data_received
      02000104H   XDATA    ---       gzp_dyn_key
      01000C33H   CODE     ---       gzp_host_execute
*DEL*:00000000H   CODE     ---       gzp_id_req_cancel
      0100279BH   CODE     ---       gzp_id_req_grant
      010025D5H   CODE     ---       gzp_id_req_received
*DEL*:00000000H   CODE     ---       gzp_id_req_reject
      01000FA8H   CODE     ---       gzp_init
      02000111H   XDATA    ---       gzp_session_token
      01001FF6H   CODE     ---       hal_clk_get_16m_source
*DEL*:00000000H   CODE     ---       hal_clklf_phase
*DEL*:00000000H   CODE     ---       hal_clklf_ready
*DEL*:00000000H   CODE     ---       hal_nrf_activate_features
      01001F2EH   CODE     ---       hal_nrf_clear_irq_flags_get_status
      010017F1H   CODE     ---       hal_nrf_flush_rx
      010017F0H   CODE     ---       hal_nrf_flush_tx
      01001A49H   CODE     ---       hal_nrf_get_address_width
*DEL*:00000000H   CODE     ---       hal_nrf_get_auto_retr_status
      01001F59H   CODE     ---       hal_nrf_get_carrier_detect
      01002F65H   CODE     ---       hal_nrf_get_clear_irq_flags
*DEL*:00000000H   CODE     ---       hal_nrf_get_fifo_status
*DEL*:00000000H   CODE     ---       hal_nrf_get_irq_flags
*DEL*:00000000H   CODE     ---       hal_nrf_get_packet_lost_ctr
*DEL*:00000000H   CODE     ---       hal_nrf_get_reuse_tx_status
      01001A52H   CODE     ---       hal_nrf_get_rx_data_source
*DEL*:00000000H   CODE     ---       hal_nrf_get_rx_fifo_status
      01001F50H   CODE     ---       hal_nrf_get_transmit_attempts
*DEL*:00000000H   CODE     ---       hal_nrf_get_tx_fifo_status
      01001A5FH   CODE     ---       hal_nrf_nop
      010017FAH   CODE     ---       hal_nrf_read_rx_payload_width
*DEL*:00000000H   CODE     ---       hal_nrf_reuse_tx
      01001FEDH   CODE     ---       hal_nrf_rx_fifo_empty
*DEL*:00000000H   CODE     ---       hal_nrf_rx_fifo_full
LX51 LINKER/LOCATER V4.64.0.0                                                         09/06/2013  01:48:08  PAGE 18


      01001F62H   CODE     ---       hal_nrf_tx_fifo_empty
      01002FC7H   CODE     ---       hal_nrf_tx_fifo_full
      010028FDH   CODE     ---       hal_rng_data_ready
      010028FAH   CODE     ---       hal_rng_read
*DEL*:00000000H   CODE     ---       hal_rtc_capture
*DEL*:00000000H   CODE     ---       hal_rtc_get_capture_clock_cycles
*DEL*:00000000H   CODE     ---       hal_rtc_get_capture_value
*DEL*:00000000H   CODE     ---       hal_rtc_get_compare_value
*SFR* 000000C8H.5 DATA     BIT       I2FR
*SFR* 000000C8H.6 DATA     BIT       I3FR
*SFR* 00000088H.1 DATA     BIT       IE0
*SFR* 00000088H.3 DATA     BIT       IE1
*SFR* 000000A8H   DATA     BYTE      IEN0
*SFR* 000000B8H   DATA     BYTE      IEN1
*SFR* 000000F8H.3 DATA     BIT       INFEN
*SFR* 000000A6H   DATA     BYTE      INTEXP
*SFR* 000000A9H   DATA     BYTE      IP0
*SFR* 000000B9H   DATA     BYTE      IP1
*SFR* 000000C0H   DATA     BYTE      IRCON
*SFR* 00000088H   DATA     BIT       IT0
*SFR* 00000088H.2 DATA     BIT       IT1
      01000983H   CODE     ---       main
*SFR* 000000F8H.7 DATA     BIT       MCDIS
      01002039H   CODE     ---       mcu_init
*SFR* 000000E9H   DATA     BYTE      MD0
*SFR* 000000EAH   DATA     BYTE      MD1
*SFR* 000000EBH   DATA     BYTE      MD2
*SFR* 000000ECH   DATA     BYTE      MD3
*SFR* 000000EDH   DATA     BYTE      MD4
*SFR* 000000EEH   DATA     BYTE      MD5
*SFR* 000000A7H   DATA     BYTE      MEMCON
*SFR* 000000B8H.4 DATA     BIT       MISC
*SFR* 000000C0H.4 DATA     BIT       MISCF
*SFR* 000000C9H   DATA     BYTE      MPAGE
      010020E0H   CODE     ---       nrf_isr
*SFR* 000000AEH   DATA     BYTE      OPMCON
*SFR* 000000D0H.2 DATA     BIT       OV
*SFR* 000000D0H   DATA     BIT       P
*SFR* 00000080H   DATA     BYTE      P0
*SFR* 00000080H   DATA     BIT       P00
*SFR* 00000080H.1 DATA     BIT       P01
*SFR* 00000080H.2 DATA     BIT       P02
*SFR* 00000080H.3 DATA     BIT       P03
*SFR* 00000080H.4 DATA     BIT       P04
*SFR* 00000080H.5 DATA     BIT       P05
*SFR* 00000080H.6 DATA     BIT       P06
*SFR* 00000080H.7 DATA     BIT       P07
*SFR* 0000009EH   DATA     BYTE      P0CON
*SFR* 00000093H   DATA     BYTE      P0DIR
*SFR* 00000090H   DATA     BYTE      P1
*SFR* 00000090H   DATA     BIT       P10
*SFR* 00000090H.1 DATA     BIT       P11
*SFR* 00000090H.2 DATA     BIT       P12
*SFR* 00000090H.3 DATA     BIT       P13
*SFR* 00000090H.4 DATA     BIT       P14
*SFR* 00000090H.5 DATA     BIT       P15
*SFR* 00000090H.6 DATA     BIT       P16
*SFR* 00000090H.7 DATA     BIT       P17
*SFR* 0000009FH   DATA     BYTE      P1CON
*SFR* 00000094H   DATA     BYTE      P1DIR
*SFR* 000000A0H   DATA     BYTE      P2
*SFR* 000000A0H   DATA     BIT       P20
*SFR* 000000A0H.1 DATA     BIT       P21
*SFR* 000000A0H.2 DATA     BIT       P22
*SFR* 000000A0H.3 DATA     BIT       P23
LX51 LINKER/LOCATER V4.64.0.0                                                         09/06/2013  01:48:08  PAGE 19


*SFR* 000000A0H.4 DATA     BIT       P24
*SFR* 000000A0H.5 DATA     BIT       P25
*SFR* 000000A0H.6 DATA     BIT       P26
*SFR* 000000A0H.7 DATA     BIT       P27
*SFR* 00000097H   DATA     BYTE      P2CON
*SFR* 00000095H   DATA     BYTE      P2DIR
*SFR* 000000B0H   DATA     BYTE      P3
*SFR* 000000B0H   DATA     BIT       P30
*SFR* 000000B0H.1 DATA     BIT       P31
*SFR* 000000B0H.2 DATA     BIT       P32
*SFR* 000000B0H.3 DATA     BIT       P33
*SFR* 000000B0H.4 DATA     BIT       P34
*SFR* 000000B0H.5 DATA     BIT       P35
*SFR* 000000B0H.6 DATA     BIT       P36
*SFR* 000000B0H.7 DATA     BIT       P37
*SFR* 0000008FH   DATA     BYTE      P3CON
*SFR* 00000096H   DATA     BYTE      P3DIR
*SFR* 00000087H   DATA     BYTE      PCON
*SFR* 000000DCH   DATA     BYTE      POFCON
*SFR* 000000D0H   DATA     BYTE      PSW
*SFR* 000000B2H   DATA     BYTE      PWMCON
*SFR* 000000A1H   DATA     BYTE      PWMDC0
*SFR* 000000A2H   DATA     BYTE      PWMDC1
*SFR* 000000A4H   DATA     BYTE      PWRDWN
*SFR* 00000098H.2 DATA     BIT       RB80
*SFR* 000000F8H.1 DATA     BIT       RDEND
*SFR* 000000F8H.2 DATA     BIT       RDIS
*SFR* 000000F8H.4 DATA     BIT       RDYN
*SFR* 00000098H.4 DATA     BIT       REN0
*SFR* 000000B8H.1 DATA     BIT       RF
*SFR* 000000E8H   DATA     BIT       RFCE
*SFR* 000000E8H.2 DATA     BIT       RFCKEN
*SFR* 000000E8H   DATA     BYTE      RFCON
*SFR* 000000E8H.1 DATA     BIT       RFCSN
*SFR* 000000C0H.1 DATA     BIT       RFF
*SFR* 000000B8H   DATA     BIT       RFSPI
*SFR* 000000C0H   DATA     BIT       RFSPIF
*SFR* 00000098H   DATA     BIT       RI0
*SFR* 000000D6H   DATA     BYTE      RNGCTL
*SFR* 000000D7H   DATA     BYTE      RNGDAT
*SFR* 000000D0H.3 DATA     BIT       RS0
*SFR* 000000D0H.4 DATA     BIT       RS1
*SFR* 000000B1H   DATA     BYTE      RSTREAS
*SFR* 000000B4H   DATA     BYTE      RTC2CMP0
*SFR* 000000B5H   DATA     BYTE      RTC2CMP1
*SFR* 000000B3H   DATA     BYTE      RTC2CON
*SFR* 000000B6H   DATA     BYTE      RTC2CPT00
*SFR* 000000ABH   DATA     BYTE      RTC2CPT01
*SFR* 000000ACH   DATA     BYTE      RTC2CPT10
*SFR* 00000099H   DATA     BYTE      S0BUF
*SFR* 00000098H   DATA     BYTE      S0CON
*SFR* 000000BAH   DATA     BYTE      S0RELH
*SFR* 000000AAH   DATA     BYTE      S0RELL
*SFR* 00000098H.7 DATA     BIT       SM0
*SFR* 00000098H.6 DATA     BIT       SM1
*SFR* 00000098H.5 DATA     BIT       SM20
*SFR* 00000081H   DATA     BYTE      SP
*SFR* 000000B8H.2 DATA     BIT       SPI
*SFR* 000000C0H.2 DATA     BIT       SPIF
*SFR* 000000FCH   DATA     BYTE      SPIMCON0
*SFR* 000000FDH   DATA     BYTE      SPIMCON1
*SFR* 000000FFH   DATA     BYTE      SPIMDAT
*SFR* 000000FEH   DATA     BYTE      SPIMSTAT
*SFR* 000000E4H   DATA     BYTE      SPIRCON0
*SFR* 000000E5H   DATA     BYTE      SPIRCON1
LX51 LINKER/LOCATER V4.64.0.0                                                         09/06/2013  01:48:08  PAGE 20


*SFR* 000000E7H   DATA     BYTE      SPIRDAT
*SFR* 000000E6H   DATA     BYTE      SPIRSTAT
*SFR* 000000BCH   DATA     BYTE      SPISCON0
*SFR* 000000BDH   DATA     BYTE      SPISCON1
*SFR* 000000BFH   DATA     BYTE      SPISDAT
*SFR* 000000B7H   DATA     BYTE      SPISRDSZ
*SFR* 000000BEH   DATA     BYTE      SPISSTAT
*SFR* 000000F8H.6 DATA     BIT       STP
*SFR* 000000CCH   DATA     WORD      T2
*SFR* 000000C8H.2 DATA     BIT       T2CM
*SFR* 000000C8H   DATA     BYTE      T2CON
*SFR* 000000C8H   DATA     BIT       T2I0
*SFR* 000000C8H.1 DATA     BIT       T2I1
*SFR* 000000C8H.7 DATA     BIT       T2PS
*SFR* 000000C8H.3 DATA     BIT       T2R0
*SFR* 000000C8H.4 DATA     BIT       T2R1
*SFR* 00000098H.3 DATA     BIT       TB80
*SFR* 00000088H   DATA     BYTE      TCON
*SFR* 00000088H.5 DATA     BIT       TF0
*SFR* 00000088H.7 DATA     BIT       TF1
*SFR* 000000C0H.6 DATA     BIT       TF2
*SFR* 0000008CH   DATA     BYTE      TH0
*SFR* 0000008DH   DATA     BYTE      TH1
*SFR* 000000CDH   DATA     BYTE      TH2
*SFR* 00000098H.1 DATA     BIT       TI0
      01001A00H   CODE     ---       tick_isr
*SFR* 0000008AH   DATA     BYTE      TL0
*SFR* 0000008BH   DATA     BYTE      TL1
*SFR* 000000CCH   DATA     BYTE      TL2
*SFR* 00000089H   DATA     BYTE      TMOD
*SFR* 00000088H.4 DATA     BIT       TR0
*SFR* 00000088H.6 DATA     BIT       TR1
*SFR* 000000E2H   DATA     BYTE      W2CON0
*SFR* 000000E1H   DATA     BYTE      W2CON1
*SFR* 000000DAH   DATA     BYTE      W2DAT
*SFR* 000000D9H   DATA     BYTE      W2SADR
*SFR* 000000AFH   DATA     BYTE      WDSV
*SFR* 000000F8H.5 DATA     BIT       WEN
*SFR* 000000F8H   DATA     BIT       WPEN
*SFR* 000000A5H   DATA     BYTE      WUCON
*SFR* 000000C0H.5 DATA     BIT       WUF
*SFR* 000000B8H.5 DATA     BIT       WUIRQ
*SFR* 000000CFH   DATA     BYTE      WUOPC0
*SFR* 000000CEH   DATA     BYTE      WUOPC1
*SFR* 000000B8H.3 DATA     BIT       WUPIN
*SFR* 000000C0H.3 DATA     BIT       WUPINF



SYMBOL TABLE OF MODULE:  .\build\gzll_host_w_dyn_pair_nrf24le1 (MAIN)

      VALUE       REP       CLASS    TYPE      SYMBOL NAME
      ====================================================
      ---         MODULE    ---      ---       MAIN
      01000983H   PUBLIC    CODE     ---       main
      00000098H.3 SFRSYM    DATA     BIT       TB80
      000000BEH   SFRSYM    DATA     BYTE      SPISSTAT
      000000C8H   SFRSYM    DATA     BIT       T2I0
      000000C3H   SFRSYM    DATA     BYTE      CCH1
      00000080H   SFRSYM    DATA     BYTE      P0
      000000C8H.1 SFRSYM    DATA     BIT       T2I1
      000000DFH   SFRSYM    DATA     BYTE      CCPDATO
      000000C5H   SFRSYM    DATA     BYTE      CCH2
      00000090H   SFRSYM    DATA     BYTE      P1
      000000C7H   SFRSYM    DATA     BYTE      CCH3
LX51 LINKER/LOCATER V4.64.0.0                                                         09/06/2013  01:48:08  PAGE 21


      000000A0H   SFRSYM    DATA     BYTE      P2
      00000098H.5 SFRSYM    DATA     BIT       SM20
      000000B0H   SFRSYM    DATA     BYTE      P3
      000000D0H.6 SFRSYM    DATA     BIT       AC
      000000C2H   SFRSYM    DATA     BYTE      CCL1
      000000C4H   SFRSYM    DATA     BYTE      CCL2
      000000D8H.7 SFRSYM    DATA     BIT       BD
      000000B8H   SFRSYM    DATA     BIT       RFSPI
      000000A8H.7 SFRSYM    DATA     BIT       EA
      000000CCH   SFRSYM    DATA     WORD      T2
      000000C6H   SFRSYM    DATA     BYTE      CCL3
      000000B7H   SFRSYM    DATA     BYTE      SPISRDSZ
      000000C8H.3 SFRSYM    DATA     BIT       T2R0
      000000C8H.4 SFRSYM    DATA     BIT       T2R1
      000000A8H   SFRSYM    DATA     BYTE      IEN0
      000000B8H   SFRSYM    DATA     BYTE      IEN1
      000000A5H   SFRSYM    DATA     BYTE      WUCON
      00000085H   SFRSYM    DATA     BYTE      DPH1
      000000DBH   SFRSYM    DATA     BYTE      COMPCON
      000000A3H   SFRSYM    DATA     BYTE      CLKCTRL
      00000084H   SFRSYM    DATA     BYTE      DPL1
      000000C8H.5 SFRSYM    DATA     BIT       I2FR
      000000B8H.3 SFRSYM    DATA     BIT       WUPIN
      000000C8H.6 SFRSYM    DATA     BIT       I3FR
      000000FFH   SFRSYM    DATA     BYTE      SPIMDAT
      000000C0H.7 SFRSYM    DATA     BIT       EXF2
      00000098H.4 SFRSYM    DATA     BIT       REN0
      000000C8H.2 SFRSYM    DATA     BIT       T2CM
      000000B8H.1 SFRSYM    DATA     BIT       RF
      000000B8H.5 SFRSYM    DATA     BIT       WUIRQ
      000000E7H   SFRSYM    DATA     BYTE      SPIRDAT
      000000C1H   SFRSYM    DATA     BYTE      CCEN
      000000E2H   SFRSYM    DATA     BYTE      W2CON0
      000000BFH   SFRSYM    DATA     BYTE      SPISDAT
      000000D0H.7 SFRSYM    DATA     BIT       CY
      000000E1H   SFRSYM    DATA     BYTE      W2CON1
      000000FBH   SFRSYM    DATA     BYTE      FDCR
      000000E8H   SFRSYM    DATA     BIT       RFCE
      000000CBH   SFRSYM    DATA     BYTE      CRCH
      00000081H   SFRSYM    DATA     BYTE      SP
      000000D0H.2 SFRSYM    DATA     BIT       OV
      000000CAH   SFRSYM    DATA     BYTE      CRCL
      000000ADH   SFRSYM    DATA     BYTE      CLKLFCTRL
      000000B1H   SFRSYM    DATA     BYTE      RSTREAS
      000000C8H.7 SFRSYM    DATA     BIT       T2PS
      000000F9H   SFRSYM    DATA     BYTE      FPCR
      000000B8H.4 SFRSYM    DATA     BIT       MISC
      000000A1H   SFRSYM    DATA     BYTE      PWMDC0
      000000B4H   SFRSYM    DATA     BYTE      RTC2CMP0
      000000A2H   SFRSYM    DATA     BYTE      PWMDC1
      000000B5H   SFRSYM    DATA     BYTE      RTC2CMP1
      00000080H   SFRSYM    DATA     BIT       P00
      000000BAH   SFRSYM    DATA     BYTE      S0RELH
      00000090H   SFRSYM    DATA     BIT       P10
      00000080H.1 SFRSYM    DATA     BIT       P01
      00000087H   SFRSYM    DATA     BYTE      PCON
      000000A0H   SFRSYM    DATA     BIT       P20
      00000090H.1 SFRSYM    DATA     BIT       P11
      00000080H.2 SFRSYM    DATA     BIT       P02
      000000B0H   SFRSYM    DATA     BIT       P30
      000000A0H.1 SFRSYM    DATA     BIT       P21
      00000090H.2 SFRSYM    DATA     BIT       P12
      00000080H.3 SFRSYM    DATA     BIT       P03
      000000C0H.2 SFRSYM    DATA     BIT       SPIF
      000000F8H.2 SFRSYM    DATA     BIT       RDIS
LX51 LINKER/LOCATER V4.64.0.0                                                         09/06/2013  01:48:08  PAGE 22


      000000B0H.1 SFRSYM    DATA     BIT       P31
      000000A0H.2 SFRSYM    DATA     BIT       P22
      00000090H.3 SFRSYM    DATA     BIT       P13
      00000080H.4 SFRSYM    DATA     BIT       P04
      000000AAH   SFRSYM    DATA     BYTE      S0RELL
      000000B0H.2 SFRSYM    DATA     BIT       P32
      000000A0H.3 SFRSYM    DATA     BIT       P23
      00000090H.4 SFRSYM    DATA     BIT       P14
      00000080H.5 SFRSYM    DATA     BIT       P05
      000000D9H   SFRSYM    DATA     BYTE      W2SADR
      00000089H   SFRSYM    DATA     BYTE      TMOD
      00000088H   SFRSYM    DATA     BYTE      TCON
      000000B0H.3 SFRSYM    DATA     BIT       P33
      000000A0H.4 SFRSYM    DATA     BIT       P24
      00000090H.5 SFRSYM    DATA     BIT       P15
      00000080H.6 SFRSYM    DATA     BIT       P06
      000000B0H.4 SFRSYM    DATA     BIT       P34
      000000A0H.5 SFRSYM    DATA     BIT       P25
      00000090H.6 SFRSYM    DATA     BIT       P16
      00000080H.7 SFRSYM    DATA     BIT       P07
      000000C2H   SFRSYM    DATA     WORD      CC1
      000000B0H.5 SFRSYM    DATA     BIT       P35
      000000A0H.6 SFRSYM    DATA     BIT       P26
      00000090H.7 SFRSYM    DATA     BIT       P17
      000000C4H   SFRSYM    DATA     WORD      CC2
      000000B0H.6 SFRSYM    DATA     BIT       P36
      000000A0H.7 SFRSYM    DATA     BIT       P27
      000000C6H   SFRSYM    DATA     WORD      CC3
      000000B0H.7 SFRSYM    DATA     BIT       P37
      000000E8H.2 SFRSYM    DATA     BIT       RFCKEN
      000000F8H   SFRSYM    DATA     BIT       WPEN
      000000DDH   SFRSYM    DATA     BYTE      CCPDATIA
      000000DEH   SFRSYM    DATA     BYTE      CCPDATIB
      00000088H.1 SFRSYM    DATA     BIT       IE0
      000000F8H.4 SFRSYM    DATA     BIT       RDYN
      00000088H.3 SFRSYM    DATA     BIT       IE1
      000000CFH   SFRSYM    DATA     BYTE      WUOPC0
      000000F0H   SFRSYM    DATA     BYTE      B
      000000E9H   SFRSYM    DATA     BYTE      MD0
      000000CEH   SFRSYM    DATA     BYTE      WUOPC1
      000000A7H   SFRSYM    DATA     BYTE      MEMCON
      000000EAH   SFRSYM    DATA     BYTE      MD1
      000000D7H   SFRSYM    DATA     BYTE      RNGDAT
      000000EBH   SFRSYM    DATA     BYTE      MD2
      000000ECH   SFRSYM    DATA     BYTE      MD3
      000000EDH   SFRSYM    DATA     BYTE      MD4
      000000AFH   SFRSYM    DATA     BYTE      WDSV
      000000EEH   SFRSYM    DATA     BYTE      MD5
      000000E0H   SFRSYM    DATA     BYTE      ACC
      000000DCH   SFRSYM    DATA     BYTE      POFCON
      000000A8H.4 SFRSYM    DATA     BIT       ES0
      000000A8H.1 SFRSYM    DATA     BIT       ET0
      000000A9H   SFRSYM    DATA     BYTE      IP0
      000000A8H.3 SFRSYM    DATA     BIT       ET1
      00000088H.5 SFRSYM    DATA     BIT       TF0
      000000B9H   SFRSYM    DATA     BYTE      IP1
      000000A8H.5 SFRSYM    DATA     BIT       ET2
      00000098H   SFRSYM    DATA     BIT       RI0
      00000088H.7 SFRSYM    DATA     BIT       TF1
      000000C0H   SFRSYM    DATA     BIT       RFSPIF
      000000C0H.6 SFRSYM    DATA     BIT       TF2
      000000FCH   SFRSYM    DATA     BYTE      SPIMCON0
      000000D6H   SFRSYM    DATA     BYTE      RNGCTL
      0000008CH   SFRSYM    DATA     BYTE      TH0
      000000A8H   SFRSYM    DATA     BIT       EX0
LX51 LINKER/LOCATER V4.64.0.0                                                         09/06/2013  01:48:08  PAGE 23


      00000098H.1 SFRSYM    DATA     BIT       TI0
      00000088H   SFRSYM    DATA     BIT       IT0
      000000FDH   SFRSYM    DATA     BYTE      SPIMCON1
      0000008DH   SFRSYM    DATA     BYTE      TH1
      000000A8H.2 SFRSYM    DATA     BIT       EX1
      00000088H.2 SFRSYM    DATA     BIT       IT1
      000000CDH   SFRSYM    DATA     BYTE      TH2
      000000AEH   SFRSYM    DATA     BYTE      OPMCON
      000000D0H   SFRSYM    DATA     BIT       P
      00000098H.7 SFRSYM    DATA     BIT       SM0
      0000008AH   SFRSYM    DATA     BYTE      TL0
      00000098H.6 SFRSYM    DATA     BIT       SM1
      000000E4H   SFRSYM    DATA     BYTE      SPIRCON0
      0000008BH   SFRSYM    DATA     BYTE      TL1
      000000E5H   SFRSYM    DATA     BYTE      SPIRCON1
      000000CCH   SFRSYM    DATA     BYTE      TL2
      000000BCH   SFRSYM    DATA     BYTE      SPISCON0
      000000BDH   SFRSYM    DATA     BYTE      SPISCON1
      000000D0H.3 SFRSYM    DATA     BIT       RS0
      00000088H.4 SFRSYM    DATA     BIT       TR0
      000000D0H.4 SFRSYM    DATA     BIT       RS1
      000000B2H   SFRSYM    DATA     BYTE      PWMCON
      00000088H.6 SFRSYM    DATA     BIT       TR1
      000000CAH   SFRSYM    DATA     WORD      CRC
      000000A6H   SFRSYM    DATA     BYTE      INTEXP
      000000C0H.3 SFRSYM    DATA     BIT       WUPINF
      000000FAH   SFRSYM    DATA     BYTE      FCR
      000000D3H   SFRSYM    DATA     BYTE      ADCCON1
      000000D2H   SFRSYM    DATA     BYTE      ADCCON2
      00000083H   SFRSYM    DATA     BYTE      DPH
      000000D1H   SFRSYM    DATA     BYTE      ADCCON3
      000000C0H.1 SFRSYM    DATA     BIT       RFF
      00000093H   SFRSYM    DATA     BYTE      P0DIR
      00000082H   SFRSYM    DATA     BYTE      DPL
      0000009EH   SFRSYM    DATA     BYTE      P0CON
      00000099H   SFRSYM    DATA     BYTE      S0BUF
      00000094H   SFRSYM    DATA     BYTE      P1DIR
      0000009FH   SFRSYM    DATA     BYTE      P1CON
      00000095H   SFRSYM    DATA     BYTE      P2DIR
      000000B8H.7 SFRSYM    DATA     BIT       EXEN2
      000000DAH   SFRSYM    DATA     BYTE      W2DAT
      00000097H   SFRSYM    DATA     BYTE      P2CON
      00000096H   SFRSYM    DATA     BYTE      P3DIR
      000000A4H   SFRSYM    DATA     BYTE      PWRDWN
      00000098H   SFRSYM    DATA     BYTE      S0CON
      0000008FH   SFRSYM    DATA     BYTE      P3CON
      000000B6H   SFRSYM    DATA     BYTE      RTC2CPT00
      000000D8H   SFRSYM    DATA     BYTE      ADCON
      000000ACH   SFRSYM    DATA     BYTE      RTC2CPT10
      000000ABH   SFRSYM    DATA     BYTE      RTC2CPT01
      000000C8H   SFRSYM    DATA     BYTE      T2CON
      00000092H   SFRSYM    DATA     BYTE      DPS
      000000F8H.5 SFRSYM    DATA     BIT       WEN
      000000F8H   SFRSYM    DATA     BYTE      FSR
      000000D4H   SFRSYM    DATA     BYTE      ADCDATH
      000000C9H   SFRSYM    DATA     BYTE      MPAGE
      000000B8H.2 SFRSYM    DATA     BIT       SPI
      000000F8H.1 SFRSYM    DATA     BIT       RDEND
      000000D5H   SFRSYM    DATA     BYTE      ADCDATL
      000000F8H.3 SFRSYM    DATA     BIT       INFEN
      000000F8H.7 SFRSYM    DATA     BIT       MCDIS
      000000C0H.5 SFRSYM    DATA     BIT       WUF
      000000C0H.4 SFRSYM    DATA     BIT       MISCF
      000000EFH   SFRSYM    DATA     BYTE      ARCON
      000000D0H.5 SFRSYM    DATA     BIT       F0
LX51 LINKER/LOCATER V4.64.0.0                                                         09/06/2013  01:48:08  PAGE 24


      000000F8H.6 SFRSYM    DATA     BIT       STP
      000000FEH   SFRSYM    DATA     BYTE      SPIMSTAT
      000000E8H   SFRSYM    DATA     BYTE      RFCON
      000000D0H   SFRSYM    DATA     BYTE      PSW
      00000098H.2 SFRSYM    DATA     BIT       RB80
      000000C0H   SFRSYM    DATA     BYTE      IRCON
      000000E8H.1 SFRSYM    DATA     BIT       RFCSN
      000000E6H   SFRSYM    DATA     BYTE      SPIRSTAT
      000000B3H   SFRSYM    DATA     BYTE      RTC2CON

      01000983H   BLOCK     CODE     ---       LVL=0
      01000983H   LINE      ---      ---       #43
      01000983H   LINE      ---      ---       #44
      01000983H   BLOCK     CODE     NEAR LAB  LVL=1
      01000983H   LINE      ---      ---       #47
      01000986H   LINE      ---      ---       #48
      01000988H   LINE      ---      ---       #49
      0100098AH   LINE      ---      ---       #50
      0100098EH   LINE      ---      ---       #53
      0100099CH   LINE      ---      ---       #56
      0100099FH   LINE      ---      ---       #58
      010009A1H   LINE      ---      ---       #61
      010009A3H   LINE      ---      ---       #63
      010009A3H   LINE      ---      ---       #64
      010009A3H   LINE      ---      ---       #66
      010009A5H   LINE      ---      ---       #69
      010009ABH   LINE      ---      ---       #70
      010009ABH   LINE      ---      ---       #72
      010009AEH   LINE      ---      ---       #73
      010009AEH   LINE      ---      ---       #76
      010009BBH   LINE      ---      ---       #77
      010009BBH   LINE      ---      ---       #79
      010009D8H   LINE      ---      ---       #80
      010009D8H   LINE      ---      ---       #82
      010009DEH   LINE      ---      ---       #83
      010009E0H   LINE      ---      ---       #85
      010009E0H   LINE      ---      ---       #87
      010009F2H   LINE      ---      ---       #89
      010009F8H   LINE      ---      ---       #90
      010009F8H   LINE      ---      ---       #91
      010009F8H   LINE      ---      ---       #92
      02000017H   SYMBOL    XDATA    ---       payload
      ---         BLOCKEND  CODE     ---       LVL=1
      ---         BLOCKEND  CODE     ---       LVL=0

      ---         MODULE    ---      ---       GZLL_TIMER_ISR
      01001A00H   PUBLIC    CODE     ---       tick_isr
      00000098H.3 SFRSYM    DATA     BIT       TB80
      000000BEH   SFRSYM    DATA     BYTE      SPISSTAT
      000000C8H   SFRSYM    DATA     BIT       T2I0
      000000C3H   SFRSYM    DATA     BYTE      CCH1
      00000080H   SFRSYM    DATA     BYTE      P0
      000000C8H.1 SFRSYM    DATA     BIT       T2I1
      000000DFH   SFRSYM    DATA     BYTE      CCPDATO
      000000C5H   SFRSYM    DATA     BYTE      CCH2
      00000090H   SFRSYM    DATA     BYTE      P1
      000000C7H   SFRSYM    DATA     BYTE      CCH3
      000000A0H   SFRSYM    DATA     BYTE      P2
      00000098H.5 SFRSYM    DATA     BIT       SM20
      000000B0H   SFRSYM    DATA     BYTE      P3
      000000D0H.6 SFRSYM    DATA     BIT       AC
      000000C2H   SFRSYM    DATA     BYTE      CCL1
      000000C4H   SFRSYM    DATA     BYTE      CCL2
      000000D8H.7 SFRSYM    DATA     BIT       BD
      000000B8H   SFRSYM    DATA     BIT       RFSPI
LX51 LINKER/LOCATER V4.64.0.0                                                         09/06/2013  01:48:08  PAGE 25


      000000A8H.7 SFRSYM    DATA     BIT       EA
      000000CCH   SFRSYM    DATA     WORD      T2
      000000C6H   SFRSYM    DATA     BYTE      CCL3
      000000B7H   SFRSYM    DATA     BYTE      SPISRDSZ
      000000C8H.3 SFRSYM    DATA     BIT       T2R0
      000000C8H.4 SFRSYM    DATA     BIT       T2R1
      000000A8H   SFRSYM    DATA     BYTE      IEN0
      000000B8H   SFRSYM    DATA     BYTE      IEN1
      000000A5H   SFRSYM    DATA     BYTE      WUCON
      00000085H   SFRSYM    DATA     BYTE      DPH1
      000000DBH   SFRSYM    DATA     BYTE      COMPCON
      000000A3H   SFRSYM    DATA     BYTE      CLKCTRL
      00000084H   SFRSYM    DATA     BYTE      DPL1
      000000C8H.5 SFRSYM    DATA     BIT       I2FR
      000000B8H.3 SFRSYM    DATA     BIT       WUPIN
      000000C8H.6 SFRSYM    DATA     BIT       I3FR
      000000FFH   SFRSYM    DATA     BYTE      SPIMDAT
      000000C0H.7 SFRSYM    DATA     BIT       EXF2
      00000098H.4 SFRSYM    DATA     BIT       REN0
      000000C8H.2 SFRSYM    DATA     BIT       T2CM
      000000B8H.1 SFRSYM    DATA     BIT       RF
      000000B8H.5 SFRSYM    DATA     BIT       WUIRQ
      000000E7H   SFRSYM    DATA     BYTE      SPIRDAT
      000000C1H   SFRSYM    DATA     BYTE      CCEN
      000000E2H   SFRSYM    DATA     BYTE      W2CON0
      000000BFH   SFRSYM    DATA     BYTE      SPISDAT
      000000D0H.7 SFRSYM    DATA     BIT       CY
      000000E1H   SFRSYM    DATA     BYTE      W2CON1
      000000FBH   SFRSYM    DATA     BYTE      FDCR
      000000E8H   SFRSYM    DATA     BIT       RFCE
      000000CBH   SFRSYM    DATA     BYTE      CRCH
      00000081H   SFRSYM    DATA     BYTE      SP
      000000D0H.2 SFRSYM    DATA     BIT       OV
      000000CAH   SFRSYM    DATA     BYTE      CRCL
      000000ADH   SFRSYM    DATA     BYTE      CLKLFCTRL
      000000B1H   SFRSYM    DATA     BYTE      RSTREAS
      000000C8H.7 SFRSYM    DATA     BIT       T2PS
      000000F9H   SFRSYM    DATA     BYTE      FPCR
      000000B8H.4 SFRSYM    DATA     BIT       MISC
      000000A1H   SFRSYM    DATA     BYTE      PWMDC0
      000000B4H   SFRSYM    DATA     BYTE      RTC2CMP0
      000000A2H   SFRSYM    DATA     BYTE      PWMDC1
      000000B5H   SFRSYM    DATA     BYTE      RTC2CMP1
      00000080H   SFRSYM    DATA     BIT       P00
      000000BAH   SFRSYM    DATA     BYTE      S0RELH
      00000090H   SFRSYM    DATA     BIT       P10
      00000080H.1 SFRSYM    DATA     BIT       P01
      00000087H   SFRSYM    DATA     BYTE      PCON
      000000A0H   SFRSYM    DATA     BIT       P20
      00000090H.1 SFRSYM    DATA     BIT       P11
      00000080H.2 SFRSYM    DATA     BIT       P02
      000000B0H   SFRSYM    DATA     BIT       P30
      000000A0H.1 SFRSYM    DATA     BIT       P21
      00000090H.2 SFRSYM    DATA     BIT       P12
      00000080H.3 SFRSYM    DATA     BIT       P03
      000000C0H.2 SFRSYM    DATA     BIT       SPIF
      000000F8H.2 SFRSYM    DATA     BIT       RDIS
      000000B0H.1 SFRSYM    DATA     BIT       P31
      000000A0H.2 SFRSYM    DATA     BIT       P22
      00000090H.3 SFRSYM    DATA     BIT       P13
      00000080H.4 SFRSYM    DATA     BIT       P04
      000000AAH   SFRSYM    DATA     BYTE      S0RELL
      000000B0H.2 SFRSYM    DATA     BIT       P32
      000000A0H.3 SFRSYM    DATA     BIT       P23
      00000090H.4 SFRSYM    DATA     BIT       P14
LX51 LINKER/LOCATER V4.64.0.0                                                         09/06/2013  01:48:08  PAGE 26


      00000080H.5 SFRSYM    DATA     BIT       P05
      000000D9H   SFRSYM    DATA     BYTE      W2SADR
      00000089H   SFRSYM    DATA     BYTE      TMOD
      00000088H   SFRSYM    DATA     BYTE      TCON
      000000B0H.3 SFRSYM    DATA     BIT       P33
      000000A0H.4 SFRSYM    DATA     BIT       P24
      00000090H.5 SFRSYM    DATA     BIT       P15
      00000080H.6 SFRSYM    DATA     BIT       P06
      000000B0H.4 SFRSYM    DATA     BIT       P34
      000000A0H.5 SFRSYM    DATA     BIT       P25
      00000090H.6 SFRSYM    DATA     BIT       P16
      00000080H.7 SFRSYM    DATA     BIT       P07
      000000C2H   SFRSYM    DATA     WORD      CC1
      000000B0H.5 SFRSYM    DATA     BIT       P35
      000000A0H.6 SFRSYM    DATA     BIT       P26
      00000090H.7 SFRSYM    DATA     BIT       P17
      000000C4H   SFRSYM    DATA     WORD      CC2
      000000B0H.6 SFRSYM    DATA     BIT       P36
      000000A0H.7 SFRSYM    DATA     BIT       P27
      000000C6H   SFRSYM    DATA     WORD      CC3
      000000B0H.7 SFRSYM    DATA     BIT       P37
      000000E8H.2 SFRSYM    DATA     BIT       RFCKEN
      000000F8H   SFRSYM    DATA     BIT       WPEN
      000000DDH   SFRSYM    DATA     BYTE      CCPDATIA
      000000DEH   SFRSYM    DATA     BYTE      CCPDATIB
      00000088H.1 SFRSYM    DATA     BIT       IE0
      000000F8H.4 SFRSYM    DATA     BIT       RDYN
      00000088H.3 SFRSYM    DATA     BIT       IE1
      000000CFH   SFRSYM    DATA     BYTE      WUOPC0
      000000F0H   SFRSYM    DATA     BYTE      B
      000000E9H   SFRSYM    DATA     BYTE      MD0
      000000CEH   SFRSYM    DATA     BYTE      WUOPC1
      000000A7H   SFRSYM    DATA     BYTE      MEMCON
      000000EAH   SFRSYM    DATA     BYTE      MD1
      000000D7H   SFRSYM    DATA     BYTE      RNGDAT
      000000EBH   SFRSYM    DATA     BYTE      MD2
      000000ECH   SFRSYM    DATA     BYTE      MD3
      000000EDH   SFRSYM    DATA     BYTE      MD4
      000000AFH   SFRSYM    DATA     BYTE      WDSV
      000000EEH   SFRSYM    DATA     BYTE      MD5
      000000E0H   SFRSYM    DATA     BYTE      ACC
      000000DCH   SFRSYM    DATA     BYTE      POFCON
      000000A8H.4 SFRSYM    DATA     BIT       ES0
      000000A8H.1 SFRSYM    DATA     BIT       ET0
      000000A9H   SFRSYM    DATA     BYTE      IP0
      000000A8H.3 SFRSYM    DATA     BIT       ET1
      00000088H.5 SFRSYM    DATA     BIT       TF0
      000000B9H   SFRSYM    DATA     BYTE      IP1
      000000A8H.5 SFRSYM    DATA     BIT       ET2
      00000098H   SFRSYM    DATA     BIT       RI0
      00000088H.7 SFRSYM    DATA     BIT       TF1
      000000C0H   SFRSYM    DATA     BIT       RFSPIF
      000000C0H.6 SFRSYM    DATA     BIT       TF2
      000000FCH   SFRSYM    DATA     BYTE      SPIMCON0
      000000D6H   SFRSYM    DATA     BYTE      RNGCTL
      0000008CH   SFRSYM    DATA     BYTE      TH0
      000000A8H   SFRSYM    DATA     BIT       EX0
      00000098H.1 SFRSYM    DATA     BIT       TI0
      00000088H   SFRSYM    DATA     BIT       IT0
      000000FDH   SFRSYM    DATA     BYTE      SPIMCON1
      0000008DH   SFRSYM    DATA     BYTE      TH1
      000000A8H.2 SFRSYM    DATA     BIT       EX1
      00000088H.2 SFRSYM    DATA     BIT       IT1
      000000CDH   SFRSYM    DATA     BYTE      TH2
      000000AEH   SFRSYM    DATA     BYTE      OPMCON
LX51 LINKER/LOCATER V4.64.0.0                                                         09/06/2013  01:48:08  PAGE 27


      000000D0H   SFRSYM    DATA     BIT       P
      00000098H.7 SFRSYM    DATA     BIT       SM0
      0000008AH   SFRSYM    DATA     BYTE      TL0
      00000098H.6 SFRSYM    DATA     BIT       SM1
      000000E4H   SFRSYM    DATA     BYTE      SPIRCON0
      0000008BH   SFRSYM    DATA     BYTE      TL1
      000000E5H   SFRSYM    DATA     BYTE      SPIRCON1
      000000CCH   SFRSYM    DATA     BYTE      TL2
      000000BCH   SFRSYM    DATA     BYTE      SPISCON0
      000000BDH   SFRSYM    DATA     BYTE      SPISCON1
      000000D0H.3 SFRSYM    DATA     BIT       RS0
      00000088H.4 SFRSYM    DATA     BIT       TR0
      000000D0H.4 SFRSYM    DATA     BIT       RS1
      000000B2H   SFRSYM    DATA     BYTE      PWMCON
      00000088H.6 SFRSYM    DATA     BIT       TR1
      000000CAH   SFRSYM    DATA     WORD      CRC
      000000A6H   SFRSYM    DATA     BYTE      INTEXP
      000000C0H.3 SFRSYM    DATA     BIT       WUPINF
      000000FAH   SFRSYM    DATA     BYTE      FCR
      000000D3H   SFRSYM    DATA     BYTE      ADCCON1
      000000D2H   SFRSYM    DATA     BYTE      ADCCON2
      00000083H   SFRSYM    DATA     BYTE      DPH
      000000D1H   SFRSYM    DATA     BYTE      ADCCON3
      000000C0H.1 SFRSYM    DATA     BIT       RFF
      00000093H   SFRSYM    DATA     BYTE      P0DIR
      00000082H   SFRSYM    DATA     BYTE      DPL
      0000009EH   SFRSYM    DATA     BYTE      P0CON
      00000099H   SFRSYM    DATA     BYTE      S0BUF
      00000094H   SFRSYM    DATA     BYTE      P1DIR
      0000009FH   SFRSYM    DATA     BYTE      P1CON
      00000095H   SFRSYM    DATA     BYTE      P2DIR
      000000B8H.7 SFRSYM    DATA     BIT       EXEN2
      000000DAH   SFRSYM    DATA     BYTE      W2DAT
      00000097H   SFRSYM    DATA     BYTE      P2CON
      00000096H   SFRSYM    DATA     BYTE      P3DIR
      000000A4H   SFRSYM    DATA     BYTE      PWRDWN
      00000098H   SFRSYM    DATA     BYTE      S0CON
      0000008FH   SFRSYM    DATA     BYTE      P3CON
      000000B6H   SFRSYM    DATA     BYTE      RTC2CPT00
      000000D8H   SFRSYM    DATA     BYTE      ADCON
      000000ACH   SFRSYM    DATA     BYTE      RTC2CPT10
      000000ABH   SFRSYM    DATA     BYTE      RTC2CPT01
      000000C8H   SFRSYM    DATA     BYTE      T2CON
      00000092H   SFRSYM    DATA     BYTE      DPS
      000000F8H.5 SFRSYM    DATA     BIT       WEN
      000000F8H   SFRSYM    DATA     BYTE      FSR
      000000D4H   SFRSYM    DATA     BYTE      ADCDATH
      000000C9H   SFRSYM    DATA     BYTE      MPAGE
      000000B8H.2 SFRSYM    DATA     BIT       SPI
      000000F8H.1 SFRSYM    DATA     BIT       RDEND
      000000D5H   SFRSYM    DATA     BYTE      ADCDATL
      000000F8H.3 SFRSYM    DATA     BIT       INFEN
      000000F8H.7 SFRSYM    DATA     BIT       MCDIS
      000000C0H.5 SFRSYM    DATA     BIT       WUF
      000000C0H.4 SFRSYM    DATA     BIT       MISCF
      000000EFH   SFRSYM    DATA     BYTE      ARCON
      000000D0H.5 SFRSYM    DATA     BIT       F0
      000000F8H.6 SFRSYM    DATA     BIT       STP
      000000FEH   SFRSYM    DATA     BYTE      SPIMSTAT
      000000E8H   SFRSYM    DATA     BYTE      RFCON
      000000D0H   SFRSYM    DATA     BYTE      PSW
      00000098H.2 SFRSYM    DATA     BIT       RB80
      000000C0H   SFRSYM    DATA     BYTE      IRCON
      000000E8H.1 SFRSYM    DATA     BIT       RFCSN
      000000E6H   SFRSYM    DATA     BYTE      SPIRSTAT
LX51 LINKER/LOCATER V4.64.0.0                                                         09/06/2013  01:48:08  PAGE 28


      000000B3H   SFRSYM    DATA     BYTE      RTC2CON

      01001A00H   BLOCK     CODE     ---       LVL=0
      01001A26H   LINE      ---      ---       #21
      01001A26H   LINE      ---      ---       #23
      01001A28H   LINE      ---      ---       #24
      ---         BLOCKEND  ---      ---       LVL=0

      ---         MODULE    ---      ---       GZLL_MCU
      0100204CH   PUBLIC    CODE     ---       _gzll_set_timer_period
      01002039H   PUBLIC    CODE     ---       mcu_init
      00000098H.3 SFRSYM    DATA     BIT       TB80
      000000BEH   SFRSYM    DATA     BYTE      SPISSTAT
      000000C8H   SFRSYM    DATA     BIT       T2I0
      000000C3H   SFRSYM    DATA     BYTE      CCH1
      00000080H   SFRSYM    DATA     BYTE      P0
      000000C8H.1 SFRSYM    DATA     BIT       T2I1
      000000DFH   SFRSYM    DATA     BYTE      CCPDATO
      000000C5H   SFRSYM    DATA     BYTE      CCH2
      00000090H   SFRSYM    DATA     BYTE      P1
      000000C7H   SFRSYM    DATA     BYTE      CCH3
      000000A0H   SFRSYM    DATA     BYTE      P2
      00000098H.5 SFRSYM    DATA     BIT       SM20
      000000B0H   SFRSYM    DATA     BYTE      P3
      000000D0H.6 SFRSYM    DATA     BIT       AC
      000000C2H   SFRSYM    DATA     BYTE      CCL1
      000000C4H   SFRSYM    DATA     BYTE      CCL2
      000000D8H.7 SFRSYM    DATA     BIT       BD
      000000B8H   SFRSYM    DATA     BIT       RFSPI
      000000A8H.7 SFRSYM    DATA     BIT       EA
      000000CCH   SFRSYM    DATA     WORD      T2
      000000C6H   SFRSYM    DATA     BYTE      CCL3
      000000B7H   SFRSYM    DATA     BYTE      SPISRDSZ
      000000C8H.3 SFRSYM    DATA     BIT       T2R0
      000000C8H.4 SFRSYM    DATA     BIT       T2R1
      000000A8H   SFRSYM    DATA     BYTE      IEN0
      000000B8H   SFRSYM    DATA     BYTE      IEN1
      000000A5H   SFRSYM    DATA     BYTE      WUCON
      00000085H   SFRSYM    DATA     BYTE      DPH1
      000000DBH   SFRSYM    DATA     BYTE      COMPCON
      000000A3H   SFRSYM    DATA     BYTE      CLKCTRL
      00000084H   SFRSYM    DATA     BYTE      DPL1
      000000C8H.5 SFRSYM    DATA     BIT       I2FR
      000000B8H.3 SFRSYM    DATA     BIT       WUPIN
      000000C8H.6 SFRSYM    DATA     BIT       I3FR
      000000FFH   SFRSYM    DATA     BYTE      SPIMDAT
      000000C0H.7 SFRSYM    DATA     BIT       EXF2
      00000098H.4 SFRSYM    DATA     BIT       REN0
      000000C8H.2 SFRSYM    DATA     BIT       T2CM
      000000B8H.1 SFRSYM    DATA     BIT       RF
      000000B8H.5 SFRSYM    DATA     BIT       WUIRQ
      000000E7H   SFRSYM    DATA     BYTE      SPIRDAT
      000000C1H   SFRSYM    DATA     BYTE      CCEN
      000000E2H   SFRSYM    DATA     BYTE      W2CON0
      000000BFH   SFRSYM    DATA     BYTE      SPISDAT
      000000D0H.7 SFRSYM    DATA     BIT       CY
      000000E1H   SFRSYM    DATA     BYTE      W2CON1
      000000FBH   SFRSYM    DATA     BYTE      FDCR
      000000E8H   SFRSYM    DATA     BIT       RFCE
      000000CBH   SFRSYM    DATA     BYTE      CRCH
      00000081H   SFRSYM    DATA     BYTE      SP
      000000D0H.2 SFRSYM    DATA     BIT       OV
      000000CAH   SFRSYM    DATA     BYTE      CRCL
      000000ADH   SFRSYM    DATA     BYTE      CLKLFCTRL
      000000B1H   SFRSYM    DATA     BYTE      RSTREAS
LX51 LINKER/LOCATER V4.64.0.0                                                         09/06/2013  01:48:08  PAGE 29


      000000C8H.7 SFRSYM    DATA     BIT       T2PS
      000000F9H   SFRSYM    DATA     BYTE      FPCR
      000000B8H.4 SFRSYM    DATA     BIT       MISC
      000000A1H   SFRSYM    DATA     BYTE      PWMDC0
      000000B4H   SFRSYM    DATA     BYTE      RTC2CMP0
      000000A2H   SFRSYM    DATA     BYTE      PWMDC1
      000000B5H   SFRSYM    DATA     BYTE      RTC2CMP1
      00000080H   SFRSYM    DATA     BIT       P00
      000000BAH   SFRSYM    DATA     BYTE      S0RELH
      00000090H   SFRSYM    DATA     BIT       P10
      00000080H.1 SFRSYM    DATA     BIT       P01
      00000087H   SFRSYM    DATA     BYTE      PCON
      000000A0H   SFRSYM    DATA     BIT       P20
      00000090H.1 SFRSYM    DATA     BIT       P11
      00000080H.2 SFRSYM    DATA     BIT       P02
      000000B0H   SFRSYM    DATA     BIT       P30
      000000A0H.1 SFRSYM    DATA     BIT       P21
      00000090H.2 SFRSYM    DATA     BIT       P12
      00000080H.3 SFRSYM    DATA     BIT       P03
      000000C0H.2 SFRSYM    DATA     BIT       SPIF
      000000F8H.2 SFRSYM    DATA     BIT       RDIS
      000000B0H.1 SFRSYM    DATA     BIT       P31
      000000A0H.2 SFRSYM    DATA     BIT       P22
      00000090H.3 SFRSYM    DATA     BIT       P13
      00000080H.4 SFRSYM    DATA     BIT       P04
      000000AAH   SFRSYM    DATA     BYTE      S0RELL
      000000B0H.2 SFRSYM    DATA     BIT       P32
      000000A0H.3 SFRSYM    DATA     BIT       P23
      00000090H.4 SFRSYM    DATA     BIT       P14
      00000080H.5 SFRSYM    DATA     BIT       P05
      000000D9H   SFRSYM    DATA     BYTE      W2SADR
      00000089H   SFRSYM    DATA     BYTE      TMOD
      00000088H   SFRSYM    DATA     BYTE      TCON
      000000B0H.3 SFRSYM    DATA     BIT       P33
      000000A0H.4 SFRSYM    DATA     BIT       P24
      00000090H.5 SFRSYM    DATA     BIT       P15
      00000080H.6 SFRSYM    DATA     BIT       P06
      000000B0H.4 SFRSYM    DATA     BIT       P34
      000000A0H.5 SFRSYM    DATA     BIT       P25
      00000090H.6 SFRSYM    DATA     BIT       P16
      00000080H.7 SFRSYM    DATA     BIT       P07
      000000C2H   SFRSYM    DATA     WORD      CC1
      000000B0H.5 SFRSYM    DATA     BIT       P35
      000000A0H.6 SFRSYM    DATA     BIT       P26
      00000090H.7 SFRSYM    DATA     BIT       P17
      000000C4H   SFRSYM    DATA     WORD      CC2
      000000B0H.6 SFRSYM    DATA     BIT       P36
      000000A0H.7 SFRSYM    DATA     BIT       P27
      000000C6H   SFRSYM    DATA     WORD      CC3
      000000B0H.7 SFRSYM    DATA     BIT       P37
      000000E8H.2 SFRSYM    DATA     BIT       RFCKEN
      000000F8H   SFRSYM    DATA     BIT       WPEN
      000000DDH   SFRSYM    DATA     BYTE      CCPDATIA
      000000DEH   SFRSYM    DATA     BYTE      CCPDATIB
      00000088H.1 SFRSYM    DATA     BIT       IE0
      000000F8H.4 SFRSYM    DATA     BIT       RDYN
      00000088H.3 SFRSYM    DATA     BIT       IE1
      000000CFH   SFRSYM    DATA     BYTE      WUOPC0
      000000F0H   SFRSYM    DATA     BYTE      B
      000000E9H   SFRSYM    DATA     BYTE      MD0
      000000CEH   SFRSYM    DATA     BYTE      WUOPC1
      000000A7H   SFRSYM    DATA     BYTE      MEMCON
      000000EAH   SFRSYM    DATA     BYTE      MD1
      000000D7H   SFRSYM    DATA     BYTE      RNGDAT
      000000EBH   SFRSYM    DATA     BYTE      MD2
LX51 LINKER/LOCATER V4.64.0.0                                                         09/06/2013  01:48:08  PAGE 30


      000000ECH   SFRSYM    DATA     BYTE      MD3
      000000EDH   SFRSYM    DATA     BYTE      MD4
      000000AFH   SFRSYM    DATA     BYTE      WDSV
      000000EEH   SFRSYM    DATA     BYTE      MD5
      000000E0H   SFRSYM    DATA     BYTE      ACC
      000000DCH   SFRSYM    DATA     BYTE      POFCON
      000000A8H.4 SFRSYM    DATA     BIT       ES0
      000000A8H.1 SFRSYM    DATA     BIT       ET0
      000000A9H   SFRSYM    DATA     BYTE      IP0
      000000A8H.3 SFRSYM    DATA     BIT       ET1
      00000088H.5 SFRSYM    DATA     BIT       TF0
      000000B9H   SFRSYM    DATA     BYTE      IP1
      000000A8H.5 SFRSYM    DATA     BIT       ET2
      00000098H   SFRSYM    DATA     BIT       RI0
      00000088H.7 SFRSYM    DATA     BIT       TF1
      000000C0H   SFRSYM    DATA     BIT       RFSPIF
      000000C0H.6 SFRSYM    DATA     BIT       TF2
      000000FCH   SFRSYM    DATA     BYTE      SPIMCON0
      000000D6H   SFRSYM    DATA     BYTE      RNGCTL
      0000008CH   SFRSYM    DATA     BYTE      TH0
      000000A8H   SFRSYM    DATA     BIT       EX0
      00000098H.1 SFRSYM    DATA     BIT       TI0
      00000088H   SFRSYM    DATA     BIT       IT0
      000000FDH   SFRSYM    DATA     BYTE      SPIMCON1
      0000008DH   SFRSYM    DATA     BYTE      TH1
      000000A8H.2 SFRSYM    DATA     BIT       EX1
      00000088H.2 SFRSYM    DATA     BIT       IT1
      000000CDH   SFRSYM    DATA     BYTE      TH2
      000000AEH   SFRSYM    DATA     BYTE      OPMCON
      000000D0H   SFRSYM    DATA     BIT       P
      00000098H.7 SFRSYM    DATA     BIT       SM0
      0000008AH   SFRSYM    DATA     BYTE      TL0
      00000098H.6 SFRSYM    DATA     BIT       SM1
      000000E4H   SFRSYM    DATA     BYTE      SPIRCON0
      0000008BH   SFRSYM    DATA     BYTE      TL1
      000000E5H   SFRSYM    DATA     BYTE      SPIRCON1
      000000CCH   SFRSYM    DATA     BYTE      TL2
      000000BCH   SFRSYM    DATA     BYTE      SPISCON0
      000000BDH   SFRSYM    DATA     BYTE      SPISCON1
      000000D0H.3 SFRSYM    DATA     BIT       RS0
      00000088H.4 SFRSYM    DATA     BIT       TR0
      000000D0H.4 SFRSYM    DATA     BIT       RS1
      000000B2H   SFRSYM    DATA     BYTE      PWMCON
      00000088H.6 SFRSYM    DATA     BIT       TR1
      000000CAH   SFRSYM    DATA     WORD      CRC
      000000A6H   SFRSYM    DATA     BYTE      INTEXP
      000000C0H.3 SFRSYM    DATA     BIT       WUPINF
      000000FAH   SFRSYM    DATA     BYTE      FCR
      000000D3H   SFRSYM    DATA     BYTE      ADCCON1
      000000D2H   SFRSYM    DATA     BYTE      ADCCON2
      00000083H   SFRSYM    DATA     BYTE      DPH
      000000D1H   SFRSYM    DATA     BYTE      ADCCON3
      000000C0H.1 SFRSYM    DATA     BIT       RFF
      00000093H   SFRSYM    DATA     BYTE      P0DIR
      00000082H   SFRSYM    DATA     BYTE      DPL
      0000009EH   SFRSYM    DATA     BYTE      P0CON
      00000099H   SFRSYM    DATA     BYTE      S0BUF
      00000094H   SFRSYM    DATA     BYTE      P1DIR
      0000009FH   SFRSYM    DATA     BYTE      P1CON
      00000095H   SFRSYM    DATA     BYTE      P2DIR
      000000B8H.7 SFRSYM    DATA     BIT       EXEN2
      000000DAH   SFRSYM    DATA     BYTE      W2DAT
      00000097H   SFRSYM    DATA     BYTE      P2CON
      00000096H   SFRSYM    DATA     BYTE      P3DIR
      000000A4H   SFRSYM    DATA     BYTE      PWRDWN
LX51 LINKER/LOCATER V4.64.0.0                                                         09/06/2013  01:48:08  PAGE 31


      00000098H   SFRSYM    DATA     BYTE      S0CON
      0000008FH   SFRSYM    DATA     BYTE      P3CON
      000000B6H   SFRSYM    DATA     BYTE      RTC2CPT00
      000000D8H   SFRSYM    DATA     BYTE      ADCON
      000000ACH   SFRSYM    DATA     BYTE      RTC2CPT10
      000000ABH   SFRSYM    DATA     BYTE      RTC2CPT01
      000000C8H   SFRSYM    DATA     BYTE      T2CON
      00000092H   SFRSYM    DATA     BYTE      DPS
      000000F8H.5 SFRSYM    DATA     BIT       WEN
      000000F8H   SFRSYM    DATA     BYTE      FSR
      000000D4H   SFRSYM    DATA     BYTE      ADCDATH
      000000C9H   SFRSYM    DATA     BYTE      MPAGE
      000000B8H.2 SFRSYM    DATA     BIT       SPI
      000000F8H.1 SFRSYM    DATA     BIT       RDEND
      000000D5H   SFRSYM    DATA     BYTE      ADCDATL
      000000F8H.3 SFRSYM    DATA     BIT       INFEN
      000000F8H.7 SFRSYM    DATA     BIT       MCDIS
      000000C0H.5 SFRSYM    DATA     BIT       WUF
      000000C0H.4 SFRSYM    DATA     BIT       MISCF
      000000EFH   SFRSYM    DATA     BYTE      ARCON
      000000D0H.5 SFRSYM    DATA     BIT       F0
      000000F8H.6 SFRSYM    DATA     BIT       STP
      000000FEH   SFRSYM    DATA     BYTE      SPIMSTAT
      000000E8H   SFRSYM    DATA     BYTE      RFCON
      000000D0H   SFRSYM    DATA     BYTE      PSW
      00000098H.2 SFRSYM    DATA     BIT       RB80
      000000C0H   SFRSYM    DATA     BYTE      IRCON
      000000E8H.1 SFRSYM    DATA     BIT       RFCSN
      000000E6H   SFRSYM    DATA     BYTE      SPIRSTAT
      000000B3H   SFRSYM    DATA     BYTE      RTC2CON

      01002039H   BLOCK     CODE     ---       LVL=0
      01002039H   LINE      ---      ---       #22
      01002039H   LINE      ---      ---       #23
      01002039H   LINE      ---      ---       #24
      0100203DH   LINE      ---      ---       #25
      01002041H   LINE      ---      ---       #26
      01002045H   LINE      ---      ---       #27
      0100204BH   LINE      ---      ---       #28
      ---         BLOCKEND  ---      ---       LVL=0

      0100204CH   BLOCK     CODE     ---       LVL=0
      0100204CH   LINE      ---      ---       #30
      01002054H   LINE      ---      ---       #31
      01002054H   LINE      ---      ---       #32
      01002058H   LINE      ---      ---       #33
      0100205CH   LINE      ---      ---       #35
      01002090H   LINE      ---      ---       #37
      02000136H   SYMBOL    XDATA    WORD      period
      ---         BLOCKEND  ---      ---       LVL=0

      ---         MODULE    ---      ---       GZLL_RADIO_ISR
      010020E0H   PUBLIC    CODE     ---       nrf_isr
      00000098H.3 SFRSYM    DATA     BIT       TB80
      000000BEH   SFRSYM    DATA     BYTE      SPISSTAT
      000000C8H   SFRSYM    DATA     BIT       T2I0
      000000C3H   SFRSYM    DATA     BYTE      CCH1
      00000080H   SFRSYM    DATA     BYTE      P0
      000000C8H.1 SFRSYM    DATA     BIT       T2I1
      000000DFH   SFRSYM    DATA     BYTE      CCPDATO
      000000C5H   SFRSYM    DATA     BYTE      CCH2
      00000090H   SFRSYM    DATA     BYTE      P1
      000000C7H   SFRSYM    DATA     BYTE      CCH3
      000000A0H   SFRSYM    DATA     BYTE      P2
      00000098H.5 SFRSYM    DATA     BIT       SM20
LX51 LINKER/LOCATER V4.64.0.0                                                         09/06/2013  01:48:08  PAGE 32


      000000B0H   SFRSYM    DATA     BYTE      P3
      000000D0H.6 SFRSYM    DATA     BIT       AC
      000000C2H   SFRSYM    DATA     BYTE      CCL1
      000000C4H   SFRSYM    DATA     BYTE      CCL2
      000000D8H.7 SFRSYM    DATA     BIT       BD
      000000B8H   SFRSYM    DATA     BIT       RFSPI
      000000A8H.7 SFRSYM    DATA     BIT       EA
      000000CCH   SFRSYM    DATA     WORD      T2
      000000C6H   SFRSYM    DATA     BYTE      CCL3
      000000B7H   SFRSYM    DATA     BYTE      SPISRDSZ
      000000C8H.3 SFRSYM    DATA     BIT       T2R0
      000000C8H.4 SFRSYM    DATA     BIT       T2R1
      000000A8H   SFRSYM    DATA     BYTE      IEN0
      000000B8H   SFRSYM    DATA     BYTE      IEN1
      000000A5H   SFRSYM    DATA     BYTE      WUCON
      00000085H   SFRSYM    DATA     BYTE      DPH1
      000000DBH   SFRSYM    DATA     BYTE      COMPCON
      000000A3H   SFRSYM    DATA     BYTE      CLKCTRL
      00000084H   SFRSYM    DATA     BYTE      DPL1
      000000C8H.5 SFRSYM    DATA     BIT       I2FR
      000000B8H.3 SFRSYM    DATA     BIT       WUPIN
      000000C8H.6 SFRSYM    DATA     BIT       I3FR
      000000FFH   SFRSYM    DATA     BYTE      SPIMDAT
      000000C0H.7 SFRSYM    DATA     BIT       EXF2
      00000098H.4 SFRSYM    DATA     BIT       REN0
      000000C8H.2 SFRSYM    DATA     BIT       T2CM
      000000B8H.1 SFRSYM    DATA     BIT       RF
      000000B8H.5 SFRSYM    DATA     BIT       WUIRQ
      000000E7H   SFRSYM    DATA     BYTE      SPIRDAT
      000000C1H   SFRSYM    DATA     BYTE      CCEN
      000000E2H   SFRSYM    DATA     BYTE      W2CON0
      000000BFH   SFRSYM    DATA     BYTE      SPISDAT
      000000D0H.7 SFRSYM    DATA     BIT       CY
      000000E1H   SFRSYM    DATA     BYTE      W2CON1
      000000FBH   SFRSYM    DATA     BYTE      FDCR
      000000E8H   SFRSYM    DATA     BIT       RFCE
      000000CBH   SFRSYM    DATA     BYTE      CRCH
      00000081H   SFRSYM    DATA     BYTE      SP
      000000D0H.2 SFRSYM    DATA     BIT       OV
      000000CAH   SFRSYM    DATA     BYTE      CRCL
      000000ADH   SFRSYM    DATA     BYTE      CLKLFCTRL
      000000B1H   SFRSYM    DATA     BYTE      RSTREAS
      000000C8H.7 SFRSYM    DATA     BIT       T2PS
      000000F9H   SFRSYM    DATA     BYTE      FPCR
      000000B8H.4 SFRSYM    DATA     BIT       MISC
      000000A1H   SFRSYM    DATA     BYTE      PWMDC0
      000000B4H   SFRSYM    DATA     BYTE      RTC2CMP0
      000000A2H   SFRSYM    DATA     BYTE      PWMDC1
      000000B5H   SFRSYM    DATA     BYTE      RTC2CMP1
      00000080H   SFRSYM    DATA     BIT       P00
      000000BAH   SFRSYM    DATA     BYTE      S0RELH
      00000090H   SFRSYM    DATA     BIT       P10
      00000080H.1 SFRSYM    DATA     BIT       P01
      00000087H   SFRSYM    DATA     BYTE      PCON
      000000A0H   SFRSYM    DATA     BIT       P20
      00000090H.1 SFRSYM    DATA     BIT       P11
      00000080H.2 SFRSYM    DATA     BIT       P02
      000000B0H   SFRSYM    DATA     BIT       P30
      000000A0H.1 SFRSYM    DATA     BIT       P21
      00000090H.2 SFRSYM    DATA     BIT       P12
      00000080H.3 SFRSYM    DATA     BIT       P03
      000000C0H.2 SFRSYM    DATA     BIT       SPIF
      000000F8H.2 SFRSYM    DATA     BIT       RDIS
      000000B0H.1 SFRSYM    DATA     BIT       P31
      000000A0H.2 SFRSYM    DATA     BIT       P22
LX51 LINKER/LOCATER V4.64.0.0                                                         09/06/2013  01:48:08  PAGE 33


      00000090H.3 SFRSYM    DATA     BIT       P13
      00000080H.4 SFRSYM    DATA     BIT       P04
      000000AAH   SFRSYM    DATA     BYTE      S0RELL
      000000B0H.2 SFRSYM    DATA     BIT       P32
      000000A0H.3 SFRSYM    DATA     BIT       P23
      00000090H.4 SFRSYM    DATA     BIT       P14
      00000080H.5 SFRSYM    DATA     BIT       P05
      000000D9H   SFRSYM    DATA     BYTE      W2SADR
      00000089H   SFRSYM    DATA     BYTE      TMOD
      00000088H   SFRSYM    DATA     BYTE      TCON
      000000B0H.3 SFRSYM    DATA     BIT       P33
      000000A0H.4 SFRSYM    DATA     BIT       P24
      00000090H.5 SFRSYM    DATA     BIT       P15
      00000080H.6 SFRSYM    DATA     BIT       P06
      000000B0H.4 SFRSYM    DATA     BIT       P34
      000000A0H.5 SFRSYM    DATA     BIT       P25
      00000090H.6 SFRSYM    DATA     BIT       P16
      00000080H.7 SFRSYM    DATA     BIT       P07
      000000C2H   SFRSYM    DATA     WORD      CC1
      000000B0H.5 SFRSYM    DATA     BIT       P35
      000000A0H.6 SFRSYM    DATA     BIT       P26
      00000090H.7 SFRSYM    DATA     BIT       P17
      000000C4H   SFRSYM    DATA     WORD      CC2
      000000B0H.6 SFRSYM    DATA     BIT       P36
      000000A0H.7 SFRSYM    DATA     BIT       P27
      000000C6H   SFRSYM    DATA     WORD      CC3
      000000B0H.7 SFRSYM    DATA     BIT       P37
      000000E8H.2 SFRSYM    DATA     BIT       RFCKEN
      000000F8H   SFRSYM    DATA     BIT       WPEN
      000000DDH   SFRSYM    DATA     BYTE      CCPDATIA
      000000DEH   SFRSYM    DATA     BYTE      CCPDATIB
      00000088H.1 SFRSYM    DATA     BIT       IE0
      000000F8H.4 SFRSYM    DATA     BIT       RDYN
      00000088H.3 SFRSYM    DATA     BIT       IE1
      000000CFH   SFRSYM    DATA     BYTE      WUOPC0
      000000F0H   SFRSYM    DATA     BYTE      B
      000000E9H   SFRSYM    DATA     BYTE      MD0
      000000CEH   SFRSYM    DATA     BYTE      WUOPC1
      000000A7H   SFRSYM    DATA     BYTE      MEMCON
      000000EAH   SFRSYM    DATA     BYTE      MD1
      000000D7H   SFRSYM    DATA     BYTE      RNGDAT
      000000EBH   SFRSYM    DATA     BYTE      MD2
      000000ECH   SFRSYM    DATA     BYTE      MD3
      000000EDH   SFRSYM    DATA     BYTE      MD4
      000000AFH   SFRSYM    DATA     BYTE      WDSV
      000000EEH   SFRSYM    DATA     BYTE      MD5
      000000E0H   SFRSYM    DATA     BYTE      ACC
      000000DCH   SFRSYM    DATA     BYTE      POFCON
      000000A8H.4 SFRSYM    DATA     BIT       ES0
      000000A8H.1 SFRSYM    DATA     BIT       ET0
      000000A9H   SFRSYM    DATA     BYTE      IP0
      000000A8H.3 SFRSYM    DATA     BIT       ET1
      00000088H.5 SFRSYM    DATA     BIT       TF0
      000000B9H   SFRSYM    DATA     BYTE      IP1
      000000A8H.5 SFRSYM    DATA     BIT       ET2
      00000098H   SFRSYM    DATA     BIT       RI0
      00000088H.7 SFRSYM    DATA     BIT       TF1
      000000C0H   SFRSYM    DATA     BIT       RFSPIF
      000000C0H.6 SFRSYM    DATA     BIT       TF2
      000000FCH   SFRSYM    DATA     BYTE      SPIMCON0
      000000D6H   SFRSYM    DATA     BYTE      RNGCTL
      0000008CH   SFRSYM    DATA     BYTE      TH0
      000000A8H   SFRSYM    DATA     BIT       EX0
      00000098H.1 SFRSYM    DATA     BIT       TI0
      00000088H   SFRSYM    DATA     BIT       IT0
LX51 LINKER/LOCATER V4.64.0.0                                                         09/06/2013  01:48:08  PAGE 34


      000000FDH   SFRSYM    DATA     BYTE      SPIMCON1
      0000008DH   SFRSYM    DATA     BYTE      TH1
      000000A8H.2 SFRSYM    DATA     BIT       EX1
      00000088H.2 SFRSYM    DATA     BIT       IT1
      000000CDH   SFRSYM    DATA     BYTE      TH2
      000000AEH   SFRSYM    DATA     BYTE      OPMCON
      000000D0H   SFRSYM    DATA     BIT       P
      00000098H.7 SFRSYM    DATA     BIT       SM0
      0000008AH   SFRSYM    DATA     BYTE      TL0
      00000098H.6 SFRSYM    DATA     BIT       SM1
      000000E4H   SFRSYM    DATA     BYTE      SPIRCON0
      0000008BH   SFRSYM    DATA     BYTE      TL1
      000000E5H   SFRSYM    DATA     BYTE      SPIRCON1
      000000CCH   SFRSYM    DATA     BYTE      TL2
      000000BCH   SFRSYM    DATA     BYTE      SPISCON0
      000000BDH   SFRSYM    DATA     BYTE      SPISCON1
      000000D0H.3 SFRSYM    DATA     BIT       RS0
      00000088H.4 SFRSYM    DATA     BIT       TR0
      000000D0H.4 SFRSYM    DATA     BIT       RS1
      000000B2H   SFRSYM    DATA     BYTE      PWMCON
      00000088H.6 SFRSYM    DATA     BIT       TR1
      000000CAH   SFRSYM    DATA     WORD      CRC
      000000A6H   SFRSYM    DATA     BYTE      INTEXP
      000000C0H.3 SFRSYM    DATA     BIT       WUPINF
      000000FAH   SFRSYM    DATA     BYTE      FCR
      000000D3H   SFRSYM    DATA     BYTE      ADCCON1
      000000D2H   SFRSYM    DATA     BYTE      ADCCON2
      00000083H   SFRSYM    DATA     BYTE      DPH
      000000D1H   SFRSYM    DATA     BYTE      ADCCON3
      000000C0H.1 SFRSYM    DATA     BIT       RFF
      00000093H   SFRSYM    DATA     BYTE      P0DIR
      00000082H   SFRSYM    DATA     BYTE      DPL
      0000009EH   SFRSYM    DATA     BYTE      P0CON
      00000099H   SFRSYM    DATA     BYTE      S0BUF
      00000094H   SFRSYM    DATA     BYTE      P1DIR
      0000009FH   SFRSYM    DATA     BYTE      P1CON
      00000095H   SFRSYM    DATA     BYTE      P2DIR
      000000B8H.7 SFRSYM    DATA     BIT       EXEN2
      000000DAH   SFRSYM    DATA     BYTE      W2DAT
      00000097H   SFRSYM    DATA     BYTE      P2CON
      00000096H   SFRSYM    DATA     BYTE      P3DIR
      000000A4H   SFRSYM    DATA     BYTE      PWRDWN
      00000098H   SFRSYM    DATA     BYTE      S0CON
      0000008FH   SFRSYM    DATA     BYTE      P3CON
      000000B6H   SFRSYM    DATA     BYTE      RTC2CPT00
      000000D8H   SFRSYM    DATA     BYTE      ADCON
      000000ACH   SFRSYM    DATA     BYTE      RTC2CPT10
      000000ABH   SFRSYM    DATA     BYTE      RTC2CPT01
      000000C8H   SFRSYM    DATA     BYTE      T2CON
      00000092H   SFRSYM    DATA     BYTE      DPS
      000000F8H.5 SFRSYM    DATA     BIT       WEN
      000000F8H   SFRSYM    DATA     BYTE      FSR
      000000D4H   SFRSYM    DATA     BYTE      ADCDATH
      000000C9H   SFRSYM    DATA     BYTE      MPAGE
      000000B8H.2 SFRSYM    DATA     BIT       SPI
      000000F8H.1 SFRSYM    DATA     BIT       RDEND
      000000D5H   SFRSYM    DATA     BYTE      ADCDATL
      000000F8H.3 SFRSYM    DATA     BIT       INFEN
      000000F8H.7 SFRSYM    DATA     BIT       MCDIS
      000000C0H.5 SFRSYM    DATA     BIT       WUF
      000000C0H.4 SFRSYM    DATA     BIT       MISCF
      000000EFH   SFRSYM    DATA     BYTE      ARCON
      000000D0H.5 SFRSYM    DATA     BIT       F0
      000000F8H.6 SFRSYM    DATA     BIT       STP
      000000FEH   SFRSYM    DATA     BYTE      SPIMSTAT
LX51 LINKER/LOCATER V4.64.0.0                                                         09/06/2013  01:48:08  PAGE 35


      000000E8H   SFRSYM    DATA     BYTE      RFCON
      000000D0H   SFRSYM    DATA     BYTE      PSW
      00000098H.2 SFRSYM    DATA     BIT       RB80
      000000C0H   SFRSYM    DATA     BYTE      IRCON
      000000E8H.1 SFRSYM    DATA     BIT       RFCSN
      000000E6H   SFRSYM    DATA     BYTE      SPIRSTAT
      000000B3H   SFRSYM    DATA     BYTE      RTC2CON

      010020E0H   BLOCK     CODE     ---       LVL=0
      01002106H   LINE      ---      ---       #21
      01002106H   LINE      ---      ---       #23
      01002109H   LINE      ---      ---       #24
      ---         BLOCKEND  ---      ---       LVL=0

      ---         MODULE    ---      ---       GZLL
      00000021H   PUBLIC    DATA     BIT       gzll_pending_tx_start
      00000021H.4 PUBLIC    DATA     BIT       b_rfce
      00000021H.3 PUBLIC    DATA     BIT       gzll_claim_rfck_en
      00000020H.5 PUBLIC    DATA     BIT       gzll_rx_power_high_f
      00000020H.6 PUBLIC    DATA     BIT       gzll_radio_active_f
      00000021H.2 PUBLIC    DATA     BIT       gzll_timer_period_modified
      00000020H.1 PUBLIC    DATA     BIT       gzll_tx_setup_modified
      00000020H.2 PUBLIC    DATA     BIT       gzll_rx_setup_modified
      00000020H.4 PUBLIC    DATA     BIT       gzll_rx_dr
      00000020H   PUBLIC    DATA     BIT       gzll_tx_success_f
      00000021H.1 PUBLIC    DATA     BIT       gzll_pending_goto_idle
      00000020H.3 PUBLIC    DATA     BIT       gzll_sync_on
      00000020H.7 PUBLIC    DATA     BIT       gzll_power_on
      01001BD2H   PUBLIC    CODE     ---       gzll_timer_isr_function
      01001D67H   PUBLIC    CODE     ---       gzll_radio_isr_function
      0100244BH   PUBLIC    CODE     ---       _gzll_delay_50us
      01000DB3H   PUBLIC    CODE     ---       gzll_goto_idle
      01000D8AH   PUBLIC    CODE     ---       gzll_rx_fifo_flush
      01002303H   PUBLIC    CODE     ---       gzll_rx_power_high
      02000058H   PUBLIC    XDATA    BYTE      ?_gzll_rx_fifo_read?BYTE
      01000CF3H   PUBLIC    CODE     ---       _gzll_rx_fifo_read
      01000F7DH   PUBLIC    CODE     ---       gzll_get_rx_data_ready_pipe_number
      01000D84H   PUBLIC    CODE     ---       gzll_get_state
      01000FE1H   PUBLIC    CODE     ---       gzll_tx_fifo_flush
      02000060H   PUBLIC    XDATA    BYTE      ?_gzll_ack_payload_write?BYTE
      0100177FH   PUBLIC    CODE     ---       _gzll_ack_payload_write
      01000B57H   PUBLIC    CODE     ---       gzll_rx_start
      010021FEH   PUBLIC    CODE     ---       _gzll_set_address
      010021CFH   PUBLIC    CODE     ---       _gzll_set_channels
      0100212AH   PUBLIC    CODE     ---       gzll_get_channel_tab_size
      01000BC6H   PUBLIC    CODE     ---       _gzll_get_param
      01000A04H   PUBLIC    CODE     ---       _gzll_set_param
      01000DD3H   PUBLIC    CODE     ---       gzll_init
      00000098H.3 SFRSYM    DATA     BIT       TB80
      000000BEH   SFRSYM    DATA     BYTE      SPISSTAT
      000000C8H   SFRSYM    DATA     BIT       T2I0
      000000C3H   SFRSYM    DATA     BYTE      CCH1
      00000080H   SFRSYM    DATA     BYTE      P0
      000000C8H.1 SFRSYM    DATA     BIT       T2I1
      000000DFH   SFRSYM    DATA     BYTE      CCPDATO
      000000C5H   SFRSYM    DATA     BYTE      CCH2
      00000090H   SFRSYM    DATA     BYTE      P1
      000000C7H   SFRSYM    DATA     BYTE      CCH3
      000000A0H   SFRSYM    DATA     BYTE      P2
      00000098H.5 SFRSYM    DATA     BIT       SM20
      000000B0H   SFRSYM    DATA     BYTE      P3
      000000D0H.6 SFRSYM    DATA     BIT       AC
      000000C2H   SFRSYM    DATA     BYTE      CCL1
      000000C4H   SFRSYM    DATA     BYTE      CCL2
      000000D8H.7 SFRSYM    DATA     BIT       BD
LX51 LINKER/LOCATER V4.64.0.0                                                         09/06/2013  01:48:08  PAGE 36


      000000B8H   SFRSYM    DATA     BIT       RFSPI
      000000A8H.7 SFRSYM    DATA     BIT       EA
      000000CCH   SFRSYM    DATA     WORD      T2
      000000C6H   SFRSYM    DATA     BYTE      CCL3
      000000B7H   SFRSYM    DATA     BYTE      SPISRDSZ
      000000C8H.3 SFRSYM    DATA     BIT       T2R0
      000000C8H.4 SFRSYM    DATA     BIT       T2R1
      000000A8H   SFRSYM    DATA     BYTE      IEN0
      000000B8H   SFRSYM    DATA     BYTE      IEN1
      000000A5H   SFRSYM    DATA     BYTE      WUCON
      00000085H   SFRSYM    DATA     BYTE      DPH1
      000000DBH   SFRSYM    DATA     BYTE      COMPCON
      000000A3H   SFRSYM    DATA     BYTE      CLKCTRL
      00000084H   SFRSYM    DATA     BYTE      DPL1
      000000C8H.5 SFRSYM    DATA     BIT       I2FR
      000000B8H.3 SFRSYM    DATA     BIT       WUPIN
      000000C8H.6 SFRSYM    DATA     BIT       I3FR
      000000FFH   SFRSYM    DATA     BYTE      SPIMDAT
      000000C0H.7 SFRSYM    DATA     BIT       EXF2
      00000098H.4 SFRSYM    DATA     BIT       REN0
      000000C8H.2 SFRSYM    DATA     BIT       T2CM
      000000B8H.1 SFRSYM    DATA     BIT       RF
      000000B8H.5 SFRSYM    DATA     BIT       WUIRQ
      000000E7H   SFRSYM    DATA     BYTE      SPIRDAT
      000000C1H   SFRSYM    DATA     BYTE      CCEN
      000000E2H   SFRSYM    DATA     BYTE      W2CON0
      000000BFH   SFRSYM    DATA     BYTE      SPISDAT
      000000D0H.7 SFRSYM    DATA     BIT       CY
      000000E1H   SFRSYM    DATA     BYTE      W2CON1
      000000FBH   SFRSYM    DATA     BYTE      FDCR
      000000E8H   SFRSYM    DATA     BIT       RFCE
      000000CBH   SFRSYM    DATA     BYTE      CRCH
      00000081H   SFRSYM    DATA     BYTE      SP
      000000D0H.2 SFRSYM    DATA     BIT       OV
      000000CAH   SFRSYM    DATA     BYTE      CRCL
      000000ADH   SFRSYM    DATA     BYTE      CLKLFCTRL
      000000B1H   SFRSYM    DATA     BYTE      RSTREAS
      000000C8H.7 SFRSYM    DATA     BIT       T2PS
      000000F9H   SFRSYM    DATA     BYTE      FPCR
      000000B8H.4 SFRSYM    DATA     BIT       MISC
      000000A1H   SFRSYM    DATA     BYTE      PWMDC0
      000000B4H   SFRSYM    DATA     BYTE      RTC2CMP0
      000000A2H   SFRSYM    DATA     BYTE      PWMDC1
      000000B5H   SFRSYM    DATA     BYTE      RTC2CMP1
      00000080H   SFRSYM    DATA     BIT       P00
      000000BAH   SFRSYM    DATA     BYTE      S0RELH
      00000090H   SFRSYM    DATA     BIT       P10
      00000080H.1 SFRSYM    DATA     BIT       P01
      00000087H   SFRSYM    DATA     BYTE      PCON
      000000A0H   SFRSYM    DATA     BIT       P20
      00000090H.1 SFRSYM    DATA     BIT       P11
      00000080H.2 SFRSYM    DATA     BIT       P02
      000000B0H   SFRSYM    DATA     BIT       P30
      000000A0H.1 SFRSYM    DATA     BIT       P21
      00000090H.2 SFRSYM    DATA     BIT       P12
      00000080H.3 SFRSYM    DATA     BIT       P03
      000000C0H.2 SFRSYM    DATA     BIT       SPIF
      000000F8H.2 SFRSYM    DATA     BIT       RDIS
      000000B0H.1 SFRSYM    DATA     BIT       P31
      000000A0H.2 SFRSYM    DATA     BIT       P22
      00000090H.3 SFRSYM    DATA     BIT       P13
      00000080H.4 SFRSYM    DATA     BIT       P04
      000000AAH   SFRSYM    DATA     BYTE      S0RELL
      000000B0H.2 SFRSYM    DATA     BIT       P32
      000000A0H.3 SFRSYM    DATA     BIT       P23
LX51 LINKER/LOCATER V4.64.0.0                                                         09/06/2013  01:48:08  PAGE 37


      00000090H.4 SFRSYM    DATA     BIT       P14
      00000080H.5 SFRSYM    DATA     BIT       P05
      000000D9H   SFRSYM    DATA     BYTE      W2SADR
      00000089H   SFRSYM    DATA     BYTE      TMOD
      00000088H   SFRSYM    DATA     BYTE      TCON
      000000B0H.3 SFRSYM    DATA     BIT       P33
      000000A0H.4 SFRSYM    DATA     BIT       P24
      00000090H.5 SFRSYM    DATA     BIT       P15
      00000080H.6 SFRSYM    DATA     BIT       P06
      000000B0H.4 SFRSYM    DATA     BIT       P34
      000000A0H.5 SFRSYM    DATA     BIT       P25
      00000090H.6 SFRSYM    DATA     BIT       P16
      00000080H.7 SFRSYM    DATA     BIT       P07
      000000C2H   SFRSYM    DATA     WORD      CC1
      000000B0H.5 SFRSYM    DATA     BIT       P35
      000000A0H.6 SFRSYM    DATA     BIT       P26
      00000090H.7 SFRSYM    DATA     BIT       P17
      000000C4H   SFRSYM    DATA     WORD      CC2
      000000B0H.6 SFRSYM    DATA     BIT       P36
      000000A0H.7 SFRSYM    DATA     BIT       P27
      000000C6H   SFRSYM    DATA     WORD      CC3
      000000B0H.7 SFRSYM    DATA     BIT       P37
      000000E8H.2 SFRSYM    DATA     BIT       RFCKEN
      000000F8H   SFRSYM    DATA     BIT       WPEN
      000000DDH   SFRSYM    DATA     BYTE      CCPDATIA
      000000DEH   SFRSYM    DATA     BYTE      CCPDATIB
      00000088H.1 SFRSYM    DATA     BIT       IE0
      000000F8H.4 SFRSYM    DATA     BIT       RDYN
      00000088H.3 SFRSYM    DATA     BIT       IE1
      000000CFH   SFRSYM    DATA     BYTE      WUOPC0
      000000F0H   SFRSYM    DATA     BYTE      B
      000000E9H   SFRSYM    DATA     BYTE      MD0
      000000CEH   SFRSYM    DATA     BYTE      WUOPC1
      000000A7H   SFRSYM    DATA     BYTE      MEMCON
      000000EAH   SFRSYM    DATA     BYTE      MD1
      000000D7H   SFRSYM    DATA     BYTE      RNGDAT
      000000EBH   SFRSYM    DATA     BYTE      MD2
      000000ECH   SFRSYM    DATA     BYTE      MD3
      000000EDH   SFRSYM    DATA     BYTE      MD4
      000000AFH   SFRSYM    DATA     BYTE      WDSV
      000000EEH   SFRSYM    DATA     BYTE      MD5
      000000E0H   SFRSYM    DATA     BYTE      ACC
      000000DCH   SFRSYM    DATA     BYTE      POFCON
      000000A8H.4 SFRSYM    DATA     BIT       ES0
      000000A8H.1 SFRSYM    DATA     BIT       ET0
      000000A9H   SFRSYM    DATA     BYTE      IP0
      000000A8H.3 SFRSYM    DATA     BIT       ET1
      00000088H.5 SFRSYM    DATA     BIT       TF0
      000000B9H   SFRSYM    DATA     BYTE      IP1
      000000A8H.5 SFRSYM    DATA     BIT       ET2
      00000098H   SFRSYM    DATA     BIT       RI0
      00000088H.7 SFRSYM    DATA     BIT       TF1
      000000C0H   SFRSYM    DATA     BIT       RFSPIF
      000000C0H.6 SFRSYM    DATA     BIT       TF2
      000000FCH   SFRSYM    DATA     BYTE      SPIMCON0
      000000D6H   SFRSYM    DATA     BYTE      RNGCTL
      0000008CH   SFRSYM    DATA     BYTE      TH0
      000000A8H   SFRSYM    DATA     BIT       EX0
      00000098H.1 SFRSYM    DATA     BIT       TI0
      00000088H   SFRSYM    DATA     BIT       IT0
      000000FDH   SFRSYM    DATA     BYTE      SPIMCON1
      0000008DH   SFRSYM    DATA     BYTE      TH1
      000000A8H.2 SFRSYM    DATA     BIT       EX1
      00000088H.2 SFRSYM    DATA     BIT       IT1
      000000CDH   SFRSYM    DATA     BYTE      TH2
LX51 LINKER/LOCATER V4.64.0.0                                                         09/06/2013  01:48:08  PAGE 38


      000000AEH   SFRSYM    DATA     BYTE      OPMCON
      000000D0H   SFRSYM    DATA     BIT       P
      00000098H.7 SFRSYM    DATA     BIT       SM0
      0000008AH   SFRSYM    DATA     BYTE      TL0
      00000098H.6 SFRSYM    DATA     BIT       SM1
      000000E4H   SFRSYM    DATA     BYTE      SPIRCON0
      0000008BH   SFRSYM    DATA     BYTE      TL1
      000000E5H   SFRSYM    DATA     BYTE      SPIRCON1
      000000CCH   SFRSYM    DATA     BYTE      TL2
      000000BCH   SFRSYM    DATA     BYTE      SPISCON0
      000000BDH   SFRSYM    DATA     BYTE      SPISCON1
      000000D0H.3 SFRSYM    DATA     BIT       RS0
      00000088H.4 SFRSYM    DATA     BIT       TR0
      000000D0H.4 SFRSYM    DATA     BIT       RS1
      000000B2H   SFRSYM    DATA     BYTE      PWMCON
      00000088H.6 SFRSYM    DATA     BIT       TR1
      000000CAH   SFRSYM    DATA     WORD      CRC
      000000A6H   SFRSYM    DATA     BYTE      INTEXP
      000000C0H.3 SFRSYM    DATA     BIT       WUPINF
      000000FAH   SFRSYM    DATA     BYTE      FCR
      000000D3H   SFRSYM    DATA     BYTE      ADCCON1
      000000D2H   SFRSYM    DATA     BYTE      ADCCON2
      00000083H   SFRSYM    DATA     BYTE      DPH
      000000D1H   SFRSYM    DATA     BYTE      ADCCON3
      000000C0H.1 SFRSYM    DATA     BIT       RFF
      00000093H   SFRSYM    DATA     BYTE      P0DIR
      00000082H   SFRSYM    DATA     BYTE      DPL
      0000009EH   SFRSYM    DATA     BYTE      P0CON
      00000099H   SFRSYM    DATA     BYTE      S0BUF
      00000094H   SFRSYM    DATA     BYTE      P1DIR
      0000009FH   SFRSYM    DATA     BYTE      P1CON
      00000095H   SFRSYM    DATA     BYTE      P2DIR
      000000B8H.7 SFRSYM    DATA     BIT       EXEN2
      000000DAH   SFRSYM    DATA     BYTE      W2DAT
      00000097H   SFRSYM    DATA     BYTE      P2CON
      00000096H   SFRSYM    DATA     BYTE      P3DIR
      000000A4H   SFRSYM    DATA     BYTE      PWRDWN
      00000098H   SFRSYM    DATA     BYTE      S0CON
      0000008FH   SFRSYM    DATA     BYTE      P3CON
      000000B6H   SFRSYM    DATA     BYTE      RTC2CPT00
      000000D8H   SFRSYM    DATA     BYTE      ADCON
      000000ACH   SFRSYM    DATA     BYTE      RTC2CPT10
      000000ABH   SFRSYM    DATA     BYTE      RTC2CPT01
      000000C8H   SFRSYM    DATA     BYTE      T2CON
      00000092H   SFRSYM    DATA     BYTE      DPS
      000000F8H.5 SFRSYM    DATA     BIT       WEN
      000000F8H   SFRSYM    DATA     BYTE      FSR
      000000D4H   SFRSYM    DATA     BYTE      ADCDATH
      000000C9H   SFRSYM    DATA     BYTE      MPAGE
      000000B8H.2 SFRSYM    DATA     BIT       SPI
      000000F8H.1 SFRSYM    DATA     BIT       RDEND
      000000D5H   SFRSYM    DATA     BYTE      ADCDATL
      000000F8H.3 SFRSYM    DATA     BIT       INFEN
      000000F8H.7 SFRSYM    DATA     BIT       MCDIS
      000000C0H.5 SFRSYM    DATA     BIT       WUF
      000000C0H.4 SFRSYM    DATA     BIT       MISCF
      000000EFH   SFRSYM    DATA     BYTE      ARCON
      000000D0H.5 SFRSYM    DATA     BIT       F0
      000000F8H.6 SFRSYM    DATA     BIT       STP
      000000FEH   SFRSYM    DATA     BYTE      SPIMSTAT
      000000E8H   SFRSYM    DATA     BYTE      RFCON
      000000D0H   SFRSYM    DATA     BYTE      PSW
      00000098H.2 SFRSYM    DATA     BIT       RB80
      000000C0H   SFRSYM    DATA     BYTE      IRCON
      000000E8H.1 SFRSYM    DATA     BIT       RFCSN
LX51 LINKER/LOCATER V4.64.0.0                                                         09/06/2013  01:48:08  PAGE 39


      000000E6H   SFRSYM    DATA     BYTE      SPIRSTAT
      000000B3H   SFRSYM    DATA     BYTE      RTC2CON
      0200008EH   SYMBOL    XDATA    BYTE      gzll_current_tx_pipe
      01002412H   SYMBOL    CODE     ---       gzll_reload_tries_pr_channel_counter
      0200008FH   SYMBOL    XDATA    WORD      gzll_timeout_counter
      02000091H   SYMBOL    XDATA    BYTE      gzll_channel_tab_index
      02000092H   SYMBOL    XDATA    ---       gzll_channel_tab
      020000A2H   SYMBOL    XDATA    WORD      gzll_chm_rx_mode1_sequence
      01000A58H   SYMBOL    CODE     ---       gzll_interupts_enable_rfck_disable
      01000D98H   SYMBOL    CODE     ---       gzll_interupts_disable_rfck_enable
      01002424H   SYMBOL    CODE     ---       gzll_chm_get_next_rx_channel
      020000A4H   SYMBOL    XDATA    BYTE      gzll_current_tx_payload_length
      01001BB6H   SYMBOL    CODE     ---       _gzll_set_radio_power_on
      020000A5H   SYMBOL    XDATA    BYTE      gzll_tries_pr_channel_counter
      0100246AH   SYMBOL    CODE     ---       gzll_chm_execute
      020000A6H   SYMBOL    XDATA    ---       gzll_ack_rx_pipe_fifo
      020000A9H   SYMBOL    XDATA    BYTE      gzll_channel_tab_size
      00000020H   SYMBOL    DATA     WORD      gzll_bit_storage
      01000946H   SYMBOL    CONST    ---       _?ix1000
      020000AAH   SYMBOL    XDATA    WORD      gzll_sync_period
      0100094BH   SYMBOL    CONST    ---       _?ix1001
      01002342H   SYMBOL    CODE     ---       _gzll_start_new_tx
      020000ACH   SYMBOL    XDATA    ---       gzll_dyn_params
      020000CCH   SYMBOL    XDATA    ---       gzll_p0_adr
      020000D1H   SYMBOL    XDATA    WORD      gzll_channel_switch_counter
      020000D3H   SYMBOL    XDATA    BYTE      gzll_ack_rx_pipe_fifo_cnt
      010024E0H   SYMBOL    CODE     ---       gzll_chm_get_rx_ce_offset
      01002000H   SYMBOL    CODE     ---       gzll_chm_get_tx_ce_offset
      020000D4H   SYMBOL    XDATA    BYTE      gzll_chm_rx_channel_index
      010023D4H   SYMBOL    CODE     ---       gzll_set_radio_auto_retries
      020000D5H   SYMBOL    XDATA    WORD      gzll_try_counter
      010024D0H   SYMBOL    CODE     ---       gzll_chm_reset_rx_channel_index
      020000D7H   SYMBOL    XDATA    BYTE      gzll_chm_hold_rx_channel_index
      020000D8H   SYMBOL    XDATA    WORD      gzll_chm_rx_channel_hold
      01001F80H   SYMBOL    CODE     ---       gzll_chm_hold_rx_channel
      01001D1BH   SYMBOL    CODE     ---       gzll_chm_get_current_rx_channel
      020000DAH   SYMBOL    XDATA    BYTE      gzll_state_var
      01001D36H   SYMBOL    CODE     ---       gzll_set_system_idle
      01002309H   SYMBOL    CODE     ---       _gzll_lfsr_get

      01000D98H   BLOCK     CODE     ---       LVL=0
      01000DA0H   LINE      ---      ---       #364
      01000DA0H   LINE      ---      ---       #365
      01000DA0H   BLOCK     CODE     NEAR LAB  LVL=1
      01000DA0H   LINE      ---      ---       #367
      01000DA4H   LINE      ---      ---       #368
      01000DA6H   LINE      ---      ---       #369
      01000DAAH   LINE      ---      ---       #370
      01000DAEH   LINE      ---      ---       #371
      01000DB2H   LINE      ---      ---       #372
      00000007H   SYMBOL    DATA     BYTE      t_ea
      ---         BLOCKEND  CODE     ---       LVL=1
      ---         BLOCKEND  CODE     ---       LVL=0

      01000A58H   BLOCK     CODE     ---       LVL=0
      01000A58H   LINE      ---      ---       #374
      01000A58H   LINE      ---      ---       #375
      01000A58H   LINE      ---      ---       #376
      01000A5CH   LINE      ---      ---       #377
      01000A62H   LINE      ---      ---       #378
      ---         BLOCKEND  ---      ---       LVL=0

      01000DD3H   BLOCK     CODE     ---       LVL=0
      01000DD3H   LINE      ---      ---       #384
      01000DD3H   LINE      ---      ---       #385
LX51 LINKER/LOCATER V4.64.0.0                                                         09/06/2013  01:48:08  PAGE 40


      01000DD3H   BLOCK     CODE     NEAR LAB  LVL=1
      01000DD3H   LINE      ---      ---       #386
      01000DE6H   LINE      ---      ---       #388
      01000DE8H   LINE      ---      ---       #389
      01000DF0H   LINE      ---      ---       #391
      01000DF5H   LINE      ---      ---       #392
      01000DFAH   LINE      ---      ---       #393
      01000DFFH   LINE      ---      ---       #398
      01000E04H   LINE      ---      ---       #399
      01000E0AH   LINE      ---      ---       #401
      01000E0CH   LINE      ---      ---       #402
      01000E0EH   LINE      ---      ---       #404
      01000E13H   LINE      ---      ---       #405
      01000E15H   LINE      ---      ---       #406
      01000E17H   LINE      ---      ---       #407
      01000E19H   LINE      ---      ---       #408
      01000E1BH   LINE      ---      ---       #409
      01000E1DH   LINE      ---      ---       #411
      01000E23H   LINE      ---      ---       #412
      01000E25H   LINE      ---      ---       #414
      01000E27H   LINE      ---      ---       #415
      01000E29H   LINE      ---      ---       #416
      01000E2DH   LINE      ---      ---       #421
      01000E36H   LINE      ---      ---       #422
      01000E40H   LINE      ---      ---       #424
      01000E46H   LINE      ---      ---       #425
      01000E50H   LINE      ---      ---       #427
      01000E56H   LINE      ---      ---       #428
      01000E60H   LINE      ---      ---       #430
      01000E66H   LINE      ---      ---       #431
      01000E70H   LINE      ---      ---       #433
      01000E76H   LINE      ---      ---       #434
      01000E80H   LINE      ---      ---       #439
      01000E92H   LINE      ---      ---       #444
      01000E99H   LINE      ---      ---       #445
      01000EA0H   LINE      ---      ---       #446
      01000EA7H   LINE      ---      ---       #447
      01000EAEH   LINE      ---      ---       #448
      01000EB3H   LINE      ---      ---       #449
      01000EB9H   LINE      ---      ---       #450
      01000EC0H   LINE      ---      ---       #451
      01000EC6H   LINE      ---      ---       #452
      01000ECCH   LINE      ---      ---       #453
      01000ED4H   LINE      ---      ---       #454
      01000EDCH   LINE      ---      ---       #455
      01000EE3H   LINE      ---      ---       #456
      01000EECH   LINE      ---      ---       #457
      01000EF1H   LINE      ---      ---       #458
      01000EF7H   LINE      ---      ---       #459
      01000EFEH   LINE      ---      ---       #464
      01000F01H   LINE      ---      ---       #469
      01000F06H   LINE      ---      ---       #470
      01000F0BH   LINE      ---      ---       #471
      01000F10H   LINE      ---      ---       #477
      01000F13H   LINE      ---      ---       #479
      01000F16H   LINE      ---      ---       #480
      01000F19H   LINE      ---      ---       #482
      01000F20H   LINE      ---      ---       #483
      01000F23H   LINE      ---      ---       #484
      02000032H   SYMBOL    XDATA    ---       temp_adr
      ---         BLOCKEND  CODE     ---       LVL=1
      ---         BLOCKEND  CODE     ---       LVL=0

      010009FAH   BLOCK     CODE     ---       LVL=0
      01000A04H   LINE      ---      ---       #487
LX51 LINKER/LOCATER V4.64.0.0                                                         09/06/2013  01:48:08  PAGE 41


      01000A06H   LINE      ---      ---       #488
      01000A06H   LINE      ---      ---       #497
      01000A08H   LINE      ---      ---       #499
      01000A0EH   LINE      ---      ---       #500
      01000A0EH   LINE      ---      ---       #501
      01000A1FH   LINE      ---      ---       #503
      01000A33H   LINE      ---      ---       #504
      01000A33H   LINE      ---      ---       #505
      01000A33H   LINE      ---      ---       #506
      01000A3DH   LINE      ---      ---       #507
      01000A3DH   LINE      ---      ---       #508
      01000A3FH   LINE      ---      ---       #509
      01000A3FH   LINE      ---      ---       #510
      01000A41H   LINE      ---      ---       #511
      01000A41H   LINE      ---      ---       #512
      01000A47H   LINE      ---      ---       #513
      01000A47H   LINE      ---      ---       #514
      01000A4BH   LINE      ---      ---       #515
      01000A4BH   LINE      ---      ---       #516
      01000A4DH   LINE      ---      ---       #517
      01000A4DH   LINE      ---      ---       #518
      01000A4FH   LINE      ---      ---       #519
      01000A51H   LINE      ---      ---       #520
      01000A51H   LINE      ---      ---       #521
      01000A54H   LINE      ---      ---       #522
      01000A56H   LINE      ---      ---       #523
      01000A56H   LINE      ---      ---       #524
      01000A58H   LINE      ---      ---       #525
      01000A58H   LINE      ---      ---       #526
      01000A58H   LINE      ---      ---       #527
      00000006H   SYMBOL    DATA     BYTE      param
      00000004H   SYMBOL    DATA     WORD      val
      ---         BLOCKEND  ---      ---       LVL=0

      01000BC6H   BLOCK     CODE     ---       LVL=0
      01000BC6H   LINE      ---      ---       #539
      01000BC8H   LINE      ---      ---       #540
      01000BC8H   LINE      ---      ---       #543
      01000BCAH   LINE      ---      ---       #545
      01000BD0H   LINE      ---      ---       #546
      01000BD0H   LINE      ---      ---       #547
      01000BD2H   LINE      ---      ---       #548
      01000BE4H   LINE      ---      ---       #549
      01000BE4H   LINE      ---      ---       #551
      01000BE4H   LINE      ---      ---       #552
      01000BE6H   LINE      ---      ---       #553
      01000BE9H   LINE      ---      ---       #554
      01000BE9H   LINE      ---      ---       #555
      00000006H   SYMBOL    DATA     BYTE      param
      ---         BLOCKEND  ---      ---       LVL=0

      0100212AH   BLOCK     CODE     ---       LVL=0
      0100212AH   LINE      ---      ---       #557
      0100212AH   LINE      ---      ---       #558
      0100212AH   LINE      ---      ---       #559
      0100212FH   LINE      ---      ---       #560
      ---         BLOCKEND  ---      ---       LVL=0

      010021CFH   BLOCK     CODE     ---       LVL=0
      010021CFH   LINE      ---      ---       #567
      010021CFH   LINE      ---      ---       #568
      010021CFH   LINE      ---      ---       #569
      010021D2H   LINE      ---      ---       #574
      010021D7H   LINE      ---      ---       #575
      010021DCH   LINE      ---      ---       #576
LX51 LINKER/LOCATER V4.64.0.0                                                         09/06/2013  01:48:08  PAGE 42


      010021E9H   LINE      ---      ---       #578
      010021FBH   LINE      ---      ---       #580
      00000001H   SYMBOL    DATA     ---       channels
      00000005H   SYMBOL    DATA     BYTE      channel_tab_size
      ---         BLOCKEND  ---      ---       LVL=0

      010021FEH   BLOCK     CODE     ---       LVL=0
      010021FEH   LINE      ---      ---       #583
      01002207H   LINE      ---      ---       #590
      01002209H   LINE      ---      ---       #591
      0100220BH   LINE      ---      ---       #593
      01002211H   LINE      ---      ---       #594
      01002211H   LINE      ---      ---       #595
      01002227H   LINE      ---      ---       #596
      01002227H   LINE      ---      ---       #598
      01002238H   LINE      ---      ---       #600
      0200004FH   SYMBOL    XDATA    BYTE      pipe
      02000050H   SYMBOL    XDATA    ---       address
      ---         BLOCKEND  ---      ---       LVL=0
      00000006H   SYMBOL    DATA     BYTE      pipe
      00000001H   SYMBOL    DATA     ---       address

      01000B57H   BLOCK     CODE     ---       LVL=0
      01000B57H   LINE      ---      ---       #618
      01000B57H   LINE      ---      ---       #619
      01000B57H   BLOCK     CODE     NEAR LAB  LVL=1
      01000B57H   LINE      ---      ---       #622
      01000B59H   LINE      ---      ---       #624
      01000B5CH   LINE      ---      ---       #625
      01000B5CH   LINE      ---      ---       #626
      01000B5EH   LINE      ---      ---       #628
      01000B60H   LINE      ---      ---       #629
      01000B62H   LINE      ---      ---       #634
      01000B64H   LINE      ---      ---       #639
      01000B69H   LINE      ---      ---       #640
      01000B78H   LINE      ---      ---       #641
      01000B78H   LINE      ---      ---       #642
      01000B95H   LINE      ---      ---       #643
      01000B95H   LINE      ---      ---       #644
      01000B9FH   LINE      ---      ---       #645
      01000B9FH   LINE      ---      ---       #646
      01000BA7H   LINE      ---      ---       #647
      01000BACH   LINE      ---      ---       #648
      01000BACH   LINE      ---      ---       #650
      01000BB1H   LINE      ---      ---       #651
      01000BB8H   LINE      ---      ---       #652
      01000BBEH   LINE      ---      ---       #654
      01000BC4H   LINE      ---      ---       #655
      02000060H   SYMBOL    XDATA    BYTE      i
      ---         BLOCKEND  CODE     ---       LVL=1
      ---         BLOCKEND  CODE     ---       LVL=0

      0100177FH   BLOCK     CODE     ---       LVL=0
      0100177FH   LINE      ---      ---       #658
      0100178DH   LINE      ---      ---       #659
      0100178DH   LINE      ---      ---       #663
      01001790H   LINE      ---      ---       #665
      0100179FH   LINE      ---      ---       #666
      0100179FH   LINE      ---      ---       #667
      010017A2H   LINE      ---      ---       #668
      010017A5H   LINE      ---      ---       #669
      010017A5H   LINE      ---      ---       #670
      010017BEH   LINE      ---      ---       #671
      010017C1H   LINE      ---      ---       #672
      010017C3H   LINE      ---      ---       #673
LX51 LINKER/LOCATER V4.64.0.0                                                         09/06/2013  01:48:08  PAGE 43


      02000060H   SYMBOL    XDATA    ---       src
      02000063H   SYMBOL    XDATA    BYTE      length
      02000064H   SYMBOL    XDATA    BYTE      pipe
      ---         BLOCKEND  ---      ---       LVL=0

      01000FE1H   BLOCK     CODE     ---       LVL=0
      01000FE1H   LINE      ---      ---       #887
      01000FE1H   LINE      ---      ---       #888
      01000FE1H   LINE      ---      ---       #889
      01000FE3H   LINE      ---      ---       #891
      01000FE6H   LINE      ---      ---       #893
      ---         BLOCKEND  ---      ---       LVL=0

      01000D84H   BLOCK     CODE     ---       LVL=0
      01000D84H   LINE      ---      ---       #897
      01000D84H   LINE      ---      ---       #898
      01000D84H   LINE      ---      ---       #899
      01000D89H   LINE      ---      ---       #900
      ---         BLOCKEND  ---      ---       LVL=0

      01000F7DH   BLOCK     CODE     ---       LVL=0
      01000F7DH   LINE      ---      ---       #907
      01000F7DH   LINE      ---      ---       #908
      01000F7DH   BLOCK     CODE     NEAR LAB  LVL=1
      01000F7DH   LINE      ---      ---       #911
      01000F7FH   LINE      ---      ---       #913
      01000F82H   LINE      ---      ---       #914
      01000F82H   LINE      ---      ---       #915
      01000F8CH   LINE      ---      ---       #916
      01000F8CH   LINE      ---      ---       #917
      01000F98H   LINE      ---      ---       #918
      01000F9AH   LINE      ---      ---       #920
      01000F9AH   LINE      ---      ---       #921
      01000F9FH   LINE      ---      ---       #922
      01000F9FH   LINE      ---      ---       #923
      01000FA1H   LINE      ---      ---       #925
      01000FA1H   LINE      ---      ---       #926
      01000FA3H   LINE      ---      ---       #927
      01000FA3H   LINE      ---      ---       #929
      01000FA5H   LINE      ---      ---       #930
      01000FA7H   LINE      ---      ---       #931
      00000006H   SYMBOL    DATA     BYTE      dr_rx_pipe
      ---         BLOCKEND  CODE     ---       LVL=1
      ---         BLOCKEND  CODE     ---       LVL=0
      00000007H   SYMBOL    DATA     BYTE      available_rx_data_pipe

      01000CF3H   BLOCK     CODE     ---       LVL=0
      01000CF3H   LINE      ---      ---       #942
      02000058H   SYMBOL    XDATA    ---       dst
      0200005BH   SYMBOL    XDATA    ---       length
      0200005EH   SYMBOL    XDATA    ---       pipe
      01000CF6H   BLOCK     CODE     NEAR LAB  LVL=1
      01000CF8H   LINE      ---      ---       #952
      01000CFDH   LINE      ---      ---       #953
      01000CFDH   LINE      ---      ---       #954
      01000D05H   LINE      ---      ---       #955
      01000D0AH   LINE      ---      ---       #956
      01000D0AH   LINE      ---      ---       #957
      01000D18H   LINE      ---      ---       #958
      01000D21H   LINE      ---      ---       #959
      01000D21H   LINE      ---      ---       #960
      01000D24H   LINE      ---      ---       #961
      01000D2FH   LINE      ---      ---       #962
      01000D31H   LINE      ---      ---       #964
      01000D31H   LINE      ---      ---       #965
LX51 LINKER/LOCATER V4.64.0.0                                                         09/06/2013  01:48:08  PAGE 44


      01000D36H   LINE      ---      ---       #966
      01000D36H   LINE      ---      ---       #973
      01000D3CH   LINE      ---      ---       #974
      01000D3CH   LINE      ---      ---       #975
      01000D3EH   LINE      ---      ---       #976
      01000D3EH   LINE      ---      ---       #978
      01000D4CH   LINE      ---      ---       #979
      01000D4CH   LINE      ---      ---       #980
      01000D5AH   LINE      ---      ---       #981
      01000D5AH   LINE      ---      ---       #983
      01000D68H   LINE      ---      ---       #984
      01000D68H   LINE      ---      ---       #985
      01000D78H   LINE      ---      ---       #986
      01000D78H   LINE      ---      ---       #988
      01000D7AH   LINE      ---      ---       #989
      01000D7DH   LINE      ---      ---       #990
      01000D7DH   LINE      ---      ---       #992
      01000D7DH   LINE      ---      ---       #993
      01000D7FH   LINE      ---      ---       #994
      01000D7FH   LINE      ---      ---       #995
      01000D7FH   LINE      ---      ---       #997
      01000D81H   LINE      ---      ---       #998
      01000D83H   LINE      ---      ---       #999
      02000061H   SYMBOL    XDATA    BYTE      temp_pipe
      02000062H   SYMBOL    XDATA    BYTE      temp_length
      00000006H   SYMBOL    DATA     WORD      pipe_and_length
      ---         BLOCKEND  CODE     ---       LVL=1
      ---         BLOCKEND  CODE     ---       LVL=0

      01002303H   BLOCK     CODE     ---       LVL=0
      01002303H   LINE      ---      ---       #1001
      01002303H   LINE      ---      ---       #1002
      01002303H   LINE      ---      ---       #1003
      01002308H   LINE      ---      ---       #1004
      ---         BLOCKEND  ---      ---       LVL=0

      01000D8AH   BLOCK     CODE     ---       LVL=0
      01000D8AH   LINE      ---      ---       #1006
      01000D8AH   LINE      ---      ---       #1007
      01000D8AH   LINE      ---      ---       #1008
      01000D8CH   LINE      ---      ---       #1010
      01000D8FH   LINE      ---      ---       #1011
      01000D94H   LINE      ---      ---       #1012
      01000D96H   LINE      ---      ---       #1014
      ---         BLOCKEND  ---      ---       LVL=0

      01000DB3H   BLOCK     CODE     ---       LVL=0
      01000DB3H   LINE      ---      ---       #1017
      01000DB3H   LINE      ---      ---       #1018
      01000DB3H   LINE      ---      ---       #1019
      01000DBAH   LINE      ---      ---       #1020
      01000DBAH   LINE      ---      ---       #1021
      01000DBCH   LINE      ---      ---       #1023
      01000DC4H   LINE      ---      ---       #1027
      01000DC4H   LINE      ---      ---       #1028
      01000DCBH   LINE      ---      ---       #1029
      01000DCBH   LINE      ---      ---       #1030
      01000DCDH   LINE      ---      ---       #1031
      01000DD0H   LINE      ---      ---       #1032
      01000DD2H   LINE      ---      ---       #1033
      01000DD2H   LINE      ---      ---       #1034
      01000DD2H   LINE      ---      ---       #1035
      ---         BLOCKEND  ---      ---       LVL=0

      01002309H   BLOCK     CODE     ---       LVL=0
LX51 LINKER/LOCATER V4.64.0.0                                                         09/06/2013  01:48:08  PAGE 45


      01002309H   LINE      ---      ---       #1041
      01002309H   LINE      ---      ---       #1042
      00000007H   SYMBOL    DATA     BYTE      seed
      00000005H   SYMBOL    DATA     BYTE      max_limit
      01002309H   BLOCK     CODE     NEAR LAB  LVL=1
      01002309H   LINE      ---      ---       #1046
      0100230FH   LINE      ---      ---       #1047
      0100230FH   LINE      ---      ---       #1048
      01002314H   LINE      ---      ---       #1049
      01002314H   LINE      ---      ---       #1051
      01002320H   LINE      ---      ---       #1052
      01002328H   LINE      ---      ---       #1053
      01002330H   LINE      ---      ---       #1054
      01002335H   LINE      ---      ---       #1056
      0100233AH   LINE      ---      ---       #1058
      01002341H   LINE      ---      ---       #1059
      0200008DH   SYMBOL    XDATA    BYTE      pseudoreg
      00000006H   SYMBOL    DATA     BYTE      shiftbit
      ---         BLOCKEND  CODE     ---       LVL=1
      ---         BLOCKEND  CODE     ---       LVL=0

      0100244BH   BLOCK     CODE     ---       LVL=0
      0100244BH   LINE      ---      ---       #1061
      0100244BH   LINE      ---      ---       #1062
      00000007H   SYMBOL    DATA     BYTE      n
      0100244BH   BLOCK     CODE     NEAR LAB  LVL=1
      0100244BH   LINE      ---      ---       #1065
      01002454H   LINE      ---      ---       #1066
      01002454H   LINE      ---      ---       #1067
      01002458H   LINE      ---      ---       #1068
      01002469H   LINE      ---      ---       #1071
      00000004H   SYMBOL    DATA     WORD      c
      ---         BLOCKEND  CODE     ---       LVL=1
      ---         BLOCKEND  CODE     ---       LVL=0

      01002342H   BLOCK     CODE     ---       LVL=0
      01002342H   LINE      ---      ---       #1073
      01002347H   LINE      ---      ---       #1074
      02000138H   SYMBOL    XDATA    BYTE      channel_select
      01002347H   BLOCK     CODE     NEAR LAB  LVL=1
      01002347H   LINE      ---      ---       #1077
      01002349H   LINE      ---      ---       #1078
      0100234BH   LINE      ---      ---       #1081
      0100235AH   LINE      ---      ---       #1082
      0100235AH   LINE      ---      ---       #1083
      0100235AH   LINE      ---      ---       #1084
      0100235AH   LINE      ---      ---       #1085
      01002362H   LINE      ---      ---       #1086
      01002364H   LINE      ---      ---       #1087
      01002364H   LINE      ---      ---       #1088
      01002372H   LINE      ---      ---       #1089
      01002374H   LINE      ---      ---       #1090
      01002374H   LINE      ---      ---       #1091
      0100237BH   LINE      ---      ---       #1092
      0100237DH   LINE      ---      ---       #1093
      0100237DH   LINE      ---      ---       #1094
      01002386H   LINE      ---      ---       #1095
      01002397H   LINE      ---      ---       #1096
      01002397H   LINE      ---      ---       #1097
      01002397H   LINE      ---      ---       #1100
      010023A4H   LINE      ---      ---       #1101
      010023A4H   LINE      ---      ---       #1102
      010023A9H   LINE      ---      ---       #1103
      010023B8H   LINE      ---      ---       #1104
      010023C6H   LINE      ---      ---       #1105
LX51 LINKER/LOCATER V4.64.0.0                                                         09/06/2013  01:48:08  PAGE 46


      010023C6H   LINE      ---      ---       #1107
      010023C9H   LINE      ---      ---       #1108
      010023C9H   LINE      ---      ---       #1110
      010023CBH   LINE      ---      ---       #1111
      010023CCH   LINE      ---      ---       #1113
      010023CCH   LINE      ---      ---       #1114
      010023CEH   LINE      ---      ---       #1115
      010023D3H   LINE      ---      ---       #1116
      010023D3H   LINE      ---      ---       #1118
      02000139H   SYMBOL    XDATA    BYTE      temp
      ---         BLOCKEND  CODE     ---       LVL=1
      ---         BLOCKEND  CODE     ---       LVL=0

      01002412H   BLOCK     CODE     ---       LVL=0
      01002412H   LINE      ---      ---       #1120
      01002412H   LINE      ---      ---       #1121
      01002412H   LINE      ---      ---       #1122
      01002415H   LINE      ---      ---       #1123
      01002415H   LINE      ---      ---       #1124
      01002418H   LINE      ---      ---       #1125
      0100241AH   LINE      ---      ---       #1127
      0100241AH   LINE      ---      ---       #1128
      01002423H   LINE      ---      ---       #1129
      01002423H   LINE      ---      ---       #1130
      ---         BLOCKEND  ---      ---       LVL=0

      010023D4H   BLOCK     CODE     ---       LVL=0
      010023D4H   LINE      ---      ---       #1132
      010023D4H   LINE      ---      ---       #1133
      010023D4H   LINE      ---      ---       #1134
      010023DDH   LINE      ---      ---       #1135
      010023DDH   LINE      ---      ---       #1136
      010023E3H   LINE      ---      ---       #1137
      010023E5H   LINE      ---      ---       #1139
      010023E5H   LINE      ---      ---       #1140
      ---         BLOCKEND  ---      ---       LVL=0

      01001D36H   BLOCK     CODE     ---       LVL=0
      01001D36H   LINE      ---      ---       #1144
      01001D36H   LINE      ---      ---       #1145
      01001D36H   LINE      ---      ---       #1146
      01001D3EH   LINE      ---      ---       #1148
      01001D45H   LINE      ---      ---       #1149
      01001D45H   LINE      ---      ---       #1151
      01001D4AH   LINE      ---      ---       #1152
      01001D4AH   LINE      ---      ---       #1154
      01001D56H   LINE      ---      ---       #1155
      01001D56H   LINE      ---      ---       #1156
      01001D57H   LINE      ---      ---       #1157
      01001D59H   LINE      ---      ---       #1159
      01001D59H   LINE      ---      ---       #1160
      01001D5DH   LINE      ---      ---       #1161
      01001D5DH   LINE      ---      ---       #1163
      01001D5FH   LINE      ---      ---       #1164
      01001D61H   LINE      ---      ---       #1165
      01001D66H   LINE      ---      ---       #1166
      ---         BLOCKEND  ---      ---       LVL=0

      01001D67H   BLOCK     CODE     ---       LVL=0
      01001D67H   LINE      ---      ---       #1171
      01001D67H   LINE      ---      ---       #1172
      01001D67H   BLOCK     CODE     NEAR LAB  LVL=1
      01001D67H   LINE      ---      ---       #1180
      01001D6BH   LINE      ---      ---       #1181
      01001D6FH   LINE      ---      ---       #1183
LX51 LINKER/LOCATER V4.64.0.0                                                         09/06/2013  01:48:08  PAGE 47


      01001D76H   LINE      ---      ---       #1186
      01001D79H   LINE      ---      ---       #1187
      01001D79H   LINE      ---      ---       #1188
      01001D7BH   LINE      ---      ---       #1189
      01001D82H   LINE      ---      ---       #1190
      01001D84H   LINE      ---      ---       #1197
      01001D8BH   LINE      ---      ---       #1198
      01001D8BH   LINE      ---      ---       #1199
      01001DA0H   LINE      ---      ---       #1200
      01001DA6H   LINE      ---      ---       #1201
      01001DA6H   LINE      ---      ---       #1202
      01001DACH   LINE      ---      ---       #1203
      01001DACH   LINE      ---      ---       #1204
      01001DACH   LINE      ---      ---       #1206
      01001DACH   LINE      ---      ---       #1210
      01001DB7H   LINE      ---      ---       #1211
      01001DB7H   LINE      ---      ---       #1212
      01001DC1H   LINE      ---      ---       #1213
      01001DC8H   LINE      ---      ---       #1214
      01001DD5H   LINE      ---      ---       #1215
      01001DD5H   LINE      ---      ---       #1219
      01001DDFH   LINE      ---      ---       #1220
      01001DDFH   LINE      ---      ---       #1222
      01001DE9H   LINE      ---      ---       #1223
      01001DE9H   LINE      ---      ---       #1224
      01001DEBH   LINE      ---      ---       #1226
      01001E10H   LINE      ---      ---       #1227
      01001E14H   LINE      ---      ---       #1228
      01001E14H   LINE      ---      ---       #1229
      01001E1CH   LINE      ---      ---       #1230
      01001E1CH   LINE      ---      ---       #1232
      01001E1FH   LINE      ---      ---       #1234
      01001E22H   LINE      ---      ---       #1235
      01001E24H   LINE      ---      ---       #1237
      01001E34H   LINE      ---      ---       #1239
      01001E43H   LINE      ---      ---       #1241
      01001E5CH   LINE      ---      ---       #1242
      01001E5CH   LINE      ---      ---       #1243
      01001E5EH   LINE      ---      ---       #1244
      01001E5EH   LINE      ---      ---       #1249
      01001E63H   LINE      ---      ---       #1250
      01001E63H   LINE      ---      ---       #1251
      01001E65H   LINE      ---      ---       #1252
      01001E67H   LINE      ---      ---       #1253
      01001E69H   LINE      ---      ---       #1255
      01001E69H   LINE      ---      ---       #1256
      01001E6CH   LINE      ---      ---       #1257
      01001E73H   LINE      ---      ---       #1258
      01001E79H   LINE      ---      ---       #1259
      01001E86H   LINE      ---      ---       #1260
      01001E86H   LINE      ---      ---       #1261
      01001E86H   LINE      ---      ---       #1263
      01001E86H   LINE      ---      ---       #1269
      01001E8FH   LINE      ---      ---       #1270
      01001E8FH   LINE      ---      ---       #1271
      01001E97H   LINE      ---      ---       #1273
      01001EA9H   LINE      ---      ---       #1274
      01001EB9H   LINE      ---      ---       #1277
      01001ED4H   LINE      ---      ---       #1279
      01001ED4H   LINE      ---      ---       #1280
      01001ED6H   LINE      ---      ---       #1281
      01001ED8H   LINE      ---      ---       #1283
      01001ED8H   LINE      ---      ---       #1285
      01001EDEH   LINE      ---      ---       #1286
      01001EDEH   LINE      ---      ---       #1288
LX51 LINKER/LOCATER V4.64.0.0                                                         09/06/2013  01:48:08  PAGE 48


      01001EF3H   LINE      ---      ---       #1289
      01001EF3H   LINE      ---      ---       #1290
      01001EFAH   LINE      ---      ---       #1291
      01001EFCH   LINE      ---      ---       #1292
      01001EFEH   LINE      ---      ---       #1293
      01001F00H   LINE      ---      ---       #1295
      01001F00H   LINE      ---      ---       #1296
      01001F03H   LINE      ---      ---       #1297
      01001F03H   LINE      ---      ---       #1299
      01001F0FH   LINE      ---      ---       #1300
      01001F0FH   LINE      ---      ---       #1301
      01001F11H   LINE      ---      ---       #1302
      01001F11H   LINE      ---      ---       #1303
      01001F13H   LINE      ---      ---       #1304
      01001F15H   LINE      ---      ---       #1306
      01001F15H   LINE      ---      ---       #1307
      01001F1AH   LINE      ---      ---       #1308
      01001F1AH   LINE      ---      ---       #1309
      01001F1AH   LINE      ---      ---       #1310
      01001F1CH   LINE      ---      ---       #1312
      01001F1CH   LINE      ---      ---       #1313
      01001F1FH   LINE      ---      ---       #1314
      01001F23H   LINE      ---      ---       #1315
      01001F23H   LINE      ---      ---       #1316
      01001F23H   LINE      ---      ---       #1317
      01001F23H   LINE      ---      ---       #1320
      01001F29H   LINE      ---      ---       #1321
      01001F2DH   LINE      ---      ---       #1322
      02000012H   SYMBOL    XDATA    BYTE      tries
      00000006H   SYMBOL    DATA     WORD      timer_mod_period
      02000013H   SYMBOL    XDATA    WORD      temp
      02000015H   SYMBOL    XDATA    BYTE      status
      ---         BLOCKEND  CODE     ---       LVL=1
      ---         BLOCKEND  CODE     ---       LVL=0

      01001BD2H   BLOCK     CODE     ---       LVL=0
      01001BD2H   LINE      ---      ---       #1324
      01001BD2H   LINE      ---      ---       #1325
      01001BD2H   BLOCK     CODE     NEAR LAB  LVL=1
      01001BD2H   LINE      ---      ---       #1328
      01001BD6H   LINE      ---      ---       #1329
      01001BD9H   LINE      ---      ---       #1333
      01001BDCH   LINE      ---      ---       #1334
      01001BDCH   LINE      ---      ---       #1335
      01001BE7H   LINE      ---      ---       #1336
      01001BE9H   LINE      ---      ---       #1337
      01001BE9H   LINE      ---      ---       #1342
      01001BF3H   LINE      ---      ---       #1343
      01001BF3H   LINE      ---      ---       #1344
      01001BFFH   LINE      ---      ---       #1345
      01001C03H   LINE      ---      ---       #1348
      01001C0DH   LINE      ---      ---       #1349
      01001C0DH   LINE      ---      ---       #1350
      01001C15H   LINE      ---      ---       #1351
      01001C29H   LINE      ---      ---       #1352
      01001C2FH   LINE      ---      ---       #1353
      01001C38H   LINE      ---      ---       #1354
      01001C38H   LINE      ---      ---       #1356
      01001C43H   LINE      ---      ---       #1359
      01001C4AH   LINE      ---      ---       #1360
      01001C4AH   LINE      ---      ---       #1361
      01001C4EH   LINE      ---      ---       #1362
      01001C50H   LINE      ---      ---       #1363
      01001C56H   LINE      ---      ---       #1364
      01001C58H   LINE      ---      ---       #1366
LX51 LINKER/LOCATER V4.64.0.0                                                         09/06/2013  01:48:08  PAGE 49


      01001C58H   LINE      ---      ---       #1367
      01001C60H   LINE      ---      ---       #1368
      01001C62H   LINE      ---      ---       #1369
      01001C66H   LINE      ---      ---       #1370
      01001C66H   LINE      ---      ---       #1372
      01001C74H   LINE      ---      ---       #1374
      01001C84H   LINE      ---      ---       #1375
      01001CA0H   LINE      ---      ---       #1376
      01001CA0H   LINE      ---      ---       #1377
      01001CA2H   LINE      ---      ---       #1378
      01001CA2H   LINE      ---      ---       #1379
      01001CA4H   LINE      ---      ---       #1382
      01001CA4H   LINE      ---      ---       #1385
      01001CACH   LINE      ---      ---       #1386
      01001CACH   LINE      ---      ---       #1388
      01001CAFH   LINE      ---      ---       #1389
      01001CAFH   LINE      ---      ---       #1390
      01001CBAH   LINE      ---      ---       #1392
      01001CD0H   LINE      ---      ---       #1395
      01001CD0H   LINE      ---      ---       #1396
      01001CD4H   LINE      ---      ---       #1397
      01001CD6H   LINE      ---      ---       #1398
      01001CD8H   LINE      ---      ---       #1399
      01001CD8H   LINE      ---      ---       #1400
      01001CD8H   LINE      ---      ---       #1401
      01001CD8H   LINE      ---      ---       #1403
      01001CD8H   LINE      ---      ---       #1406
      01001CE7H   LINE      ---      ---       #1407
      01001CE7H   LINE      ---      ---       #1408
      01001CF3H   LINE      ---      ---       #1409
      01001CF5H   LINE      ---      ---       #1411
      01001CF5H   LINE      ---      ---       #1412
      01001CF7H   LINE      ---      ---       #1413
      01001CF7H   LINE      ---      ---       #1416
      01001CFDH   LINE      ---      ---       #1417
      01001D01H   LINE      ---      ---       #1418
      02000010H   SYMBOL    XDATA    WORD      temp
      ---         BLOCKEND  CODE     ---       LVL=1
      ---         BLOCKEND  CODE     ---       LVL=0

      0100246AH   BLOCK     CODE     ---       LVL=0
      0100246AH   LINE      ---      ---       #1429
      0100246AH   LINE      ---      ---       #1430
      0100246AH   LINE      ---      ---       #1431
      01002479H   LINE      ---      ---       #1432
      01002479H   LINE      ---      ---       #1433
      01002485H   LINE      ---      ---       #1434
      01002485H   LINE      ---      ---       #1437
      010024A6H   LINE      ---      ---       #1439
      010024BAH   LINE      ---      ---       #1441
      010024BAH   LINE      ---      ---       #1442
      010024CFH   LINE      ---      ---       #1443
      010024CFH   LINE      ---      ---       #1444
      ---         BLOCKEND  ---      ---       LVL=0

      010024D0H   BLOCK     CODE     ---       LVL=0
      010024D0H   LINE      ---      ---       #1446
      010024D0H   LINE      ---      ---       #1447
      010024D0H   LINE      ---      ---       #1448
      010024D8H   LINE      ---      ---       #1449
      010024DFH   LINE      ---      ---       #1450
      ---         BLOCKEND  ---      ---       LVL=0

      01002424H   BLOCK     CODE     ---       LVL=0
      01002424H   LINE      ---      ---       #1452
LX51 LINKER/LOCATER V4.64.0.0                                                         09/06/2013  01:48:08  PAGE 50


      01002424H   LINE      ---      ---       #1453
      01002424H   LINE      ---      ---       #1454
      01002433H   LINE      ---      ---       #1455
      01002433H   LINE      ---      ---       #1456
      01002439H   LINE      ---      ---       #1457
      01002439H   LINE      ---      ---       #1459
      01002439H   LINE      ---      ---       #1460
      0100244AH   LINE      ---      ---       #1461
      0100244AH   LINE      ---      ---       #1462
      ---         BLOCKEND  ---      ---       LVL=0

      01001D1BH   BLOCK     CODE     ---       LVL=0
      01001D1BH   LINE      ---      ---       #1464
      01001D1BH   LINE      ---      ---       #1465
      01001D1BH   LINE      ---      ---       #1466
      01001D2AH   LINE      ---      ---       #1467
      01001D2AH   LINE      ---      ---       #1468
      01001D30H   LINE      ---      ---       #1469
      01001D30H   LINE      ---      ---       #1471
      01001D30H   LINE      ---      ---       #1472
      01001D35H   LINE      ---      ---       #1473
      01001D35H   LINE      ---      ---       #1474
      ---         BLOCKEND  ---      ---       LVL=0

      01001F80H   BLOCK     CODE     ---       LVL=0
      01001F80H   LINE      ---      ---       #1476
      01001F80H   LINE      ---      ---       #1477
      01001F80H   LINE      ---      ---       #1478
      01001F8FH   LINE      ---      ---       #1479
      01001F97H   LINE      ---      ---       #1480
      ---         BLOCKEND  ---      ---       LVL=0

      01002000H   BLOCK     CODE     ---       LVL=0
      01002000H   LINE      ---      ---       #1482
      01002000H   LINE      ---      ---       #1483
      01002000H   LINE      ---      ---       #1484
      01002019H   LINE      ---      ---       #1485
      01002019H   LINE      ---      ---       #1486
      0100201DH   LINE      ---      ---       #1487
      0100201DH   LINE      ---      ---       #1490
      0100201DH   LINE      ---      ---       #1491
      01002028H   LINE      ---      ---       #1492
      01002028H   LINE      ---      ---       #1493
      0100202BH   LINE      ---      ---       #1494
      0100202BH   LINE      ---      ---       #1496
      0100202BH   LINE      ---      ---       #1497
      01002038H   LINE      ---      ---       #1498
      01002038H   LINE      ---      ---       #1499
      01002038H   LINE      ---      ---       #1500
      ---         BLOCKEND  ---      ---       LVL=0

      010024E0H   BLOCK     CODE     ---       LVL=0
      010024E0H   LINE      ---      ---       #1502
      010024E0H   LINE      ---      ---       #1503
      010024E0H   BLOCK     CODE     NEAR LAB  LVL=1
      010024E0H   LINE      ---      ---       #1507
      010024F9H   LINE      ---      ---       #1508
      010024F9H   LINE      ---      ---       #1509
      010024FDH   LINE      ---      ---       #1510
      010024FDH   LINE      ---      ---       #1512
      010024FDH   LINE      ---      ---       #1513
      01002507H   LINE      ---      ---       #1514
      01002507H   LINE      ---      ---       #1515
      0100250AH   LINE      ---      ---       #1516
      0100250AH   LINE      ---      ---       #1518
LX51 LINKER/LOCATER V4.64.0.0                                                         09/06/2013  01:48:08  PAGE 51


      0100250AH   LINE      ---      ---       #1519
      01002519H   LINE      ---      ---       #1520
      01002528H   LINE      ---      ---       #1522
      01002543H   LINE      ---      ---       #1523
      01002543H   LINE      ---      ---       #1524
      01002559H   LINE      ---      ---       #1525
      01002559H   LINE      ---      ---       #1527
      01002559H   LINE      ---      ---       #1528
      0100256EH   LINE      ---      ---       #1529
      0100256EH   LINE      ---      ---       #1530
      0100256EH   LINE      ---      ---       #1531
      0100256EH   LINE      ---      ---       #1532
      00000006H   SYMBOL    DATA     WORD      total_tx_time_per_channel
      00000002H   SYMBOL    DATA     WORD      rx_periods_per_channel
      ---         BLOCKEND  CODE     ---       LVL=1
      ---         BLOCKEND  CODE     ---       LVL=0

      01001BB6H   BLOCK     CODE     ---       LVL=0
      01001BB6H   LINE      ---      ---       #1534
      01001BB6H   LINE      ---      ---       #1535
      00000007H   SYMBOL    DATA     BYTE      on
      01001BB6H   BLOCK     CODE     NEAR LAB  LVL=1
      01001BB6H   LINE      ---      ---       #1538
      01001BB9H   LINE      ---      ---       #1539
      01001BB9H   LINE      ---      ---       #1540
      01001BBCH   LINE      ---      ---       #1541
      01001BBCH   LINE      ---      ---       #1542
      01001BC0H   LINE      ---      ---       #1543
      01001BC2H   LINE      ---      ---       #1544
      01001BC8H   LINE      ---      ---       #1545
      01001BCAH   LINE      ---      ---       #1546
      01001BCAH   LINE      ---      ---       #1547
      01001BCBH   LINE      ---      ---       #1549
      01001BCBH   LINE      ---      ---       #1550
      01001BCFH   LINE      ---      ---       #1551
      01001BD1H   LINE      ---      ---       #1552
      01001BD1H   LINE      ---      ---       #1553
      00000007H   SYMBOL    DATA     BYTE      n
      ---         BLOCKEND  CODE     ---       LVL=1
      ---         BLOCKEND  CODE     ---       LVL=0

      ---         MODULE    ---      ---       GZP_HOST
      010027CEH   PUBLIC    CODE     ---       _gzp_get_host_id
      0100279BH   PUBLIC    CODE     ---       gzp_id_req_grant
      010025D5H   PUBLIC    CODE     ---       gzp_id_req_received
      02000032H   PUBLIC    XDATA    BYTE      ?_gzp_crypt_user_data_read?BYTE
      0100257DH   PUBLIC    CODE     ---       _gzp_crypt_user_data_read
      0100256FH   PUBLIC    CODE     ---       gzp_crypt_user_data_received
      01000C33H   PUBLIC    CODE     ---       gzp_host_execute
      01000BEAH   PUBLIC    CODE     ---       _gzp_pairing_enable
      01000FA8H   PUBLIC    CODE     ---       gzp_init
      00000098H.3 SFRSYM    DATA     BIT       TB80
      000000BEH   SFRSYM    DATA     BYTE      SPISSTAT
      000000C8H   SFRSYM    DATA     BIT       T2I0
      000000C3H   SFRSYM    DATA     BYTE      CCH1
      00000080H   SFRSYM    DATA     BYTE      P0
      000000C8H.1 SFRSYM    DATA     BIT       T2I1
      000000DFH   SFRSYM    DATA     BYTE      CCPDATO
      000000C5H   SFRSYM    DATA     BYTE      CCH2
      00000090H   SFRSYM    DATA     BYTE      P1
      000000C7H   SFRSYM    DATA     BYTE      CCH3
      000000A0H   SFRSYM    DATA     BYTE      P2
      00000098H.5 SFRSYM    DATA     BIT       SM20
      000000B0H   SFRSYM    DATA     BYTE      P3
      000000D0H.6 SFRSYM    DATA     BIT       AC
LX51 LINKER/LOCATER V4.64.0.0                                                         09/06/2013  01:48:08  PAGE 52


      000000C2H   SFRSYM    DATA     BYTE      CCL1
      000000C4H   SFRSYM    DATA     BYTE      CCL2
      000000D8H.7 SFRSYM    DATA     BIT       BD
      000000B8H   SFRSYM    DATA     BIT       RFSPI
      000000A8H.7 SFRSYM    DATA     BIT       EA
      000000CCH   SFRSYM    DATA     WORD      T2
      000000C6H   SFRSYM    DATA     BYTE      CCL3
      000000B7H   SFRSYM    DATA     BYTE      SPISRDSZ
      000000C8H.3 SFRSYM    DATA     BIT       T2R0
      000000C8H.4 SFRSYM    DATA     BIT       T2R1
      000000A8H   SFRSYM    DATA     BYTE      IEN0
      000000B8H   SFRSYM    DATA     BYTE      IEN1
      000000A5H   SFRSYM    DATA     BYTE      WUCON
      00000085H   SFRSYM    DATA     BYTE      DPH1
      000000DBH   SFRSYM    DATA     BYTE      COMPCON
      000000A3H   SFRSYM    DATA     BYTE      CLKCTRL
      00000084H   SFRSYM    DATA     BYTE      DPL1
      000000C8H.5 SFRSYM    DATA     BIT       I2FR
      000000B8H.3 SFRSYM    DATA     BIT       WUPIN
      000000C8H.6 SFRSYM    DATA     BIT       I3FR
      000000FFH   SFRSYM    DATA     BYTE      SPIMDAT
      000000C0H.7 SFRSYM    DATA     BIT       EXF2
      00000098H.4 SFRSYM    DATA     BIT       REN0
      000000C8H.2 SFRSYM    DATA     BIT       T2CM
      000000B8H.1 SFRSYM    DATA     BIT       RF
      000000B8H.5 SFRSYM    DATA     BIT       WUIRQ
      000000E7H   SFRSYM    DATA     BYTE      SPIRDAT
      000000C1H   SFRSYM    DATA     BYTE      CCEN
      000000E2H   SFRSYM    DATA     BYTE      W2CON0
      000000BFH   SFRSYM    DATA     BYTE      SPISDAT
      000000D0H.7 SFRSYM    DATA     BIT       CY
      000000E1H   SFRSYM    DATA     BYTE      W2CON1
      000000FBH   SFRSYM    DATA     BYTE      FDCR
      000000E8H   SFRSYM    DATA     BIT       RFCE
      000000CBH   SFRSYM    DATA     BYTE      CRCH
      00000081H   SFRSYM    DATA     BYTE      SP
      000000D0H.2 SFRSYM    DATA     BIT       OV
      000000CAH   SFRSYM    DATA     BYTE      CRCL
      000000ADH   SFRSYM    DATA     BYTE      CLKLFCTRL
      000000B1H   SFRSYM    DATA     BYTE      RSTREAS
      000000C8H.7 SFRSYM    DATA     BIT       T2PS
      000000F9H   SFRSYM    DATA     BYTE      FPCR
      000000B8H.4 SFRSYM    DATA     BIT       MISC
      000000A1H   SFRSYM    DATA     BYTE      PWMDC0
      000000B4H   SFRSYM    DATA     BYTE      RTC2CMP0
      000000A2H   SFRSYM    DATA     BYTE      PWMDC1
      000000B5H   SFRSYM    DATA     BYTE      RTC2CMP1
      00000080H   SFRSYM    DATA     BIT       P00
      000000BAH   SFRSYM    DATA     BYTE      S0RELH
      00000090H   SFRSYM    DATA     BIT       P10
      00000080H.1 SFRSYM    DATA     BIT       P01
      00000087H   SFRSYM    DATA     BYTE      PCON
      000000A0H   SFRSYM    DATA     BIT       P20
      00000090H.1 SFRSYM    DATA     BIT       P11
      00000080H.2 SFRSYM    DATA     BIT       P02
      000000B0H   SFRSYM    DATA     BIT       P30
      000000A0H.1 SFRSYM    DATA     BIT       P21
      00000090H.2 SFRSYM    DATA     BIT       P12
      00000080H.3 SFRSYM    DATA     BIT       P03
      000000C0H.2 SFRSYM    DATA     BIT       SPIF
      000000F8H.2 SFRSYM    DATA     BIT       RDIS
      000000B0H.1 SFRSYM    DATA     BIT       P31
      000000A0H.2 SFRSYM    DATA     BIT       P22
      00000090H.3 SFRSYM    DATA     BIT       P13
      00000080H.4 SFRSYM    DATA     BIT       P04
LX51 LINKER/LOCATER V4.64.0.0                                                         09/06/2013  01:48:08  PAGE 53


      000000AAH   SFRSYM    DATA     BYTE      S0RELL
      000000B0H.2 SFRSYM    DATA     BIT       P32
      000000A0H.3 SFRSYM    DATA     BIT       P23
      00000090H.4 SFRSYM    DATA     BIT       P14
      00000080H.5 SFRSYM    DATA     BIT       P05
      000000D9H   SFRSYM    DATA     BYTE      W2SADR
      00000089H   SFRSYM    DATA     BYTE      TMOD
      00000088H   SFRSYM    DATA     BYTE      TCON
      000000B0H.3 SFRSYM    DATA     BIT       P33
      000000A0H.4 SFRSYM    DATA     BIT       P24
      00000090H.5 SFRSYM    DATA     BIT       P15
      00000080H.6 SFRSYM    DATA     BIT       P06
      000000B0H.4 SFRSYM    DATA     BIT       P34
      000000A0H.5 SFRSYM    DATA     BIT       P25
      00000090H.6 SFRSYM    DATA     BIT       P16
      00000080H.7 SFRSYM    DATA     BIT       P07
      000000C2H   SFRSYM    DATA     WORD      CC1
      000000B0H.5 SFRSYM    DATA     BIT       P35
      000000A0H.6 SFRSYM    DATA     BIT       P26
      00000090H.7 SFRSYM    DATA     BIT       P17
      000000C4H   SFRSYM    DATA     WORD      CC2
      000000B0H.6 SFRSYM    DATA     BIT       P36
      000000A0H.7 SFRSYM    DATA     BIT       P27
      000000C6H   SFRSYM    DATA     WORD      CC3
      000000B0H.7 SFRSYM    DATA     BIT       P37
      000000E8H.2 SFRSYM    DATA     BIT       RFCKEN
      000000F8H   SFRSYM    DATA     BIT       WPEN
      000000DDH   SFRSYM    DATA     BYTE      CCPDATIA
      000000DEH   SFRSYM    DATA     BYTE      CCPDATIB
      00000088H.1 SFRSYM    DATA     BIT       IE0
      000000F8H.4 SFRSYM    DATA     BIT       RDYN
      00000088H.3 SFRSYM    DATA     BIT       IE1
      000000CFH   SFRSYM    DATA     BYTE      WUOPC0
      000000F0H   SFRSYM    DATA     BYTE      B
      000000E9H   SFRSYM    DATA     BYTE      MD0
      000000CEH   SFRSYM    DATA     BYTE      WUOPC1
      000000A7H   SFRSYM    DATA     BYTE      MEMCON
      000000EAH   SFRSYM    DATA     BYTE      MD1
      000000D7H   SFRSYM    DATA     BYTE      RNGDAT
      000000EBH   SFRSYM    DATA     BYTE      MD2
      000000ECH   SFRSYM    DATA     BYTE      MD3
      000000EDH   SFRSYM    DATA     BYTE      MD4
      000000AFH   SFRSYM    DATA     BYTE      WDSV
      000000EEH   SFRSYM    DATA     BYTE      MD5
      000000E0H   SFRSYM    DATA     BYTE      ACC
      000000DCH   SFRSYM    DATA     BYTE      POFCON
      000000A8H.4 SFRSYM    DATA     BIT       ES0
      000000A8H.1 SFRSYM    DATA     BIT       ET0
      000000A9H   SFRSYM    DATA     BYTE      IP0
      000000A8H.3 SFRSYM    DATA     BIT       ET1
      00000088H.5 SFRSYM    DATA     BIT       TF0
      000000B9H   SFRSYM    DATA     BYTE      IP1
      000000A8H.5 SFRSYM    DATA     BIT       ET2
      00000098H   SFRSYM    DATA     BIT       RI0
      00000088H.7 SFRSYM    DATA     BIT       TF1
      000000C0H   SFRSYM    DATA     BIT       RFSPIF
      000000C0H.6 SFRSYM    DATA     BIT       TF2
      000000FCH   SFRSYM    DATA     BYTE      SPIMCON0
      000000D6H   SFRSYM    DATA     BYTE      RNGCTL
      0000008CH   SFRSYM    DATA     BYTE      TH0
      000000A8H   SFRSYM    DATA     BIT       EX0
      00000098H.1 SFRSYM    DATA     BIT       TI0
      00000088H   SFRSYM    DATA     BIT       IT0
      000000FDH   SFRSYM    DATA     BYTE      SPIMCON1
      0000008DH   SFRSYM    DATA     BYTE      TH1
LX51 LINKER/LOCATER V4.64.0.0                                                         09/06/2013  01:48:08  PAGE 54


      000000A8H.2 SFRSYM    DATA     BIT       EX1
      00000088H.2 SFRSYM    DATA     BIT       IT1
      000000CDH   SFRSYM    DATA     BYTE      TH2
      000000AEH   SFRSYM    DATA     BYTE      OPMCON
      000000D0H   SFRSYM    DATA     BIT       P
      00000098H.7 SFRSYM    DATA     BIT       SM0
      0000008AH   SFRSYM    DATA     BYTE      TL0
      00000098H.6 SFRSYM    DATA     BIT       SM1
      000000E4H   SFRSYM    DATA     BYTE      SPIRCON0
      0000008BH   SFRSYM    DATA     BYTE      TL1
      000000E5H   SFRSYM    DATA     BYTE      SPIRCON1
      000000CCH   SFRSYM    DATA     BYTE      TL2
      000000BCH   SFRSYM    DATA     BYTE      SPISCON0
      000000BDH   SFRSYM    DATA     BYTE      SPISCON1
      000000D0H.3 SFRSYM    DATA     BIT       RS0
      00000088H.4 SFRSYM    DATA     BIT       TR0
      000000D0H.4 SFRSYM    DATA     BIT       RS1
      000000B2H   SFRSYM    DATA     BYTE      PWMCON
      00000088H.6 SFRSYM    DATA     BIT       TR1
      000000CAH   SFRSYM    DATA     WORD      CRC
      000000A6H   SFRSYM    DATA     BYTE      INTEXP
      000000C0H.3 SFRSYM    DATA     BIT       WUPINF
      000000FAH   SFRSYM    DATA     BYTE      FCR
      000000D3H   SFRSYM    DATA     BYTE      ADCCON1
      000000D2H   SFRSYM    DATA     BYTE      ADCCON2
      00000083H   SFRSYM    DATA     BYTE      DPH
      000000D1H   SFRSYM    DATA     BYTE      ADCCON3
      000000C0H.1 SFRSYM    DATA     BIT       RFF
      00000093H   SFRSYM    DATA     BYTE      P0DIR
      00000082H   SFRSYM    DATA     BYTE      DPL
      0000009EH   SFRSYM    DATA     BYTE      P0CON
      00000099H   SFRSYM    DATA     BYTE      S0BUF
      00000094H   SFRSYM    DATA     BYTE      P1DIR
      0000009FH   SFRSYM    DATA     BYTE      P1CON
      00000095H   SFRSYM    DATA     BYTE      P2DIR
      000000B8H.7 SFRSYM    DATA     BIT       EXEN2
      000000DAH   SFRSYM    DATA     BYTE      W2DAT
      00000097H   SFRSYM    DATA     BYTE      P2CON
      00000096H   SFRSYM    DATA     BYTE      P3DIR
      000000A4H   SFRSYM    DATA     BYTE      PWRDWN
      00000098H   SFRSYM    DATA     BYTE      S0CON
      0000008FH   SFRSYM    DATA     BYTE      P3CON
      000000B6H   SFRSYM    DATA     BYTE      RTC2CPT00
      000000D8H   SFRSYM    DATA     BYTE      ADCON
      000000ACH   SFRSYM    DATA     BYTE      RTC2CPT10
      000000ABH   SFRSYM    DATA     BYTE      RTC2CPT01
      000000C8H   SFRSYM    DATA     BYTE      T2CON
      00000092H   SFRSYM    DATA     BYTE      DPS
      000000F8H.5 SFRSYM    DATA     BIT       WEN
      000000F8H   SFRSYM    DATA     BYTE      FSR
      000000D4H   SFRSYM    DATA     BYTE      ADCDATH
      000000C9H   SFRSYM    DATA     BYTE      MPAGE
      000000B8H.2 SFRSYM    DATA     BIT       SPI
      000000F8H.1 SFRSYM    DATA     BIT       RDEND
      000000D5H   SFRSYM    DATA     BYTE      ADCDATL
      000000F8H.3 SFRSYM    DATA     BIT       INFEN
      000000F8H.7 SFRSYM    DATA     BIT       MCDIS
      000000C0H.5 SFRSYM    DATA     BIT       WUF
      000000C0H.4 SFRSYM    DATA     BIT       MISCF
      000000EFH   SFRSYM    DATA     BYTE      ARCON
      000000D0H.5 SFRSYM    DATA     BIT       F0
      000000F8H.6 SFRSYM    DATA     BIT       STP
      000000FEH   SFRSYM    DATA     BYTE      SPIMSTAT
      000000E8H   SFRSYM    DATA     BYTE      RFCON
      000000D0H   SFRSYM    DATA     BYTE      PSW
LX51 LINKER/LOCATER V4.64.0.0                                                         09/06/2013  01:48:08  PAGE 55


      00000098H.2 SFRSYM    DATA     BIT       RB80
      000000C0H   SFRSYM    DATA     BYTE      IRCON
      000000E8H.1 SFRSYM    DATA     BIT       RFCSN
      000000E6H   SFRSYM    DATA     BYTE      SPIRSTAT
      000000B3H   SFRSYM    DATA     BYTE      RTC2CON
      010025E0H   SYMBOL    CODE     ---       _gzp_process_encrypted_user_data
      020000DBH   SYMBOL    XDATA    BYTE      gzp_encrypted_user_data_length
      010026EDH   SYMBOL    CODE     ---       _gzp_process_id_req
      020000DCH   SYMBOL    XDATA    BYTE      gzp_pairing_enabled_f
      010026B4H   SYMBOL    CODE     ---       gzp_process_key_update_prepare
      020000DDH   SYMBOL    XDATA    ---       gzp_session_counter
      020000E2H   SYMBOL    XDATA    ---       gzp_encrypted_user_data
      01000A63H   SYMBOL    CODE     ---       _gzp_process_address_req
      010017C4H   SYMBOL    CODE     ---       _gzp_preload_ack
      01000CD1H   SYMBOL    CODE     ---       gzp_session_counter_inc
      0100276EH   SYMBOL    CODE     ---       _gzp_get_session_counter
      020000EFH   SYMBOL    XDATA    BYTE      gzp_id_req_stat
      01002C0EH   SYMBOL    CODE     ---       _gzp_process_key_update
      01002800H   SYMBOL    CODE     ---       _gzp_set_host_id
      01002968H   SYMBOL    CODE     ---       _gzp_process_id_fetch
      020000F0H   SYMBOL    XDATA    BYTE      gzp_address_exchanged_f

      01000FA8H   BLOCK     CODE     ---       LVL=0
      01000FA8H   LINE      ---      ---       #107
      01000FA8H   LINE      ---      ---       #108
      01000FA8H   BLOCK     CODE     NEAR LAB  LVL=1
      01000FA8H   LINE      ---      ---       #113
      01000FB3H   LINE      ---      ---       #116
      01000FBCH   LINE      ---      ---       #119
      01000FCAH   LINE      ---      ---       #121
      01000FCFH   LINE      ---      ---       #122
      01000FD3H   LINE      ---      ---       #123
      01000FD7H   LINE      ---      ---       #124
      01000FDBH   LINE      ---      ---       #127
      02000032H   SYMBOL    XDATA    ---       system_address
      ---         BLOCKEND  CODE     ---       LVL=1
      ---         BLOCKEND  CODE     ---       LVL=0

      01000BEAH   BLOCK     CODE     ---       LVL=0
      01000BEAH   LINE      ---      ---       #130
      01000BEFH   LINE      ---      ---       #131
      02000032H   SYMBOL    XDATA    BYTE      enable
      01000BEFH   BLOCK     CODE     NEAR LAB  LVL=1
      01000BEFH   LINE      ---      ---       #134
      01000BF6H   LINE      ---      ---       #136
      01000C02H   LINE      ---      ---       #137
      01000C02H   LINE      ---      ---       #138
      01000C04H   LINE      ---      ---       #140
      01000C0CH   LINE      ---      ---       #141
      01000C0CH   LINE      ---      ---       #142
      01000C0EH   LINE      ---      ---       #143
      01000C10H   LINE      ---      ---       #145
      01000C10H   LINE      ---      ---       #146
      01000C1CH   LINE      ---      ---       #147
      01000C21H   LINE      ---      ---       #148
      01000C21H   LINE      ---      ---       #150
      01000C29H   LINE      ---      ---       #152
      01000C30H   LINE      ---      ---       #153
      01000C30H   LINE      ---      ---       #154
      01000C32H   LINE      ---      ---       #155
      01000C32H   LINE      ---      ---       #156
      01000C32H   LINE      ---      ---       #157
      02000033H   SYMBOL    XDATA    BYTE      temp_gzll_state
      ---         BLOCKEND  CODE     ---       LVL=1
      ---         BLOCKEND  CODE     ---       LVL=0
LX51 LINKER/LOCATER V4.64.0.0                                                         09/06/2013  01:48:08  PAGE 56



      01000C33H   BLOCK     CODE     ---       LVL=0
      01000C33H   LINE      ---      ---       #159
      01000C33H   LINE      ---      ---       #160
      01000C33H   BLOCK     CODE     NEAR LAB  LVL=1
      01000C33H   LINE      ---      ---       #165
      01000C38H   LINE      ---      ---       #167
      01000C3AH   LINE      ---      ---       #169
      01000C47H   LINE      ---      ---       #170
      01000C47H   LINE      ---      ---       #171
      01000C64H   LINE      ---      ---       #173
      01000C7CH   LINE      ---      ---       #174
      01000C7CH   LINE      ---      ---       #175
      01000C7CH   LINE      ---      ---       #176
      01000C84H   LINE      ---      ---       #177
      01000C86H   LINE      ---      ---       #181
      01000C86H   LINE      ---      ---       #182
      01000C8FH   LINE      ---      ---       #183
      01000C91H   LINE      ---      ---       #184
      01000C91H   LINE      ---      ---       #185
      01000C9AH   LINE      ---      ---       #186
      01000C9CH   LINE      ---      ---       #187
      01000C9CH   LINE      ---      ---       #188
      01000C9FH   LINE      ---      ---       #189
      01000CA1H   LINE      ---      ---       #190
      01000CA1H   LINE      ---      ---       #191
      01000CAAH   LINE      ---      ---       #192
      01000CACH   LINE      ---      ---       #193
      01000CACH   LINE      ---      ---       #194
      01000CBAH   LINE      ---      ---       #195
      01000CBAH   LINE      ---      ---       #199
      01000CBAH   LINE      ---      ---       #200
      01000CBAH   LINE      ---      ---       #201
      01000CBAH   LINE      ---      ---       #202
      01000CBAH   LINE      ---      ---       #203
      01000CBAH   LINE      ---      ---       #206
      01000CBFH   LINE      ---      ---       #207
      01000CBFH   LINE      ---      ---       #208
      01000CC5H   LINE      ---      ---       #209
      01000CCBH   LINE      ---      ---       #210
      01000CCBH   LINE      ---      ---       #211
      01000CCFH   LINE      ---      ---       #212
      01000CCFH   LINE      ---      ---       #213
      01000CD1H   LINE      ---      ---       #214
      00000007H   SYMBOL    DATA     BYTE      rx_pipe
      02000032H   SYMBOL    XDATA    BYTE      payload_length
      02000033H   SYMBOL    XDATA    ---       rx_payload
      ---         BLOCKEND  CODE     ---       LVL=1
      ---         BLOCKEND  CODE     ---       LVL=0

      01000A63H   BLOCK     CODE     ---       LVL=0
      01000A63H   LINE      ---      ---       #221
      01000A6EH   LINE      ---      ---       #222
      0200004EH   SYMBOL    XDATA    ---       gzp_req
      01000A6EH   BLOCK     CODE     NEAR LAB  LVL=1
      01000A6EH   LINE      ---      ---       #226
      01000A73H   LINE      ---      ---       #228
      01000A75H   LINE      ---      ---       #229
      01000A7EH   LINE      ---      ---       #230
      01000A87H   LINE      ---      ---       #233
      01000A8FH   LINE      ---      ---       #234
      01000A8FH   LINE      ---      ---       #235
      01000A96H   LINE      ---      ---       #236
      01000A9DH   LINE      ---      ---       #237
      01000AA5H   LINE      ---      ---       #238
LX51 LINKER/LOCATER V4.64.0.0                                                         09/06/2013  01:48:08  PAGE 57


      01000AA7H   LINE      ---      ---       #241
      01000AA9H   LINE      ---      ---       #243
      01000AAEH   LINE      ---      ---       #247
      01000AB4H   LINE      ---      ---       #248
      01000ABFH   LINE      ---      ---       #249
      01000ACFH   LINE      ---      ---       #250
      01000AD7H   LINE      ---      ---       #253
      01000ADFH   LINE      ---      ---       #254
      01000AE1H   LINE      ---      ---       #256
      01000AE6H   LINE      ---      ---       #257
      01000AE6H   LINE      ---      ---       #258
      01000B08H   LINE      ---      ---       #259
      01000B08H   LINE      ---      ---       #261
      01000B19H   LINE      ---      ---       #262
      01000B19H   LINE      ---      ---       #263
      01000B1FH   LINE      ---      ---       #264
      01000B1FH   LINE      ---      ---       #265
      01000B1FH   LINE      ---      ---       #266
      01000B21H   LINE      ---      ---       #268
      01000B23H   LINE      ---      ---       #269
      01000B25H   LINE      ---      ---       #270
      01000B2CH   LINE      ---      ---       #271
      01000B37H   LINE      ---      ---       #272
      01000B40H   LINE      ---      ---       #275
      01000B40H   LINE      ---      ---       #276
      01000B42H   LINE      ---      ---       #278
      01000B42H   LINE      ---      ---       #279
      01000B4FH   LINE      ---      ---       #280
      02000051H   SYMBOL    XDATA    BYTE      temp_rx_pipes
      02000052H   SYMBOL    XDATA    BYTE      temp_host_mode
      02000053H   SYMBOL    XDATA    ---       pairing_resp
      ---         BLOCKEND  CODE     ---       LVL=1
      ---         BLOCKEND  CODE     ---       LVL=0

      010017C4H   BLOCK     CODE     ---       LVL=0
      010017C4H   LINE      ---      ---       #286
      010017D2H   LINE      ---      ---       #287
      010017D2H   LINE      ---      ---       #288
      010017D5H   LINE      ---      ---       #289
      010017D8H   LINE      ---      ---       #290
      010017EEH   LINE      ---      ---       #291
      0200005BH   SYMBOL    XDATA    ---       src
      0200005EH   SYMBOL    XDATA    BYTE      length
      0200005FH   SYMBOL    XDATA    BYTE      pipe
      ---         BLOCKEND  ---      ---       LVL=0

      0100256FH   BLOCK     CODE     ---       LVL=0
      0100256FH   LINE      ---      ---       #301
      0100256FH   LINE      ---      ---       #302
      0100256FH   LINE      ---      ---       #303
      0100257CH   LINE      ---      ---       #304
      ---         BLOCKEND  ---      ---       LVL=0

      0100257DH   BLOCK     CODE     ---       LVL=0
      0100257DH   LINE      ---      ---       #306
      01002588H   LINE      ---      ---       #307
      01002588H   LINE      ---      ---       #308
      01002592H   LINE      ---      ---       #309
      01002592H   LINE      ---      ---       #310
      010025ACH   LINE      ---      ---       #312
      010025BAH   LINE      ---      ---       #313
      010025BAH   LINE      ---      ---       #314
      010025CAH   LINE      ---      ---       #315
      010025CAH   LINE      ---      ---       #316
      010025CFH   LINE      ---      ---       #318
LX51 LINKER/LOCATER V4.64.0.0                                                         09/06/2013  01:48:08  PAGE 58


      010025D2H   LINE      ---      ---       #319
      010025D2H   LINE      ---      ---       #321
      010025D2H   LINE      ---      ---       #322
      010025D4H   LINE      ---      ---       #323
      010025D4H   LINE      ---      ---       #324
      02000032H   SYMBOL    XDATA    ---       dst
      02000035H   SYMBOL    XDATA    ---       length
      ---         BLOCKEND  ---      ---       LVL=0

      010025D5H   BLOCK     CODE     ---       LVL=0
      010025D5H   LINE      ---      ---       #326
      010025D5H   LINE      ---      ---       #327
      010025D5H   LINE      ---      ---       #328
      010025DFH   LINE      ---      ---       #329
      ---         BLOCKEND  ---      ---       LVL=0

      0100279BH   BLOCK     CODE     ---       LVL=0
      0100279BH   LINE      ---      ---       #339
      0100279BH   LINE      ---      ---       #340
      0100279BH   LINE      ---      ---       #341
      010027A0H   LINE      ---      ---       #342
      010027A0H   LINE      ---      ---       #343
      010027A6H   LINE      ---      ---       #344
      010027A6H   LINE      ---      ---       #345
      ---         BLOCKEND  ---      ---       LVL=0

      01000CD1H   BLOCK     CODE     ---       LVL=0
      01000CD1H   LINE      ---      ---       #355
      01000CD1H   LINE      ---      ---       #356
      01000CD1H   BLOCK     CODE     NEAR LAB  LVL=1
      01000CD1H   LINE      ---      ---       #359
      01000CD3H   LINE      ---      ---       #360
      01000CD3H   LINE      ---      ---       #361
      01000CE0H   LINE      ---      ---       #362
      01000CEDH   LINE      ---      ---       #363
      01000CEDH   LINE      ---      ---       #364
      01000CEDH   LINE      ---      ---       #365
      01000CEDH   LINE      ---      ---       #366
      01000CF2H   LINE      ---      ---       #367
      00000007H   SYMBOL    DATA     BYTE      i
      ---         BLOCKEND  CODE     ---       LVL=1
      ---         BLOCKEND  CODE     ---       LVL=0

      0100276EH   BLOCK     CODE     ---       LVL=0
      0100276EH   LINE      ---      ---       #369
      01002779H   LINE      ---      ---       #370
      01002779H   LINE      ---      ---       #371
      0200005BH   SYMBOL    XDATA    ---       dst
      ---         BLOCKEND  ---      ---       LVL=0

      01002800H   BLOCK     CODE     ---       LVL=0
      01002800H   LINE      ---      ---       #374
      01002808H   LINE      ---      ---       #377
      01002808H   LINE      ---      ---       #378
      0100280FH   LINE      ---      ---       #379
      01002829H   LINE      ---      ---       #380
      0100282CH   LINE      ---      ---       #381
      0100282CH   LINE      ---      ---       #383
      0100282CH   LINE      ---      ---       #384
      0100282EH   LINE      ---      ---       #385
      0100282EH   LINE      ---      ---       #386
      02000056H   SYMBOL    XDATA    ---       src
      ---         BLOCKEND  ---      ---       LVL=0

      010027CEH   BLOCK     CODE     ---       LVL=0
LX51 LINKER/LOCATER V4.64.0.0                                                         09/06/2013  01:48:08  PAGE 59


      010027CEH   LINE      ---      ---       #388
      010027D7H   LINE      ---      ---       #391
      010027D7H   LINE      ---      ---       #392
      010027F2H   LINE      ---      ---       #393
      010027F5H   LINE      ---      ---       #394
      010027F5H   LINE      ---      ---       #396
      010027F5H   LINE      ---      ---       #397
      010027F7H   LINE      ---      ---       #398
      010027F7H   LINE      ---      ---       #399
      02000082H   SYMBOL    XDATA    ---       dst
      ---         BLOCKEND  ---      ---       LVL=0

      010026EDH   BLOCK     CODE     ---       LVL=0
      010026EDH   LINE      ---      ---       #401
      010026F8H   LINE      ---      ---       #402
      0200004EH   SYMBOL    XDATA    ---       rx_payload
      010026F8H   BLOCK     CODE     NEAR LAB  LVL=1
      010026F8H   LINE      ---      ---       #405
      010026FEH   LINE      ---      ---       #406
      010026FEH   LINE      ---      ---       #407
      01002703H   LINE      ---      ---       #408
      01002703H   LINE      ---      ---       #409
      01002715H   LINE      ---      ---       #410
      0100271BH   LINE      ---      ---       #411
      0100271BH   LINE      ---      ---       #414
      01002726H   LINE      ---      ---       #415
      01002726H   LINE      ---      ---       #417
      0100272EH   LINE      ---      ---       #418
      0100272EH   LINE      ---      ---       #419
      0100272EH   LINE      ---      ---       #420
      0100272EH   LINE      ---      ---       #421
      0100272EH   LINE      ---      ---       #423
      0100272EH   LINE      ---      ---       #424
      01002764H   LINE      ---      ---       #425
      01002764H   LINE      ---      ---       #427
      0100276DH   LINE      ---      ---       #428
      0100276DH   LINE      ---      ---       #429
      0100276DH   LINE      ---      ---       #430
      02000051H   SYMBOL    XDATA    ---       temp_host_id
      ---         BLOCKEND  CODE     ---       LVL=1
      ---         BLOCKEND  CODE     ---       LVL=0

      01002968H   BLOCK     CODE     ---       LVL=0
      01002968H   LINE      ---      ---       #432
      01002973H   LINE      ---      ---       #433
      0200004EH   SYMBOL    XDATA    ---       rx_payload
      01002973H   BLOCK     CODE     NEAR LAB  LVL=1
      01002973H   LINE      ---      ---       #436
      0100297BH   LINE      ---      ---       #437
      0100297BH   LINE      ---      ---       #438
      01002980H   LINE      ---      ---       #439
      010029BEH   LINE      ---      ---       #441
      010029BEH   LINE      ---      ---       #442
      010029C9H   LINE      ---      ---       #443
      010029C9H   LINE      ---      ---       #444
      010029C9H   LINE      ---      ---       #445
      010029CFH   LINE      ---      ---       #446
      010029D7H   LINE      ---      ---       #447
      010029D7H   LINE      ---      ---       #448
      010029D9H   LINE      ---      ---       #449
      010029D9H   LINE      ---      ---       #450
      010029DFH   LINE      ---      ---       #451
      010029E4H   LINE      ---      ---       #452
      010029E6H   LINE      ---      ---       #453
      010029E6H   LINE      ---      ---       #454
LX51 LINKER/LOCATER V4.64.0.0                                                         09/06/2013  01:48:08  PAGE 60


      010029E6H   LINE      ---      ---       #455
      010029EBH   LINE      ---      ---       #456
      010029EBH   LINE      ---      ---       #457
      010029EBH   LINE      ---      ---       #459
      010029F1H   LINE      ---      ---       #460
      010029FAH   LINE      ---      ---       #461
      01002A14H   LINE      ---      ---       #462
      01002A25H   LINE      ---      ---       #463
      01002A25H   LINE      ---      ---       #464
      01002A25H   LINE      ---      ---       #465
      02000051H   SYMBOL    XDATA    ---       tx_payload
      ---         BLOCKEND  CODE     ---       LVL=1
      ---         BLOCKEND  CODE     ---       LVL=0

      010026B4H   BLOCK     CODE     ---       LVL=0
      010026B4H   LINE      ---      ---       #467
      010026B4H   LINE      ---      ---       #468
      010026B4H   BLOCK     CODE     NEAR LAB  LVL=1
      010026B4H   LINE      ---      ---       #471
      010026BAH   LINE      ---      ---       #473
      010026C2H   LINE      ---      ---       #476
      010026C7H   LINE      ---      ---       #477
      010026C7H   LINE      ---      ---       #478
      010026CFH   LINE      ---      ---       #479
      010026CFH   LINE      ---      ---       #481
      0200004EH   SYMBOL    XDATA    ---       tx_payload
      ---         BLOCKEND  CODE     ---       LVL=1
      ---         BLOCKEND  CODE     ---       LVL=0

      01002C0EH   BLOCK     CODE     ---       LVL=0
      01002C0EH   LINE      ---      ---       #484
      01002C19H   LINE      ---      ---       #485
      01002C19H   LINE      ---      ---       #486
      01002C1EH   LINE      ---      ---       #487
      01002C5CH   LINE      ---      ---       #489
      01002C5CH   LINE      ---      ---       #490
      01002C6EH   LINE      ---      ---       #491
      01002C6EH   LINE      ---      ---       #492
      0200004EH   SYMBOL    XDATA    ---       rx_payload
      ---         BLOCKEND  ---      ---       LVL=0

      010025E0H   BLOCK     CODE     ---       LVL=0
      010025E0H   LINE      ---      ---       #494
      010025EEH   LINE      ---      ---       #495
      0200004EH   SYMBOL    XDATA    ---       rx_payload
      02000051H   SYMBOL    XDATA    BYTE      length
      010025EEH   BLOCK     CODE     NEAR LAB  LVL=1
      010025EEH   LINE      ---      ---       #498
      010025F3H   LINE      ---      ---       #499
      010025F3H   LINE      ---      ---       #500
      010025F5H   LINE      ---      ---       #501
      010025F7H   LINE      ---      ---       #503
      010025F7H   LINE      ---      ---       #504
      010025FBH   LINE      ---      ---       #505
      010025FBH   LINE      ---      ---       #507
      0100263FH   LINE      ---      ---       #509
      0100263FH   LINE      ---      ---       #510
      0100264AH   LINE      ---      ---       #511
      01002665H   LINE      ---      ---       #512
      01002665H   LINE      ---      ---       #515
      0100266BH   LINE      ---      ---       #516
      01002673H   LINE      ---      ---       #517
      0100268EH   LINE      ---      ---       #518
      01002696H   LINE      ---      ---       #521
      0100269BH   LINE      ---      ---       #522
LX51 LINKER/LOCATER V4.64.0.0                                                         09/06/2013  01:48:08  PAGE 61


      0100269BH   LINE      ---      ---       #523
      010026A3H   LINE      ---      ---       #524
      010026A3H   LINE      ---      ---       #526
      02000052H   SYMBOL    XDATA    ---       tx_payload
      ---         BLOCKEND  CODE     ---       LVL=1
      ---         BLOCKEND  CODE     ---       LVL=0

      ---         MODULE    ---      ---       GZP
      0200005BH   PUBLIC    XDATA    BYTE      ?_gzp_crypt?BYTE
      01002A26H   PUBLIC    CODE     ---       _gzp_crypt
      01002795H   PUBLIC    CODE     ---       _gzp_crypt_select_key
      01002F10H   PUBLIC    CODE     ---       _gzp_crypt_set_dyn_key
      010026E0H   PUBLIC    CODE     ---       _gzp_crypt_set_session_token
      010027A7H   PUBLIC    CODE     ---       _gzp_add_validation_id
      01002BDFH   PUBLIC    CODE     ---       _gzp_validate_id
      02000082H   PUBLIC    XDATA    BYTE      ?_gzp_xor_cipher?BYTE
      01002B25H   PUBLIC    CODE     ---       _gzp_xor_cipher
      0200004FH   PUBLIC    XDATA    BYTE      ?_gzp_generate_channels?BYTE
      0100223BH   PUBLIC    CODE     ---       _gzp_generate_channels
      01002130H   PUBLIC    CODE     ---       _gzp_update_radio_params
      00000098H.3 SFRSYM    DATA     BIT       TB80
      000000BEH   SFRSYM    DATA     BYTE      SPISSTAT
      000000C8H   SFRSYM    DATA     BIT       T2I0
      000000C3H   SFRSYM    DATA     BYTE      CCH1
      00000080H   SFRSYM    DATA     BYTE      P0
      000000C8H.1 SFRSYM    DATA     BIT       T2I1
      000000DFH   SFRSYM    DATA     BYTE      CCPDATO
      000000C5H   SFRSYM    DATA     BYTE      CCH2
      00000090H   SFRSYM    DATA     BYTE      P1
      000000C7H   SFRSYM    DATA     BYTE      CCH3
      000000A0H   SFRSYM    DATA     BYTE      P2
      00000098H.5 SFRSYM    DATA     BIT       SM20
      000000B0H   SFRSYM    DATA     BYTE      P3
      000000D0H.6 SFRSYM    DATA     BIT       AC
      000000C2H   SFRSYM    DATA     BYTE      CCL1
      000000C4H   SFRSYM    DATA     BYTE      CCL2
      000000D8H.7 SFRSYM    DATA     BIT       BD
      000000B8H   SFRSYM    DATA     BIT       RFSPI
      000000A8H.7 SFRSYM    DATA     BIT       EA
      000000CCH   SFRSYM    DATA     WORD      T2
      000000C6H   SFRSYM    DATA     BYTE      CCL3
      000000B7H   SFRSYM    DATA     BYTE      SPISRDSZ
      000000C8H.3 SFRSYM    DATA     BIT       T2R0
      000000C8H.4 SFRSYM    DATA     BIT       T2R1
      000000A8H   SFRSYM    DATA     BYTE      IEN0
      000000B8H   SFRSYM    DATA     BYTE      IEN1
      000000A5H   SFRSYM    DATA     BYTE      WUCON
      00000085H   SFRSYM    DATA     BYTE      DPH1
      000000DBH   SFRSYM    DATA     BYTE      COMPCON
      000000A3H   SFRSYM    DATA     BYTE      CLKCTRL
      00000084H   SFRSYM    DATA     BYTE      DPL1
      000000C8H.5 SFRSYM    DATA     BIT       I2FR
      000000B8H.3 SFRSYM    DATA     BIT       WUPIN
      000000C8H.6 SFRSYM    DATA     BIT       I3FR
      000000FFH   SFRSYM    DATA     BYTE      SPIMDAT
      000000C0H.7 SFRSYM    DATA     BIT       EXF2
      00000098H.4 SFRSYM    DATA     BIT       REN0
      000000C8H.2 SFRSYM    DATA     BIT       T2CM
      000000B8H.1 SFRSYM    DATA     BIT       RF
      000000B8H.5 SFRSYM    DATA     BIT       WUIRQ
      000000E7H   SFRSYM    DATA     BYTE      SPIRDAT
      000000C1H   SFRSYM    DATA     BYTE      CCEN
      000000E2H   SFRSYM    DATA     BYTE      W2CON0
      000000BFH   SFRSYM    DATA     BYTE      SPISDAT
      000000D0H.7 SFRSYM    DATA     BIT       CY
LX51 LINKER/LOCATER V4.64.0.0                                                         09/06/2013  01:48:08  PAGE 62


      000000E1H   SFRSYM    DATA     BYTE      W2CON1
      000000FBH   SFRSYM    DATA     BYTE      FDCR
      000000E8H   SFRSYM    DATA     BIT       RFCE
      000000CBH   SFRSYM    DATA     BYTE      CRCH
      00000081H   SFRSYM    DATA     BYTE      SP
      000000D0H.2 SFRSYM    DATA     BIT       OV
      000000CAH   SFRSYM    DATA     BYTE      CRCL
      000000ADH   SFRSYM    DATA     BYTE      CLKLFCTRL
      000000B1H   SFRSYM    DATA     BYTE      RSTREAS
      000000C8H.7 SFRSYM    DATA     BIT       T2PS
      000000F9H   SFRSYM    DATA     BYTE      FPCR
      000000B8H.4 SFRSYM    DATA     BIT       MISC
      000000A1H   SFRSYM    DATA     BYTE      PWMDC0
      000000B4H   SFRSYM    DATA     BYTE      RTC2CMP0
      000000A2H   SFRSYM    DATA     BYTE      PWMDC1
      000000B5H   SFRSYM    DATA     BYTE      RTC2CMP1
      00000080H   SFRSYM    DATA     BIT       P00
      000000BAH   SFRSYM    DATA     BYTE      S0RELH
      00000090H   SFRSYM    DATA     BIT       P10
      00000080H.1 SFRSYM    DATA     BIT       P01
      00000087H   SFRSYM    DATA     BYTE      PCON
      000000A0H   SFRSYM    DATA     BIT       P20
      00000090H.1 SFRSYM    DATA     BIT       P11
      00000080H.2 SFRSYM    DATA     BIT       P02
      000000B0H   SFRSYM    DATA     BIT       P30
      000000A0H.1 SFRSYM    DATA     BIT       P21
      00000090H.2 SFRSYM    DATA     BIT       P12
      00000080H.3 SFRSYM    DATA     BIT       P03
      000000C0H.2 SFRSYM    DATA     BIT       SPIF
      000000F8H.2 SFRSYM    DATA     BIT       RDIS
      000000B0H.1 SFRSYM    DATA     BIT       P31
      000000A0H.2 SFRSYM    DATA     BIT       P22
      00000090H.3 SFRSYM    DATA     BIT       P13
      00000080H.4 SFRSYM    DATA     BIT       P04
      000000AAH   SFRSYM    DATA     BYTE      S0RELL
      000000B0H.2 SFRSYM    DATA     BIT       P32
      000000A0H.3 SFRSYM    DATA     BIT       P23
      00000090H.4 SFRSYM    DATA     BIT       P14
      00000080H.5 SFRSYM    DATA     BIT       P05
      000000D9H   SFRSYM    DATA     BYTE      W2SADR
      00000089H   SFRSYM    DATA     BYTE      TMOD
      00000088H   SFRSYM    DATA     BYTE      TCON
      000000B0H.3 SFRSYM    DATA     BIT       P33
      000000A0H.4 SFRSYM    DATA     BIT       P24
      00000090H.5 SFRSYM    DATA     BIT       P15
      00000080H.6 SFRSYM    DATA     BIT       P06
      000000B0H.4 SFRSYM    DATA     BIT       P34
      000000A0H.5 SFRSYM    DATA     BIT       P25
      00000090H.6 SFRSYM    DATA     BIT       P16
      00000080H.7 SFRSYM    DATA     BIT       P07
      000000C2H   SFRSYM    DATA     WORD      CC1
      000000B0H.5 SFRSYM    DATA     BIT       P35
      000000A0H.6 SFRSYM    DATA     BIT       P26
      00000090H.7 SFRSYM    DATA     BIT       P17
      000000C4H   SFRSYM    DATA     WORD      CC2
      000000B0H.6 SFRSYM    DATA     BIT       P36
      000000A0H.7 SFRSYM    DATA     BIT       P27
      000000C6H   SFRSYM    DATA     WORD      CC3
      000000B0H.7 SFRSYM    DATA     BIT       P37
      000000E8H.2 SFRSYM    DATA     BIT       RFCKEN
      000000F8H   SFRSYM    DATA     BIT       WPEN
      000000DDH   SFRSYM    DATA     BYTE      CCPDATIA
      000000DEH   SFRSYM    DATA     BYTE      CCPDATIB
      00000088H.1 SFRSYM    DATA     BIT       IE0
      000000F8H.4 SFRSYM    DATA     BIT       RDYN
LX51 LINKER/LOCATER V4.64.0.0                                                         09/06/2013  01:48:08  PAGE 63


      00000088H.3 SFRSYM    DATA     BIT       IE1
      000000CFH   SFRSYM    DATA     BYTE      WUOPC0
      000000F0H   SFRSYM    DATA     BYTE      B
      000000E9H   SFRSYM    DATA     BYTE      MD0
      000000CEH   SFRSYM    DATA     BYTE      WUOPC1
      000000A7H   SFRSYM    DATA     BYTE      MEMCON
      000000EAH   SFRSYM    DATA     BYTE      MD1
      000000D7H   SFRSYM    DATA     BYTE      RNGDAT
      000000EBH   SFRSYM    DATA     BYTE      MD2
      000000ECH   SFRSYM    DATA     BYTE      MD3
      000000EDH   SFRSYM    DATA     BYTE      MD4
      000000AFH   SFRSYM    DATA     BYTE      WDSV
      000000EEH   SFRSYM    DATA     BYTE      MD5
      000000E0H   SFRSYM    DATA     BYTE      ACC
      000000DCH   SFRSYM    DATA     BYTE      POFCON
      000000A8H.4 SFRSYM    DATA     BIT       ES0
      000000A8H.1 SFRSYM    DATA     BIT       ET0
      000000A9H   SFRSYM    DATA     BYTE      IP0
      000000A8H.3 SFRSYM    DATA     BIT       ET1
      00000088H.5 SFRSYM    DATA     BIT       TF0
      000000B9H   SFRSYM    DATA     BYTE      IP1
      000000A8H.5 SFRSYM    DATA     BIT       ET2
      00000098H   SFRSYM    DATA     BIT       RI0
      00000088H.7 SFRSYM    DATA     BIT       TF1
      000000C0H   SFRSYM    DATA     BIT       RFSPIF
      000000C0H.6 SFRSYM    DATA     BIT       TF2
      000000FCH   SFRSYM    DATA     BYTE      SPIMCON0
      000000D6H   SFRSYM    DATA     BYTE      RNGCTL
      0000008CH   SFRSYM    DATA     BYTE      TH0
      000000A8H   SFRSYM    DATA     BIT       EX0
      00000098H.1 SFRSYM    DATA     BIT       TI0
      00000088H   SFRSYM    DATA     BIT       IT0
      000000FDH   SFRSYM    DATA     BYTE      SPIMCON1
      0000008DH   SFRSYM    DATA     BYTE      TH1
      000000A8H.2 SFRSYM    DATA     BIT       EX1
      00000088H.2 SFRSYM    DATA     BIT       IT1
      000000CDH   SFRSYM    DATA     BYTE      TH2
      000000AEH   SFRSYM    DATA     BYTE      OPMCON
      000000D0H   SFRSYM    DATA     BIT       P
      00000098H.7 SFRSYM    DATA     BIT       SM0
      0000008AH   SFRSYM    DATA     BYTE      TL0
      00000098H.6 SFRSYM    DATA     BIT       SM1
      000000E4H   SFRSYM    DATA     BYTE      SPIRCON0
      0000008BH   SFRSYM    DATA     BYTE      TL1
      000000E5H   SFRSYM    DATA     BYTE      SPIRCON1
      000000CCH   SFRSYM    DATA     BYTE      TL2
      000000BCH   SFRSYM    DATA     BYTE      SPISCON0
      000000BDH   SFRSYM    DATA     BYTE      SPISCON1
      000000D0H.3 SFRSYM    DATA     BIT       RS0
      00000088H.4 SFRSYM    DATA     BIT       TR0
      000000D0H.4 SFRSYM    DATA     BIT       RS1
      000000B2H   SFRSYM    DATA     BYTE      PWMCON
      00000088H.6 SFRSYM    DATA     BIT       TR1
      000000CAH   SFRSYM    DATA     WORD      CRC
      000000A6H   SFRSYM    DATA     BYTE      INTEXP
      000000C0H.3 SFRSYM    DATA     BIT       WUPINF
      000000FAH   SFRSYM    DATA     BYTE      FCR
      000000D3H   SFRSYM    DATA     BYTE      ADCCON1
      000000D2H   SFRSYM    DATA     BYTE      ADCCON2
      00000083H   SFRSYM    DATA     BYTE      DPH
      000000D1H   SFRSYM    DATA     BYTE      ADCCON3
      000000C0H.1 SFRSYM    DATA     BIT       RFF
      00000093H   SFRSYM    DATA     BYTE      P0DIR
      00000082H   SFRSYM    DATA     BYTE      DPL
      0000009EH   SFRSYM    DATA     BYTE      P0CON
LX51 LINKER/LOCATER V4.64.0.0                                                         09/06/2013  01:48:08  PAGE 64


      00000099H   SFRSYM    DATA     BYTE      S0BUF
      00000094H   SFRSYM    DATA     BYTE      P1DIR
      0000009FH   SFRSYM    DATA     BYTE      P1CON
      00000095H   SFRSYM    DATA     BYTE      P2DIR
      000000B8H.7 SFRSYM    DATA     BIT       EXEN2
      000000DAH   SFRSYM    DATA     BYTE      W2DAT
      00000097H   SFRSYM    DATA     BYTE      P2CON
      00000096H   SFRSYM    DATA     BYTE      P3DIR
      000000A4H   SFRSYM    DATA     BYTE      PWRDWN
      00000098H   SFRSYM    DATA     BYTE      S0CON
      0000008FH   SFRSYM    DATA     BYTE      P3CON
      000000B6H   SFRSYM    DATA     BYTE      RTC2CPT00
      000000D8H   SFRSYM    DATA     BYTE      ADCON
      000000ACH   SFRSYM    DATA     BYTE      RTC2CPT10
      000000ABH   SFRSYM    DATA     BYTE      RTC2CPT01
      000000C8H   SFRSYM    DATA     BYTE      T2CON
      00000092H   SFRSYM    DATA     BYTE      DPS
      000000F8H.5 SFRSYM    DATA     BIT       WEN
      000000F8H   SFRSYM    DATA     BYTE      FSR
      000000D4H   SFRSYM    DATA     BYTE      ADCDATH
      000000C9H   SFRSYM    DATA     BYTE      MPAGE
      000000B8H.2 SFRSYM    DATA     BIT       SPI
      000000F8H.1 SFRSYM    DATA     BIT       RDEND
      000000D5H   SFRSYM    DATA     BYTE      ADCDATL
      000000F8H.3 SFRSYM    DATA     BIT       INFEN
      000000F8H.7 SFRSYM    DATA     BIT       MCDIS
      000000C0H.5 SFRSYM    DATA     BIT       WUF
      000000C0H.4 SFRSYM    DATA     BIT       MISCF
      000000EFH   SFRSYM    DATA     BYTE      ARCON
      000000D0H.5 SFRSYM    DATA     BIT       F0
      000000F8H.6 SFRSYM    DATA     BIT       STP
      000000FEH   SFRSYM    DATA     BYTE      SPIMSTAT
      000000E8H   SFRSYM    DATA     BYTE      RFCON
      000000D0H   SFRSYM    DATA     BYTE      PSW
      00000098H.2 SFRSYM    DATA     BIT       RB80
      000000C0H   SFRSYM    DATA     BYTE      IRCON
      000000E8H.1 SFRSYM    DATA     BIT       RFCSN
      000000E6H   SFRSYM    DATA     BYTE      SPIRSTAT
      000000B3H   SFRSYM    DATA     BYTE      RTC2CON
      01000970H   SYMBOL    CONST    ---       gzp_validation_id
      020000F1H   SYMBOL    XDATA    ---       gzp_dyn_key
      0100096BH   SYMBOL    CONST    ---       pairing_address
      020000FEH   SYMBOL    XDATA    ---       gzp_session_token
      02000103H   SYMBOL    XDATA    BYTE      gzp_key_select
      01000973H   SYMBOL    CONST    ---       gzp_secret_key

      01002130H   BLOCK     CODE     ---       LVL=0
      01002130H   LINE      ---      ---       #59
      0100213BH   LINE      ---      ---       #60
      02000036H   SYMBOL    XDATA    ---       system_address
      0100213BH   BLOCK     CODE     NEAR LAB  LVL=1
      0100213BH   LINE      ---      ---       #66
      01002145H   LINE      ---      ---       #68
      01002153H   LINE      ---      ---       #69
      01002153H   LINE      ---      ---       #70
      01002156H   LINE      ---      ---       #71
      01002156H   LINE      ---      ---       #72
      01002179H   LINE      ---      ---       #73
      01002183H   LINE      ---      ---       #76
      01002193H   LINE      ---      ---       #77
      01002193H   LINE      ---      ---       #78
      01002198H   LINE      ---      ---       #79
      010021A0H   LINE      ---      ---       #80
      010021A8H   LINE      ---      ---       #81
      010021A8H   LINE      ---      ---       #83
LX51 LINKER/LOCATER V4.64.0.0                                                         09/06/2013  01:48:08  PAGE 65


      010021C5H   LINE      ---      ---       #86
      02000039H   SYMBOL    XDATA    BYTE      i
      0200003AH   SYMBOL    XDATA    ---       channels
      0200004AH   SYMBOL    XDATA    ---       temp_address
      ---         BLOCKEND  CODE     ---       LVL=1
      ---         BLOCKEND  CODE     ---       LVL=0

      0100223BH   BLOCK     CODE     ---       LVL=0
      0100223BH   LINE      ---      ---       #89
      01002246H   LINE      ---      ---       #90
      0200004FH   SYMBOL    XDATA    ---       ch_dst
      02000052H   SYMBOL    XDATA    ---       system_address
      02000055H   SYMBOL    XDATA    BYTE      channel_tab_size
      01002246H   BLOCK     CODE     NEAR LAB  LVL=1
      01002246H   LINE      ---      ---       #93
      01002251H   LINE      ---      ---       #95
      01002256H   LINE      ---      ---       #96
      01002275H   LINE      ---      ---       #98
      01002282H   LINE      ---      ---       #99
      01002282H   LINE      ---      ---       #100
      010022B7H   LINE      ---      ---       #101
      010022BAH   LINE      ---      ---       #103
      010022C6H   LINE      ---      ---       #104
      010022C6H   LINE      ---      ---       #105
      010022ECH   LINE      ---      ---       #106
      010022F1H   LINE      ---      ---       #107
      010022F1H   LINE      ---      ---       #108
      010022FFH   LINE      ---      ---       #109
      010022FFH   LINE      ---      ---       #110
      01002302H   LINE      ---      ---       #111
      00000007H   SYMBOL    DATA     BYTE      binsize
      00000007H   SYMBOL    DATA     BYTE      spacing
      00000006H   SYMBOL    DATA     BYTE      i
      ---         BLOCKEND  CODE     ---       LVL=1
      ---         BLOCKEND  CODE     ---       LVL=0

      01002B25H   BLOCK     CODE     ---       LVL=0
      01002B25H   LINE      ---      ---       #115
      01002B30H   LINE      ---      ---       #116
      02000082H   SYMBOL    XDATA    ---       dst
      02000085H   SYMBOL    XDATA    ---       src
      02000088H   SYMBOL    XDATA    ---       pad
      0200008BH   SYMBOL    XDATA    BYTE      length
      01002B30H   BLOCK     CODE     NEAR LAB  LVL=1
      01002B30H   LINE      ---      ---       #119
      01002B3CH   LINE      ---      ---       #120
      01002B3CH   LINE      ---      ---       #121
      01002B6AH   LINE      ---      ---       #122
      01002B74H   LINE      ---      ---       #123
      01002B7EH   LINE      ---      ---       #124
      01002B88H   LINE      ---      ---       #125
      01002B8BH   LINE      ---      ---       #126
      00000007H   SYMBOL    DATA     BYTE      i
      ---         BLOCKEND  CODE     ---       LVL=1
      ---         BLOCKEND  CODE     ---       LVL=0

      01002BCDH   BLOCK     CODE     ---       LVL=0
      01002BDFH   LINE      ---      ---       #128
      01002BEAH   LINE      ---      ---       #129
      01002BEAH   LINE      ---      ---       #130
      01002C0DH   LINE      ---      ---       #131
      0200005BH   SYMBOL    XDATA    ---       id
      ---         BLOCKEND  ---      ---       LVL=0

      010027A7H   BLOCK     CODE     ---       LVL=0
LX51 LINKER/LOCATER V4.64.0.0                                                         09/06/2013  01:48:08  PAGE 66


      010027A7H   LINE      ---      ---       #133
      010027B2H   LINE      ---      ---       #134
      010027B2H   LINE      ---      ---       #135
      0200005BH   SYMBOL    XDATA    ---       dst
      ---         BLOCKEND  ---      ---       LVL=0

      010026E0H   BLOCK     CODE     ---       LVL=0
      010026E0H   LINE      ---      ---       #138
      010026E0H   LINE      ---      ---       #139
      010026E0H   LINE      ---      ---       #140
      00000001H   SYMBOL    DATA     ---       token
      ---         BLOCKEND  ---      ---       LVL=0

      01002F10H   BLOCK     CODE     ---       LVL=0
      01002F10H   LINE      ---      ---       #143
      01002F10H   LINE      ---      ---       #144
      01002F10H   LINE      ---      ---       #145
      00000001H   SYMBOL    DATA     ---       key
      ---         BLOCKEND  ---      ---       LVL=0

      01002795H   BLOCK     CODE     ---       LVL=0
      01002795H   LINE      ---      ---       #158
      01002795H   LINE      ---      ---       #159
      01002795H   LINE      ---      ---       #160
      0100279AH   LINE      ---      ---       #161
      00000007H   SYMBOL    DATA     BYTE      key_select
      ---         BLOCKEND  ---      ---       LVL=0

      01002A26H   BLOCK     CODE     ---       LVL=0
      01002A26H   LINE      ---      ---       #163
      01002A31H   LINE      ---      ---       #164
      0200005BH   SYMBOL    XDATA    ---       dst
      0200005EH   SYMBOL    XDATA    ---       src
      02000061H   SYMBOL    XDATA    BYTE      length
      01002A31H   BLOCK     CODE     NEAR LAB  LVL=1
      01002A31H   LINE      ---      ---       #170
      01002A3FH   LINE      ---      ---       #171
      01002A3FH   LINE      ---      ---       #172
      01002A3FH   LINE      ---      ---       #173
      01002A4FH   LINE      ---      ---       #174
      01002A51H   LINE      ---      ---       #175
      01002A51H   LINE      ---      ---       #176
      01002A64H   LINE      ---      ---       #177
      01002A6DH   LINE      ---      ---       #178
      01002A6FH   LINE      ---      ---       #179
      01002A6FH   LINE      ---      ---       #180
      01002A82H   LINE      ---      ---       #181
      01002A95H   LINE      ---      ---       #182
      01002A95H   LINE      ---      ---       #183
      01002A95H   LINE      ---      ---       #184
      01002A95H   LINE      ---      ---       #185
      01002A95H   LINE      ---      ---       #188
      01002A97H   LINE      ---      ---       #189
      01002A97H   LINE      ---      ---       #190
      01002A9DH   LINE      ---      ---       #191
      01002A9DH   LINE      ---      ---       #192
      01002AB5H   LINE      ---      ---       #193
      01002AB7H   LINE      ---      ---       #195
      01002AB7H   LINE      ---      ---       #196
      01002AC3H   LINE      ---      ---       #197
      01002AC3H   LINE      ---      ---       #198
      01002AC8H   LINE      ---      ---       #201
      01002ADCH   LINE      ---      ---       #204
      01002AF1H   LINE      ---      ---       #207
      00000007H   SYMBOL    DATA     BYTE      i
LX51 LINKER/LOCATER V4.64.0.0                                                         09/06/2013  01:48:08  PAGE 67


      02000062H   SYMBOL    XDATA    ---       key
      02000072H   SYMBOL    XDATA    ---       iv
      ---         BLOCKEND  CODE     ---       LVL=1
      ---         BLOCKEND  CODE     ---       LVL=0

      ---         MODULE    ---      ---       GZP_HOST_LE1
      02000111H   PUBLIC    XDATA    ---       gzp_session_token
      02000104H   PUBLIC    XDATA    ---       gzp_dyn_key
      01002842H   PUBLIC    CODE     ---       _gzp_host_chip_id_read
      00000098H.3 SFRSYM    DATA     BIT       TB80
      000000BEH   SFRSYM    DATA     BYTE      SPISSTAT
      000000C8H   SFRSYM    DATA     BIT       T2I0
      000000C3H   SFRSYM    DATA     BYTE      CCH1
      00000080H   SFRSYM    DATA     BYTE      P0
      000000C8H.1 SFRSYM    DATA     BIT       T2I1
      000000DFH   SFRSYM    DATA     BYTE      CCPDATO
      000000C5H   SFRSYM    DATA     BYTE      CCH2
      00000090H   SFRSYM    DATA     BYTE      P1
      000000C7H   SFRSYM    DATA     BYTE      CCH3
      000000A0H   SFRSYM    DATA     BYTE      P2
      00000098H.5 SFRSYM    DATA     BIT       SM20
      000000B0H   SFRSYM    DATA     BYTE      P3
      000000D0H.6 SFRSYM    DATA     BIT       AC
      000000C2H   SFRSYM    DATA     BYTE      CCL1
      000000C4H   SFRSYM    DATA     BYTE      CCL2
      000000D8H.7 SFRSYM    DATA     BIT       BD
      000000B8H   SFRSYM    DATA     BIT       RFSPI
      000000A8H.7 SFRSYM    DATA     BIT       EA
      000000CCH   SFRSYM    DATA     WORD      T2
      000000C6H   SFRSYM    DATA     BYTE      CCL3
      000000B7H   SFRSYM    DATA     BYTE      SPISRDSZ
      000000C8H.3 SFRSYM    DATA     BIT       T2R0
      000000C8H.4 SFRSYM    DATA     BIT       T2R1
      000000A8H   SFRSYM    DATA     BYTE      IEN0
      000000B8H   SFRSYM    DATA     BYTE      IEN1
      000000A5H   SFRSYM    DATA     BYTE      WUCON
      00000085H   SFRSYM    DATA     BYTE      DPH1
      000000DBH   SFRSYM    DATA     BYTE      COMPCON
      000000A3H   SFRSYM    DATA     BYTE      CLKCTRL
      00000084H   SFRSYM    DATA     BYTE      DPL1
      000000C8H.5 SFRSYM    DATA     BIT       I2FR
      000000B8H.3 SFRSYM    DATA     BIT       WUPIN
      000000C8H.6 SFRSYM    DATA     BIT       I3FR
      000000FFH   SFRSYM    DATA     BYTE      SPIMDAT
      000000C0H.7 SFRSYM    DATA     BIT       EXF2
      00000098H.4 SFRSYM    DATA     BIT       REN0
      000000C8H.2 SFRSYM    DATA     BIT       T2CM
      000000B8H.1 SFRSYM    DATA     BIT       RF
      000000B8H.5 SFRSYM    DATA     BIT       WUIRQ
      000000E7H   SFRSYM    DATA     BYTE      SPIRDAT
      000000C1H   SFRSYM    DATA     BYTE      CCEN
      000000E2H   SFRSYM    DATA     BYTE      W2CON0
      000000BFH   SFRSYM    DATA     BYTE      SPISDAT
      000000D0H.7 SFRSYM    DATA     BIT       CY
      000000E1H   SFRSYM    DATA     BYTE      W2CON1
      000000FBH   SFRSYM    DATA     BYTE      FDCR
      000000E8H   SFRSYM    DATA     BIT       RFCE
      000000CBH   SFRSYM    DATA     BYTE      CRCH
      00000081H   SFRSYM    DATA     BYTE      SP
      000000D0H.2 SFRSYM    DATA     BIT       OV
      000000CAH   SFRSYM    DATA     BYTE      CRCL
      000000ADH   SFRSYM    DATA     BYTE      CLKLFCTRL
      000000B1H   SFRSYM    DATA     BYTE      RSTREAS
      000000C8H.7 SFRSYM    DATA     BIT       T2PS
      000000F9H   SFRSYM    DATA     BYTE      FPCR
LX51 LINKER/LOCATER V4.64.0.0                                                         09/06/2013  01:48:08  PAGE 68


      000000B8H.4 SFRSYM    DATA     BIT       MISC
      000000A1H   SFRSYM    DATA     BYTE      PWMDC0
      000000B4H   SFRSYM    DATA     BYTE      RTC2CMP0
      000000A2H   SFRSYM    DATA     BYTE      PWMDC1
      000000B5H   SFRSYM    DATA     BYTE      RTC2CMP1
      00000080H   SFRSYM    DATA     BIT       P00
      000000BAH   SFRSYM    DATA     BYTE      S0RELH
      00000090H   SFRSYM    DATA     BIT       P10
      00000080H.1 SFRSYM    DATA     BIT       P01
      00000087H   SFRSYM    DATA     BYTE      PCON
      000000A0H   SFRSYM    DATA     BIT       P20
      00000090H.1 SFRSYM    DATA     BIT       P11
      00000080H.2 SFRSYM    DATA     BIT       P02
      000000B0H   SFRSYM    DATA     BIT       P30
      000000A0H.1 SFRSYM    DATA     BIT       P21
      00000090H.2 SFRSYM    DATA     BIT       P12
      00000080H.3 SFRSYM    DATA     BIT       P03
      000000C0H.2 SFRSYM    DATA     BIT       SPIF
      000000F8H.2 SFRSYM    DATA     BIT       RDIS
      000000B0H.1 SFRSYM    DATA     BIT       P31
      000000A0H.2 SFRSYM    DATA     BIT       P22
      00000090H.3 SFRSYM    DATA     BIT       P13
      00000080H.4 SFRSYM    DATA     BIT       P04
      000000AAH   SFRSYM    DATA     BYTE      S0RELL
      000000B0H.2 SFRSYM    DATA     BIT       P32
      000000A0H.3 SFRSYM    DATA     BIT       P23
      00000090H.4 SFRSYM    DATA     BIT       P14
      00000080H.5 SFRSYM    DATA     BIT       P05
      000000D9H   SFRSYM    DATA     BYTE      W2SADR
      00000089H   SFRSYM    DATA     BYTE      TMOD
      00000088H   SFRSYM    DATA     BYTE      TCON
      000000B0H.3 SFRSYM    DATA     BIT       P33
      000000A0H.4 SFRSYM    DATA     BIT       P24
      00000090H.5 SFRSYM    DATA     BIT       P15
      00000080H.6 SFRSYM    DATA     BIT       P06
      000000B0H.4 SFRSYM    DATA     BIT       P34
      000000A0H.5 SFRSYM    DATA     BIT       P25
      00000090H.6 SFRSYM    DATA     BIT       P16
      00000080H.7 SFRSYM    DATA     BIT       P07
      000000C2H   SFRSYM    DATA     WORD      CC1
      000000B0H.5 SFRSYM    DATA     BIT       P35
      000000A0H.6 SFRSYM    DATA     BIT       P26
      00000090H.7 SFRSYM    DATA     BIT       P17
      000000C4H   SFRSYM    DATA     WORD      CC2
      000000B0H.6 SFRSYM    DATA     BIT       P36
      000000A0H.7 SFRSYM    DATA     BIT       P27
      000000C6H   SFRSYM    DATA     WORD      CC3
      000000B0H.7 SFRSYM    DATA     BIT       P37
      000000E8H.2 SFRSYM    DATA     BIT       RFCKEN
      000000F8H   SFRSYM    DATA     BIT       WPEN
      000000DDH   SFRSYM    DATA     BYTE      CCPDATIA
      000000DEH   SFRSYM    DATA     BYTE      CCPDATIB
      00000088H.1 SFRSYM    DATA     BIT       IE0
      000000F8H.4 SFRSYM    DATA     BIT       RDYN
      00000088H.3 SFRSYM    DATA     BIT       IE1
      000000CFH   SFRSYM    DATA     BYTE      WUOPC0
      000000F0H   SFRSYM    DATA     BYTE      B
      000000E9H   SFRSYM    DATA     BYTE      MD0
      000000CEH   SFRSYM    DATA     BYTE      WUOPC1
      000000A7H   SFRSYM    DATA     BYTE      MEMCON
      000000EAH   SFRSYM    DATA     BYTE      MD1
      000000D7H   SFRSYM    DATA     BYTE      RNGDAT
      000000EBH   SFRSYM    DATA     BYTE      MD2
      000000ECH   SFRSYM    DATA     BYTE      MD3
      000000EDH   SFRSYM    DATA     BYTE      MD4
LX51 LINKER/LOCATER V4.64.0.0                                                         09/06/2013  01:48:08  PAGE 69


      000000AFH   SFRSYM    DATA     BYTE      WDSV
      000000EEH   SFRSYM    DATA     BYTE      MD5
      000000E0H   SFRSYM    DATA     BYTE      ACC
      000000DCH   SFRSYM    DATA     BYTE      POFCON
      000000A8H.4 SFRSYM    DATA     BIT       ES0
      000000A8H.1 SFRSYM    DATA     BIT       ET0
      000000A9H   SFRSYM    DATA     BYTE      IP0
      000000A8H.3 SFRSYM    DATA     BIT       ET1
      00000088H.5 SFRSYM    DATA     BIT       TF0
      000000B9H   SFRSYM    DATA     BYTE      IP1
      000000A8H.5 SFRSYM    DATA     BIT       ET2
      00000098H   SFRSYM    DATA     BIT       RI0
      00000088H.7 SFRSYM    DATA     BIT       TF1
      000000C0H   SFRSYM    DATA     BIT       RFSPIF
      000000C0H.6 SFRSYM    DATA     BIT       TF2
      000000FCH   SFRSYM    DATA     BYTE      SPIMCON0
      000000D6H   SFRSYM    DATA     BYTE      RNGCTL
      0000008CH   SFRSYM    DATA     BYTE      TH0
      000000A8H   SFRSYM    DATA     BIT       EX0
      00000098H.1 SFRSYM    DATA     BIT       TI0
      00000088H   SFRSYM    DATA     BIT       IT0
      000000FDH   SFRSYM    DATA     BYTE      SPIMCON1
      0000008DH   SFRSYM    DATA     BYTE      TH1
      000000A8H.2 SFRSYM    DATA     BIT       EX1
      00000088H.2 SFRSYM    DATA     BIT       IT1
      000000CDH   SFRSYM    DATA     BYTE      TH2
      000000AEH   SFRSYM    DATA     BYTE      OPMCON
      000000D0H   SFRSYM    DATA     BIT       P
      00000098H.7 SFRSYM    DATA     BIT       SM0
      0000008AH   SFRSYM    DATA     BYTE      TL0
      00000098H.6 SFRSYM    DATA     BIT       SM1
      000000E4H   SFRSYM    DATA     BYTE      SPIRCON0
      0000008BH   SFRSYM    DATA     BYTE      TL1
      000000E5H   SFRSYM    DATA     BYTE      SPIRCON1
      000000CCH   SFRSYM    DATA     BYTE      TL2
      000000BCH   SFRSYM    DATA     BYTE      SPISCON0
      000000BDH   SFRSYM    DATA     BYTE      SPISCON1
      000000D0H.3 SFRSYM    DATA     BIT       RS0
      00000088H.4 SFRSYM    DATA     BIT       TR0
      000000D0H.4 SFRSYM    DATA     BIT       RS1
      000000B2H   SFRSYM    DATA     BYTE      PWMCON
      00000088H.6 SFRSYM    DATA     BIT       TR1
      000000CAH   SFRSYM    DATA     WORD      CRC
      000000A6H   SFRSYM    DATA     BYTE      INTEXP
      000000C0H.3 SFRSYM    DATA     BIT       WUPINF
      000000FAH   SFRSYM    DATA     BYTE      FCR
      000000D3H   SFRSYM    DATA     BYTE      ADCCON1
      000000D2H   SFRSYM    DATA     BYTE      ADCCON2
      00000083H   SFRSYM    DATA     BYTE      DPH
      000000D1H   SFRSYM    DATA     BYTE      ADCCON3
      000000C0H.1 SFRSYM    DATA     BIT       RFF
      00000093H   SFRSYM    DATA     BYTE      P0DIR
      00000082H   SFRSYM    DATA     BYTE      DPL
      0000009EH   SFRSYM    DATA     BYTE      P0CON
      00000099H   SFRSYM    DATA     BYTE      S0BUF
      00000094H   SFRSYM    DATA     BYTE      P1DIR
      0000009FH   SFRSYM    DATA     BYTE      P1CON
      00000095H   SFRSYM    DATA     BYTE      P2DIR
      000000B8H.7 SFRSYM    DATA     BIT       EXEN2
      000000DAH   SFRSYM    DATA     BYTE      W2DAT
      00000097H   SFRSYM    DATA     BYTE      P2CON
      00000096H   SFRSYM    DATA     BYTE      P3DIR
      000000A4H   SFRSYM    DATA     BYTE      PWRDWN
      00000098H   SFRSYM    DATA     BYTE      S0CON
      0000008FH   SFRSYM    DATA     BYTE      P3CON
LX51 LINKER/LOCATER V4.64.0.0                                                         09/06/2013  01:48:08  PAGE 70


      000000B6H   SFRSYM    DATA     BYTE      RTC2CPT00
      000000D8H   SFRSYM    DATA     BYTE      ADCON
      000000ACH   SFRSYM    DATA     BYTE      RTC2CPT10
      000000ABH   SFRSYM    DATA     BYTE      RTC2CPT01
      000000C8H   SFRSYM    DATA     BYTE      T2CON
      00000092H   SFRSYM    DATA     BYTE      DPS
      000000F8H.5 SFRSYM    DATA     BIT       WEN
      000000F8H   SFRSYM    DATA     BYTE      FSR
      000000D4H   SFRSYM    DATA     BYTE      ADCDATH
      000000C9H   SFRSYM    DATA     BYTE      MPAGE
      000000B8H.2 SFRSYM    DATA     BIT       SPI
      000000F8H.1 SFRSYM    DATA     BIT       RDEND
      000000D5H   SFRSYM    DATA     BYTE      ADCDATL
      000000F8H.3 SFRSYM    DATA     BIT       INFEN
      000000F8H.7 SFRSYM    DATA     BIT       MCDIS
      000000C0H.5 SFRSYM    DATA     BIT       WUF
      000000C0H.4 SFRSYM    DATA     BIT       MISCF
      000000EFH   SFRSYM    DATA     BYTE      ARCON
      000000D0H.5 SFRSYM    DATA     BIT       F0
      000000F8H.6 SFRSYM    DATA     BIT       STP
      000000FEH   SFRSYM    DATA     BYTE      SPIMSTAT
      000000E8H   SFRSYM    DATA     BYTE      RFCON
      000000D0H   SFRSYM    DATA     BYTE      PSW
      00000098H.2 SFRSYM    DATA     BIT       RB80
      000000C0H   SFRSYM    DATA     BYTE      IRCON
      000000E8H.1 SFRSYM    DATA     BIT       RFCSN
      000000E6H   SFRSYM    DATA     BYTE      SPIRSTAT
      000000B3H   SFRSYM    DATA     BYTE      RTC2CON

      01002842H   BLOCK     CODE     ---       LVL=0
      01002842H   LINE      ---      ---       #28
      01002850H   LINE      ---      ---       #29
      02000058H   SYMBOL    XDATA    ---       dst
      0200005BH   SYMBOL    XDATA    BYTE      n
      01002850H   BLOCK     CODE     NEAR LAB  LVL=1
      01002850H   LINE      ---      ---       #32
      0100285AH   LINE      ---      ---       #33
      0100285AH   LINE      ---      ---       #34
      01002861H   LINE      ---      ---       #35
      01002865H   LINE      ---      ---       #36
      01002875H   LINE      ---      ---       #37
      01002875H   LINE      ---      ---       #38
      0100287AH   LINE      ---      ---       #40
      0100288BH   LINE      ---      ---       #41
      01002893H   LINE      ---      ---       #42
      01002897H   LINE      ---      ---       #43
      01002897H   LINE      ---      ---       #45
      010028A8H   LINE      ---      ---       #46
      010028A8H   LINE      ---      ---       #47
      010028C6H   LINE      ---      ---       #48
      010028CEH   LINE      ---      ---       #49
      0200005CH   SYMBOL    XDATA    BYTE      i
      ---         BLOCKEND  CODE     ---       LVL=1
      ---         BLOCKEND  CODE     ---       LVL=0

      ---         MODULE    ---      ---       HAL_NRF_HW
      01001800H   PUBLIC    CODE     ---       _hal_nrf_rw
      00000098H.3 SFRSYM    DATA     BIT       TB80
      000000BEH   SFRSYM    DATA     BYTE      SPISSTAT
      000000C8H   SFRSYM    DATA     BIT       T2I0
      000000C3H   SFRSYM    DATA     BYTE      CCH1
      00000080H   SFRSYM    DATA     BYTE      P0
      000000C8H.1 SFRSYM    DATA     BIT       T2I1
      000000DFH   SFRSYM    DATA     BYTE      CCPDATO
      000000C5H   SFRSYM    DATA     BYTE      CCH2
LX51 LINKER/LOCATER V4.64.0.0                                                         09/06/2013  01:48:08  PAGE 71


      00000090H   SFRSYM    DATA     BYTE      P1
      000000C7H   SFRSYM    DATA     BYTE      CCH3
      000000A0H   SFRSYM    DATA     BYTE      P2
      00000098H.5 SFRSYM    DATA     BIT       SM20
      000000B0H   SFRSYM    DATA     BYTE      P3
      000000D0H.6 SFRSYM    DATA     BIT       AC
      000000C2H   SFRSYM    DATA     BYTE      CCL1
      000000C4H   SFRSYM    DATA     BYTE      CCL2
      000000D8H.7 SFRSYM    DATA     BIT       BD
      000000B8H   SFRSYM    DATA     BIT       RFSPI
      000000A8H.7 SFRSYM    DATA     BIT       EA
      000000CCH   SFRSYM    DATA     WORD      T2
      000000C6H   SFRSYM    DATA     BYTE      CCL3
      000000B7H   SFRSYM    DATA     BYTE      SPISRDSZ
      000000C8H.3 SFRSYM    DATA     BIT       T2R0
      000000C8H.4 SFRSYM    DATA     BIT       T2R1
      000000A8H   SFRSYM    DATA     BYTE      IEN0
      000000B8H   SFRSYM    DATA     BYTE      IEN1
      000000A5H   SFRSYM    DATA     BYTE      WUCON
      00000085H   SFRSYM    DATA     BYTE      DPH1
      000000DBH   SFRSYM    DATA     BYTE      COMPCON
      000000A3H   SFRSYM    DATA     BYTE      CLKCTRL
      00000084H   SFRSYM    DATA     BYTE      DPL1
      000000C8H.5 SFRSYM    DATA     BIT       I2FR
      000000B8H.3 SFRSYM    DATA     BIT       WUPIN
      000000C8H.6 SFRSYM    DATA     BIT       I3FR
      000000FFH   SFRSYM    DATA     BYTE      SPIMDAT
      000000C0H.7 SFRSYM    DATA     BIT       EXF2
      00000098H.4 SFRSYM    DATA     BIT       REN0
      000000C8H.2 SFRSYM    DATA     BIT       T2CM
      000000B8H.1 SFRSYM    DATA     BIT       RF
      000000B8H.5 SFRSYM    DATA     BIT       WUIRQ
      000000E7H   SFRSYM    DATA     BYTE      SPIRDAT
      000000C1H   SFRSYM    DATA     BYTE      CCEN
      000000E2H   SFRSYM    DATA     BYTE      W2CON0
      000000BFH   SFRSYM    DATA     BYTE      SPISDAT
      000000D0H.7 SFRSYM    DATA     BIT       CY
      000000E1H   SFRSYM    DATA     BYTE      W2CON1
      000000FBH   SFRSYM    DATA     BYTE      FDCR
      000000E8H   SFRSYM    DATA     BIT       RFCE
      000000CBH   SFRSYM    DATA     BYTE      CRCH
      00000081H   SFRSYM    DATA     BYTE      SP
      000000D0H.2 SFRSYM    DATA     BIT       OV
      000000CAH   SFRSYM    DATA     BYTE      CRCL
      000000ADH   SFRSYM    DATA     BYTE      CLKLFCTRL
      000000B1H   SFRSYM    DATA     BYTE      RSTREAS
      000000C8H.7 SFRSYM    DATA     BIT       T2PS
      000000F9H   SFRSYM    DATA     BYTE      FPCR
      000000B8H.4 SFRSYM    DATA     BIT       MISC
      000000A1H   SFRSYM    DATA     BYTE      PWMDC0
      000000B4H   SFRSYM    DATA     BYTE      RTC2CMP0
      000000A2H   SFRSYM    DATA     BYTE      PWMDC1
      000000B5H   SFRSYM    DATA     BYTE      RTC2CMP1
      00000080H   SFRSYM    DATA     BIT       P00
      000000BAH   SFRSYM    DATA     BYTE      S0RELH
      00000090H   SFRSYM    DATA     BIT       P10
      00000080H.1 SFRSYM    DATA     BIT       P01
      00000087H   SFRSYM    DATA     BYTE      PCON
      000000A0H   SFRSYM    DATA     BIT       P20
      00000090H.1 SFRSYM    DATA     BIT       P11
      00000080H.2 SFRSYM    DATA     BIT       P02
      000000B0H   SFRSYM    DATA     BIT       P30
      000000A0H.1 SFRSYM    DATA     BIT       P21
      00000090H.2 SFRSYM    DATA     BIT       P12
      00000080H.3 SFRSYM    DATA     BIT       P03
LX51 LINKER/LOCATER V4.64.0.0                                                         09/06/2013  01:48:08  PAGE 72


      000000C0H.2 SFRSYM    DATA     BIT       SPIF
      000000F8H.2 SFRSYM    DATA     BIT       RDIS
      000000B0H.1 SFRSYM    DATA     BIT       P31
      000000A0H.2 SFRSYM    DATA     BIT       P22
      00000090H.3 SFRSYM    DATA     BIT       P13
      00000080H.4 SFRSYM    DATA     BIT       P04
      000000AAH   SFRSYM    DATA     BYTE      S0RELL
      000000B0H.2 SFRSYM    DATA     BIT       P32
      000000A0H.3 SFRSYM    DATA     BIT       P23
      00000090H.4 SFRSYM    DATA     BIT       P14
      00000080H.5 SFRSYM    DATA     BIT       P05
      000000D9H   SFRSYM    DATA     BYTE      W2SADR
      00000089H   SFRSYM    DATA     BYTE      TMOD
      00000088H   SFRSYM    DATA     BYTE      TCON
      000000B0H.3 SFRSYM    DATA     BIT       P33
      000000A0H.4 SFRSYM    DATA     BIT       P24
      00000090H.5 SFRSYM    DATA     BIT       P15
      00000080H.6 SFRSYM    DATA     BIT       P06
      000000B0H.4 SFRSYM    DATA     BIT       P34
      000000A0H.5 SFRSYM    DATA     BIT       P25
      00000090H.6 SFRSYM    DATA     BIT       P16
      00000080H.7 SFRSYM    DATA     BIT       P07
      000000C2H   SFRSYM    DATA     WORD      CC1
      000000B0H.5 SFRSYM    DATA     BIT       P35
      000000A0H.6 SFRSYM    DATA     BIT       P26
      00000090H.7 SFRSYM    DATA     BIT       P17
      000000C4H   SFRSYM    DATA     WORD      CC2
      000000B0H.6 SFRSYM    DATA     BIT       P36
      000000A0H.7 SFRSYM    DATA     BIT       P27
      000000C6H   SFRSYM    DATA     WORD      CC3
      000000B0H.7 SFRSYM    DATA     BIT       P37
      000000E8H.2 SFRSYM    DATA     BIT       RFCKEN
      000000F8H   SFRSYM    DATA     BIT       WPEN
      000000DDH   SFRSYM    DATA     BYTE      CCPDATIA
      000000DEH   SFRSYM    DATA     BYTE      CCPDATIB
      00000088H.1 SFRSYM    DATA     BIT       IE0
      000000F8H.4 SFRSYM    DATA     BIT       RDYN
      00000088H.3 SFRSYM    DATA     BIT       IE1
      000000CFH   SFRSYM    DATA     BYTE      WUOPC0
      000000F0H   SFRSYM    DATA     BYTE      B
      000000E9H   SFRSYM    DATA     BYTE      MD0
      000000CEH   SFRSYM    DATA     BYTE      WUOPC1
      000000A7H   SFRSYM    DATA     BYTE      MEMCON
      000000EAH   SFRSYM    DATA     BYTE      MD1
      000000D7H   SFRSYM    DATA     BYTE      RNGDAT
      000000EBH   SFRSYM    DATA     BYTE      MD2
      000000ECH   SFRSYM    DATA     BYTE      MD3
      000000EDH   SFRSYM    DATA     BYTE      MD4
      000000AFH   SFRSYM    DATA     BYTE      WDSV
      000000EEH   SFRSYM    DATA     BYTE      MD5
      000000E0H   SFRSYM    DATA     BYTE      ACC
      000000DCH   SFRSYM    DATA     BYTE      POFCON
      000000A8H.4 SFRSYM    DATA     BIT       ES0
      000000A8H.1 SFRSYM    DATA     BIT       ET0
      000000A9H   SFRSYM    DATA     BYTE      IP0
      000000A8H.3 SFRSYM    DATA     BIT       ET1
      00000088H.5 SFRSYM    DATA     BIT       TF0
      000000B9H   SFRSYM    DATA     BYTE      IP1
      000000A8H.5 SFRSYM    DATA     BIT       ET2
      00000098H   SFRSYM    DATA     BIT       RI0
      00000088H.7 SFRSYM    DATA     BIT       TF1
      000000C0H   SFRSYM    DATA     BIT       RFSPIF
      000000C0H.6 SFRSYM    DATA     BIT       TF2
      000000FCH   SFRSYM    DATA     BYTE      SPIMCON0
      000000D6H   SFRSYM    DATA     BYTE      RNGCTL
LX51 LINKER/LOCATER V4.64.0.0                                                         09/06/2013  01:48:08  PAGE 73


      0000008CH   SFRSYM    DATA     BYTE      TH0
      000000A8H   SFRSYM    DATA     BIT       EX0
      00000098H.1 SFRSYM    DATA     BIT       TI0
      00000088H   SFRSYM    DATA     BIT       IT0
      000000FDH   SFRSYM    DATA     BYTE      SPIMCON1
      0000008DH   SFRSYM    DATA     BYTE      TH1
      000000A8H.2 SFRSYM    DATA     BIT       EX1
      00000088H.2 SFRSYM    DATA     BIT       IT1
      000000CDH   SFRSYM    DATA     BYTE      TH2
      000000AEH   SFRSYM    DATA     BYTE      OPMCON
      000000D0H   SFRSYM    DATA     BIT       P
      00000098H.7 SFRSYM    DATA     BIT       SM0
      0000008AH   SFRSYM    DATA     BYTE      TL0
      00000098H.6 SFRSYM    DATA     BIT       SM1
      000000E4H   SFRSYM    DATA     BYTE      SPIRCON0
      0000008BH   SFRSYM    DATA     BYTE      TL1
      000000E5H   SFRSYM    DATA     BYTE      SPIRCON1
      000000CCH   SFRSYM    DATA     BYTE      TL2
      000000BCH   SFRSYM    DATA     BYTE      SPISCON0
      000000BDH   SFRSYM    DATA     BYTE      SPISCON1
      000000D0H.3 SFRSYM    DATA     BIT       RS0
      00000088H.4 SFRSYM    DATA     BIT       TR0
      000000D0H.4 SFRSYM    DATA     BIT       RS1
      000000B2H   SFRSYM    DATA     BYTE      PWMCON
      00000088H.6 SFRSYM    DATA     BIT       TR1
      000000CAH   SFRSYM    DATA     WORD      CRC
      000000A6H   SFRSYM    DATA     BYTE      INTEXP
      000000C0H.3 SFRSYM    DATA     BIT       WUPINF
      000000FAH   SFRSYM    DATA     BYTE      FCR
      000000D3H   SFRSYM    DATA     BYTE      ADCCON1
      000000D2H   SFRSYM    DATA     BYTE      ADCCON2
      00000083H   SFRSYM    DATA     BYTE      DPH
      000000D1H   SFRSYM    DATA     BYTE      ADCCON3
      000000C0H.1 SFRSYM    DATA     BIT       RFF
      00000093H   SFRSYM    DATA     BYTE      P0DIR
      00000082H   SFRSYM    DATA     BYTE      DPL
      0000009EH   SFRSYM    DATA     BYTE      P0CON
      00000099H   SFRSYM    DATA     BYTE      S0BUF
      00000094H   SFRSYM    DATA     BYTE      P1DIR
      0000009FH   SFRSYM    DATA     BYTE      P1CON
      00000095H   SFRSYM    DATA     BYTE      P2DIR
      000000B8H.7 SFRSYM    DATA     BIT       EXEN2
      000000DAH   SFRSYM    DATA     BYTE      W2DAT
      00000097H   SFRSYM    DATA     BYTE      P2CON
      00000096H   SFRSYM    DATA     BYTE      P3DIR
      000000A4H   SFRSYM    DATA     BYTE      PWRDWN
      00000098H   SFRSYM    DATA     BYTE      S0CON
      0000008FH   SFRSYM    DATA     BYTE      P3CON
      000000B6H   SFRSYM    DATA     BYTE      RTC2CPT00
      000000D8H   SFRSYM    DATA     BYTE      ADCON
      000000ACH   SFRSYM    DATA     BYTE      RTC2CPT10
      000000ABH   SFRSYM    DATA     BYTE      RTC2CPT01
      000000C8H   SFRSYM    DATA     BYTE      T2CON
      00000092H   SFRSYM    DATA     BYTE      DPS
      000000F8H.5 SFRSYM    DATA     BIT       WEN
      000000F8H   SFRSYM    DATA     BYTE      FSR
      000000D4H   SFRSYM    DATA     BYTE      ADCDATH
      000000C9H   SFRSYM    DATA     BYTE      MPAGE
      000000B8H.2 SFRSYM    DATA     BIT       SPI
      000000F8H.1 SFRSYM    DATA     BIT       RDEND
      000000D5H   SFRSYM    DATA     BYTE      ADCDATL
      000000F8H.3 SFRSYM    DATA     BIT       INFEN
      000000F8H.7 SFRSYM    DATA     BIT       MCDIS
      000000C0H.5 SFRSYM    DATA     BIT       WUF
      000000C0H.4 SFRSYM    DATA     BIT       MISCF
LX51 LINKER/LOCATER V4.64.0.0                                                         09/06/2013  01:48:08  PAGE 74


      000000EFH   SFRSYM    DATA     BYTE      ARCON
      000000D0H.5 SFRSYM    DATA     BIT       F0
      000000F8H.6 SFRSYM    DATA     BIT       STP
      000000FEH   SFRSYM    DATA     BYTE      SPIMSTAT
      000000E8H   SFRSYM    DATA     BYTE      RFCON
      000000D0H   SFRSYM    DATA     BYTE      PSW
      00000098H.2 SFRSYM    DATA     BIT       RB80
      000000C0H   SFRSYM    DATA     BYTE      IRCON
      000000E8H.1 SFRSYM    DATA     BIT       RFCSN
      000000E6H   SFRSYM    DATA     BYTE      SPIRSTAT
      000000B3H   SFRSYM    DATA     BYTE      RTC2CON

      01001800H   BLOCK     CODE     ---       LVL=0
      01001800H   LINE      ---      ---       #25
      01001800H   LINE      ---      ---       #26
      01001800H   LINE      ---      ---       #27
      01001802H   LINE      ---      ---       #28
      01001807H   LINE      ---      ---       #29
      01001807H   LINE      ---      ---       #30
      01001807H   LINE      ---      ---       #31
      01001809H   LINE      ---      ---       #32
      00000007H   SYMBOL    DATA     BYTE      value
      ---         BLOCKEND  ---      ---       LVL=0

      ---         MODULE    ---      ---       HAL_RTC
      01002097H   PUBLIC    CODE     ---       _hal_rtc_set_compare_value
      010020ABH   PUBLIC    CODE     ---       _hal_rtc_start
      010020C2H   PUBLIC    CODE     ---       _hal_rtc_set_compare_mode
      00000098H.3 SFRSYM    DATA     BIT       TB80
      000000BEH   SFRSYM    DATA     BYTE      SPISSTAT
      000000C8H   SFRSYM    DATA     BIT       T2I0
      000000C3H   SFRSYM    DATA     BYTE      CCH1
      00000080H   SFRSYM    DATA     BYTE      P0
      000000C8H.1 SFRSYM    DATA     BIT       T2I1
      000000DFH   SFRSYM    DATA     BYTE      CCPDATO
      000000C5H   SFRSYM    DATA     BYTE      CCH2
      00000090H   SFRSYM    DATA     BYTE      P1
      000000C7H   SFRSYM    DATA     BYTE      CCH3
      000000A0H   SFRSYM    DATA     BYTE      P2
      00000098H.5 SFRSYM    DATA     BIT       SM20
      000000B0H   SFRSYM    DATA     BYTE      P3
      000000D0H.6 SFRSYM    DATA     BIT       AC
      000000C2H   SFRSYM    DATA     BYTE      CCL1
      000000C4H   SFRSYM    DATA     BYTE      CCL2
      000000D8H.7 SFRSYM    DATA     BIT       BD
      000000B8H   SFRSYM    DATA     BIT       RFSPI
      000000A8H.7 SFRSYM    DATA     BIT       EA
      000000CCH   SFRSYM    DATA     WORD      T2
      000000C6H   SFRSYM    DATA     BYTE      CCL3
      000000B7H   SFRSYM    DATA     BYTE      SPISRDSZ
      000000C8H.3 SFRSYM    DATA     BIT       T2R0
      000000C8H.4 SFRSYM    DATA     BIT       T2R1
      000000A8H   SFRSYM    DATA     BYTE      IEN0
      000000B8H   SFRSYM    DATA     BYTE      IEN1
      000000A5H   SFRSYM    DATA     BYTE      WUCON
      00000085H   SFRSYM    DATA     BYTE      DPH1
      000000DBH   SFRSYM    DATA     BYTE      COMPCON
      000000A3H   SFRSYM    DATA     BYTE      CLKCTRL
      00000084H   SFRSYM    DATA     BYTE      DPL1
      000000C8H.5 SFRSYM    DATA     BIT       I2FR
      000000B8H.3 SFRSYM    DATA     BIT       WUPIN
      000000C8H.6 SFRSYM    DATA     BIT       I3FR
      000000FFH   SFRSYM    DATA     BYTE      SPIMDAT
      000000C0H.7 SFRSYM    DATA     BIT       EXF2
      00000098H.4 SFRSYM    DATA     BIT       REN0
LX51 LINKER/LOCATER V4.64.0.0                                                         09/06/2013  01:48:08  PAGE 75


      000000C8H.2 SFRSYM    DATA     BIT       T2CM
      000000B8H.1 SFRSYM    DATA     BIT       RF
      000000B8H.5 SFRSYM    DATA     BIT       WUIRQ
      000000E7H   SFRSYM    DATA     BYTE      SPIRDAT
      000000C1H   SFRSYM    DATA     BYTE      CCEN
      000000E2H   SFRSYM    DATA     BYTE      W2CON0
      000000BFH   SFRSYM    DATA     BYTE      SPISDAT
      000000D0H.7 SFRSYM    DATA     BIT       CY
      000000E1H   SFRSYM    DATA     BYTE      W2CON1
      000000FBH   SFRSYM    DATA     BYTE      FDCR
      000000E8H   SFRSYM    DATA     BIT       RFCE
      000000CBH   SFRSYM    DATA     BYTE      CRCH
      00000081H   SFRSYM    DATA     BYTE      SP
      000000D0H.2 SFRSYM    DATA     BIT       OV
      000000CAH   SFRSYM    DATA     BYTE      CRCL
      000000ADH   SFRSYM    DATA     BYTE      CLKLFCTRL
      000000B1H   SFRSYM    DATA     BYTE      RSTREAS
      000000C8H.7 SFRSYM    DATA     BIT       T2PS
      000000F9H   SFRSYM    DATA     BYTE      FPCR
      000000B8H.4 SFRSYM    DATA     BIT       MISC
      000000A1H   SFRSYM    DATA     BYTE      PWMDC0
      000000B4H   SFRSYM    DATA     BYTE      RTC2CMP0
      000000A2H   SFRSYM    DATA     BYTE      PWMDC1
      000000B5H   SFRSYM    DATA     BYTE      RTC2CMP1
      00000080H   SFRSYM    DATA     BIT       P00
      000000BAH   SFRSYM    DATA     BYTE      S0RELH
      00000090H   SFRSYM    DATA     BIT       P10
      00000080H.1 SFRSYM    DATA     BIT       P01
      00000087H   SFRSYM    DATA     BYTE      PCON
      000000A0H   SFRSYM    DATA     BIT       P20
      00000090H.1 SFRSYM    DATA     BIT       P11
      00000080H.2 SFRSYM    DATA     BIT       P02
      000000B0H   SFRSYM    DATA     BIT       P30
      000000A0H.1 SFRSYM    DATA     BIT       P21
      00000090H.2 SFRSYM    DATA     BIT       P12
      00000080H.3 SFRSYM    DATA     BIT       P03
      000000C0H.2 SFRSYM    DATA     BIT       SPIF
      000000F8H.2 SFRSYM    DATA     BIT       RDIS
      000000B0H.1 SFRSYM    DATA     BIT       P31
      000000A0H.2 SFRSYM    DATA     BIT       P22
      00000090H.3 SFRSYM    DATA     BIT       P13
      00000080H.4 SFRSYM    DATA     BIT       P04
      000000AAH   SFRSYM    DATA     BYTE      S0RELL
      000000B0H.2 SFRSYM    DATA     BIT       P32
      000000A0H.3 SFRSYM    DATA     BIT       P23
      00000090H.4 SFRSYM    DATA     BIT       P14
      00000080H.5 SFRSYM    DATA     BIT       P05
      000000D9H   SFRSYM    DATA     BYTE      W2SADR
      00000089H   SFRSYM    DATA     BYTE      TMOD
      00000088H   SFRSYM    DATA     BYTE      TCON
      000000B0H.3 SFRSYM    DATA     BIT       P33
      000000A0H.4 SFRSYM    DATA     BIT       P24
      00000090H.5 SFRSYM    DATA     BIT       P15
      00000080H.6 SFRSYM    DATA     BIT       P06
      000000B0H.4 SFRSYM    DATA     BIT       P34
      000000A0H.5 SFRSYM    DATA     BIT       P25
      00000090H.6 SFRSYM    DATA     BIT       P16
      00000080H.7 SFRSYM    DATA     BIT       P07
      000000C2H   SFRSYM    DATA     WORD      CC1
      000000B0H.5 SFRSYM    DATA     BIT       P35
      000000A0H.6 SFRSYM    DATA     BIT       P26
      00000090H.7 SFRSYM    DATA     BIT       P17
      000000C4H   SFRSYM    DATA     WORD      CC2
      000000B0H.6 SFRSYM    DATA     BIT       P36
      000000A0H.7 SFRSYM    DATA     BIT       P27
LX51 LINKER/LOCATER V4.64.0.0                                                         09/06/2013  01:48:08  PAGE 76


      000000C6H   SFRSYM    DATA     WORD      CC3
      000000B0H.7 SFRSYM    DATA     BIT       P37
      000000E8H.2 SFRSYM    DATA     BIT       RFCKEN
      000000F8H   SFRSYM    DATA     BIT       WPEN
      000000DDH   SFRSYM    DATA     BYTE      CCPDATIA
      000000DEH   SFRSYM    DATA     BYTE      CCPDATIB
      00000088H.1 SFRSYM    DATA     BIT       IE0
      000000F8H.4 SFRSYM    DATA     BIT       RDYN
      00000088H.3 SFRSYM    DATA     BIT       IE1
      000000CFH   SFRSYM    DATA     BYTE      WUOPC0
      000000F0H   SFRSYM    DATA     BYTE      B
      000000E9H   SFRSYM    DATA     BYTE      MD0
      000000CEH   SFRSYM    DATA     BYTE      WUOPC1
      000000A7H   SFRSYM    DATA     BYTE      MEMCON
      000000EAH   SFRSYM    DATA     BYTE      MD1
      000000D7H   SFRSYM    DATA     BYTE      RNGDAT
      000000EBH   SFRSYM    DATA     BYTE      MD2
      000000ECH   SFRSYM    DATA     BYTE      MD3
      000000EDH   SFRSYM    DATA     BYTE      MD4
      000000AFH   SFRSYM    DATA     BYTE      WDSV
      000000EEH   SFRSYM    DATA     BYTE      MD5
      000000E0H   SFRSYM    DATA     BYTE      ACC
      000000DCH   SFRSYM    DATA     BYTE      POFCON
      000000A8H.4 SFRSYM    DATA     BIT       ES0
      000000A8H.1 SFRSYM    DATA     BIT       ET0
      000000A9H   SFRSYM    DATA     BYTE      IP0
      000000A8H.3 SFRSYM    DATA     BIT       ET1
      00000088H.5 SFRSYM    DATA     BIT       TF0
      000000B9H   SFRSYM    DATA     BYTE      IP1
      000000A8H.5 SFRSYM    DATA     BIT       ET2
      00000098H   SFRSYM    DATA     BIT       RI0
      00000088H.7 SFRSYM    DATA     BIT       TF1
      000000C0H   SFRSYM    DATA     BIT       RFSPIF
      000000C0H.6 SFRSYM    DATA     BIT       TF2
      000000FCH   SFRSYM    DATA     BYTE      SPIMCON0
      000000D6H   SFRSYM    DATA     BYTE      RNGCTL
      0000008CH   SFRSYM    DATA     BYTE      TH0
      000000A8H   SFRSYM    DATA     BIT       EX0
      00000098H.1 SFRSYM    DATA     BIT       TI0
      00000088H   SFRSYM    DATA     BIT       IT0
      000000FDH   SFRSYM    DATA     BYTE      SPIMCON1
      0000008DH   SFRSYM    DATA     BYTE      TH1
      000000A8H.2 SFRSYM    DATA     BIT       EX1
      00000088H.2 SFRSYM    DATA     BIT       IT1
      000000CDH   SFRSYM    DATA     BYTE      TH2
      000000AEH   SFRSYM    DATA     BYTE      OPMCON
      000000D0H   SFRSYM    DATA     BIT       P
      00000098H.7 SFRSYM    DATA     BIT       SM0
      0000008AH   SFRSYM    DATA     BYTE      TL0
      00000098H.6 SFRSYM    DATA     BIT       SM1
      000000E4H   SFRSYM    DATA     BYTE      SPIRCON0
      0000008BH   SFRSYM    DATA     BYTE      TL1
      000000E5H   SFRSYM    DATA     BYTE      SPIRCON1
      000000CCH   SFRSYM    DATA     BYTE      TL2
      000000BCH   SFRSYM    DATA     BYTE      SPISCON0
      000000BDH   SFRSYM    DATA     BYTE      SPISCON1
      000000D0H.3 SFRSYM    DATA     BIT       RS0
      00000088H.4 SFRSYM    DATA     BIT       TR0
      000000D0H.4 SFRSYM    DATA     BIT       RS1
      000000B2H   SFRSYM    DATA     BYTE      PWMCON
      00000088H.6 SFRSYM    DATA     BIT       TR1
      000000CAH   SFRSYM    DATA     WORD      CRC
      000000A6H   SFRSYM    DATA     BYTE      INTEXP
      000000C0H.3 SFRSYM    DATA     BIT       WUPINF
      000000FAH   SFRSYM    DATA     BYTE      FCR
LX51 LINKER/LOCATER V4.64.0.0                                                         09/06/2013  01:48:08  PAGE 77


      000000D3H   SFRSYM    DATA     BYTE      ADCCON1
      000000D2H   SFRSYM    DATA     BYTE      ADCCON2
      00000083H   SFRSYM    DATA     BYTE      DPH
      000000D1H   SFRSYM    DATA     BYTE      ADCCON3
      000000C0H.1 SFRSYM    DATA     BIT       RFF
      00000093H   SFRSYM    DATA     BYTE      P0DIR
      00000082H   SFRSYM    DATA     BYTE      DPL
      0000009EH   SFRSYM    DATA     BYTE      P0CON
      00000099H   SFRSYM    DATA     BYTE      S0BUF
      00000094H   SFRSYM    DATA     BYTE      P1DIR
      0000009FH   SFRSYM    DATA     BYTE      P1CON
      00000095H   SFRSYM    DATA     BYTE      P2DIR
      000000B8H.7 SFRSYM    DATA     BIT       EXEN2
      000000DAH   SFRSYM    DATA     BYTE      W2DAT
      00000097H   SFRSYM    DATA     BYTE      P2CON
      00000096H   SFRSYM    DATA     BYTE      P3DIR
      000000A4H   SFRSYM    DATA     BYTE      PWRDWN
      00000098H   SFRSYM    DATA     BYTE      S0CON
      0000008FH   SFRSYM    DATA     BYTE      P3CON
      000000B6H   SFRSYM    DATA     BYTE      RTC2CPT00
      000000D8H   SFRSYM    DATA     BYTE      ADCON
      000000ACH   SFRSYM    DATA     BYTE      RTC2CPT10
      000000ABH   SFRSYM    DATA     BYTE      RTC2CPT01
      000000C8H   SFRSYM    DATA     BYTE      T2CON
      00000092H   SFRSYM    DATA     BYTE      DPS
      000000F8H.5 SFRSYM    DATA     BIT       WEN
      000000F8H   SFRSYM    DATA     BYTE      FSR
      000000D4H   SFRSYM    DATA     BYTE      ADCDATH
      000000C9H   SFRSYM    DATA     BYTE      MPAGE
      000000B8H.2 SFRSYM    DATA     BIT       SPI
      000000F8H.1 SFRSYM    DATA     BIT       RDEND
      000000D5H   SFRSYM    DATA     BYTE      ADCDATL
      000000F8H.3 SFRSYM    DATA     BIT       INFEN
      000000F8H.7 SFRSYM    DATA     BIT       MCDIS
      000000C0H.5 SFRSYM    DATA     BIT       WUF
      000000C0H.4 SFRSYM    DATA     BIT       MISCF
      000000EFH   SFRSYM    DATA     BYTE      ARCON
      000000D0H.5 SFRSYM    DATA     BIT       F0
      000000F8H.6 SFRSYM    DATA     BIT       STP
      000000FEH   SFRSYM    DATA     BYTE      SPIMSTAT
      000000E8H   SFRSYM    DATA     BYTE      RFCON
      000000D0H   SFRSYM    DATA     BYTE      PSW
      00000098H.2 SFRSYM    DATA     BIT       RB80
      000000C0H   SFRSYM    DATA     BYTE      IRCON
      000000E8H.1 SFRSYM    DATA     BIT       RFCSN
      000000E6H   SFRSYM    DATA     BYTE      SPIRSTAT
      000000B3H   SFRSYM    DATA     BYTE      RTC2CON
      00000007H   SYMBOL    DATA     BYTE      en

      010020C2H   BLOCK     CODE     ---       LVL=0
      010020C2H   LINE      ---      ---       #39
      010020C2H   LINE      ---      ---       #40
      010020C2H   LINE      ---      ---       #41
      010020CFH   LINE      ---      ---       #42
      00000007H   SYMBOL    DATA     BYTE      mode
      ---         BLOCKEND  ---      ---       LVL=0

      010020ABH   BLOCK     CODE     ---       LVL=0
      010020ABH   LINE      ---      ---       #44
      010020ABH   LINE      ---      ---       #45
      010020ABH   LINE      ---      ---       #46
      010020AEH   LINE      ---      ---       #47
      010020AEH   LINE      ---      ---       #48
      010020B1H   LINE      ---      ---       #49
      010020B2H   LINE      ---      ---       #51
LX51 LINKER/LOCATER V4.64.0.0                                                         09/06/2013  01:48:08  PAGE 78


      010020B2H   LINE      ---      ---       #52
      010020B5H   LINE      ---      ---       #53
      010020B5H   LINE      ---      ---       #54
      00000007H   SYMBOL    DATA     BYTE      en
      ---         BLOCKEND  ---      ---       LVL=0

      01002097H   BLOCK     CODE     ---       LVL=0
      01002097H   LINE      ---      ---       #56
      01002097H   LINE      ---      ---       #57
      00000006H   SYMBOL    DATA     WORD      value
      01002097H   BLOCK     CODE     NEAR LAB  LVL=1
      01002097H   LINE      ---      ---       #59
      0100209CH   LINE      ---      ---       #60
      0100209FH   LINE      ---      ---       #61
      010020A2H   LINE      ---      ---       #62
      010020A5H   LINE      ---      ---       #63
      010020AAH   LINE      ---      ---       #64
      00000005H   SYMBOL    DATA     BYTE      compare_status
      ---         BLOCKEND  CODE     ---       LVL=1
      ---         BLOCKEND  CODE     ---       LVL=0
      00000001H   SYMBOL    DATA     BYTE      compare_status
      00000006H   SYMBOL    DATA     WORD      value
      00000001H   SYMBOL    DATA     BYTE      capture_status
      00000006H   SYMBOL    DATA     WORD      value

      ---         MODULE    ---      ---       HAL_NRF
      0200006AH   PUBLIC    XDATA    BYTE      ?_hal_nrf_write_multibyte_reg?BYTE
      0100305EH   PUBLIC    CODE     ---       _hal_nrf_write_multibyte_reg
      0100180AH   PUBLIC    CODE     ---       _hal_nrf_read_multibyte_reg
      01001ADEH   PUBLIC    CODE     ---       _hal_nrf_write_reg
      01001A6CH   PUBLIC    CODE     ---       _hal_nrf_read_reg
      01001A5FH   PUBLIC    CODE     ---       hal_nrf_nop
      010017F0H   PUBLIC    CODE     ---       hal_nrf_flush_tx
      010017F1H   PUBLIC    CODE     ---       hal_nrf_flush_rx
      01001A52H   PUBLIC    CODE     ---       hal_nrf_get_rx_data_source
      01001FE9H   PUBLIC    CODE     ---       _hal_nrf_read_rx_payload
      010017FAH   PUBLIC    CODE     ---       hal_nrf_read_rx_payload_width
      02000065H   PUBLIC    XDATA    BYTE      ?_hal_nrf_write_ack_payload?BYTE
      01002FE1H   PUBLIC    CODE     ---       _hal_nrf_write_ack_payload
      01003030H   PUBLIC    CODE     ---       _hal_nrf_enable_ack_payload
      01003000H   PUBLIC    CODE     ---       _hal_nrf_enable_dynamic_payload
      01002FD3H   PUBLIC    CODE     ---       _hal_nrf_setup_dynamic_payload
      01001F59H   PUBLIC    CODE     ---       hal_nrf_get_carrier_detect
      01001F50H   PUBLIC    CODE     ---       hal_nrf_get_transmit_attempts
      01002FC7H   PUBLIC    CODE     ---       hal_nrf_tx_fifo_full
      01001F62H   PUBLIC    CODE     ---       hal_nrf_tx_fifo_empty
      01001FEDH   PUBLIC    CODE     ---       hal_nrf_rx_fifo_empty
      01002F88H   PUBLIC    CODE     ---       _hal_nrf_set_datarate
      01001F9EH   PUBLIC    CODE     ---       _hal_nrf_set_output_power
      01001F6CH   PUBLIC    CODE     ---       _hal_nrf_set_rf_channel
      01001A49H   PUBLIC    CODE     ---       hal_nrf_get_address_width
      01002F71H   PUBLIC    CODE     ---       _hal_nrf_set_address_width
      010023F1H   PUBLIC    CODE     ---       _hal_nrf_set_auto_retr
      01000F2DH   PUBLIC    CODE     ---       _hal_nrf_set_address
      01001A86H   PUBLIC    CODE     ---       _hal_nrf_close_pipe
      01001B00H   PUBLIC    CODE     ---       _hal_nrf_open_pipe
      01001F2EH   PUBLIC    CODE     ---       hal_nrf_clear_irq_flags_get_status
      01002F65H   PUBLIC    CODE     ---       hal_nrf_get_clear_irq_flags
      01002F1DH   PUBLIC    CODE     ---       _hal_nrf_set_crc_mode
      01001B8AH   PUBLIC    CODE     ---       _hal_nrf_set_power_mode
      01001FBDH   PUBLIC    CODE     ---       _hal_nrf_set_operation_mode
      00000098H.3 SFRSYM    DATA     BIT       TB80
      000000BEH   SFRSYM    DATA     BYTE      SPISSTAT
      000000C8H   SFRSYM    DATA     BIT       T2I0
      000000C3H   SFRSYM    DATA     BYTE      CCH1
LX51 LINKER/LOCATER V4.64.0.0                                                         09/06/2013  01:48:08  PAGE 79


      00000080H   SFRSYM    DATA     BYTE      P0
      000000C8H.1 SFRSYM    DATA     BIT       T2I1
      000000DFH   SFRSYM    DATA     BYTE      CCPDATO
      000000C5H   SFRSYM    DATA     BYTE      CCH2
      00000090H   SFRSYM    DATA     BYTE      P1
      000000C7H   SFRSYM    DATA     BYTE      CCH3
      000000A0H   SFRSYM    DATA     BYTE      P2
      00000098H.5 SFRSYM    DATA     BIT       SM20
      000000B0H   SFRSYM    DATA     BYTE      P3
      000000D0H.6 SFRSYM    DATA     BIT       AC
      000000C2H   SFRSYM    DATA     BYTE      CCL1
      000000C4H   SFRSYM    DATA     BYTE      CCL2
      000000D8H.7 SFRSYM    DATA     BIT       BD
      000000B8H   SFRSYM    DATA     BIT       RFSPI
      000000A8H.7 SFRSYM    DATA     BIT       EA
      000000CCH   SFRSYM    DATA     WORD      T2
      000000C6H   SFRSYM    DATA     BYTE      CCL3
      000000B7H   SFRSYM    DATA     BYTE      SPISRDSZ
      000000C8H.3 SFRSYM    DATA     BIT       T2R0
      000000C8H.4 SFRSYM    DATA     BIT       T2R1
      000000A8H   SFRSYM    DATA     BYTE      IEN0
      000000B8H   SFRSYM    DATA     BYTE      IEN1
      000000A5H   SFRSYM    DATA     BYTE      WUCON
      00000085H   SFRSYM    DATA     BYTE      DPH1
      000000DBH   SFRSYM    DATA     BYTE      COMPCON
      000000A3H   SFRSYM    DATA     BYTE      CLKCTRL
      00000084H   SFRSYM    DATA     BYTE      DPL1
      000000C8H.5 SFRSYM    DATA     BIT       I2FR
      000000B8H.3 SFRSYM    DATA     BIT       WUPIN
      000000C8H.6 SFRSYM    DATA     BIT       I3FR
      000000FFH   SFRSYM    DATA     BYTE      SPIMDAT
      000000C0H.7 SFRSYM    DATA     BIT       EXF2
      00000098H.4 SFRSYM    DATA     BIT       REN0
      000000C8H.2 SFRSYM    DATA     BIT       T2CM
      000000B8H.1 SFRSYM    DATA     BIT       RF
      000000B8H.5 SFRSYM    DATA     BIT       WUIRQ
      000000E7H   SFRSYM    DATA     BYTE      SPIRDAT
      000000C1H   SFRSYM    DATA     BYTE      CCEN
      000000E2H   SFRSYM    DATA     BYTE      W2CON0
      000000BFH   SFRSYM    DATA     BYTE      SPISDAT
      000000D0H.7 SFRSYM    DATA     BIT       CY
      000000E1H   SFRSYM    DATA     BYTE      W2CON1
      000000FBH   SFRSYM    DATA     BYTE      FDCR
      000000E8H   SFRSYM    DATA     BIT       RFCE
      000000CBH   SFRSYM    DATA     BYTE      CRCH
      00000081H   SFRSYM    DATA     BYTE      SP
      000000D0H.2 SFRSYM    DATA     BIT       OV
      000000CAH   SFRSYM    DATA     BYTE      CRCL
      000000ADH   SFRSYM    DATA     BYTE      CLKLFCTRL
      000000B1H   SFRSYM    DATA     BYTE      RSTREAS
      000000C8H.7 SFRSYM    DATA     BIT       T2PS
      000000F9H   SFRSYM    DATA     BYTE      FPCR
      000000B8H.4 SFRSYM    DATA     BIT       MISC
      000000A1H   SFRSYM    DATA     BYTE      PWMDC0
      000000B4H   SFRSYM    DATA     BYTE      RTC2CMP0
      000000A2H   SFRSYM    DATA     BYTE      PWMDC1
      000000B5H   SFRSYM    DATA     BYTE      RTC2CMP1
      00000080H   SFRSYM    DATA     BIT       P00
      000000BAH   SFRSYM    DATA     BYTE      S0RELH
      00000090H   SFRSYM    DATA     BIT       P10
      00000080H.1 SFRSYM    DATA     BIT       P01
      00000087H   SFRSYM    DATA     BYTE      PCON
      000000A0H   SFRSYM    DATA     BIT       P20
      00000090H.1 SFRSYM    DATA     BIT       P11
      00000080H.2 SFRSYM    DATA     BIT       P02
LX51 LINKER/LOCATER V4.64.0.0                                                         09/06/2013  01:48:08  PAGE 80


      000000B0H   SFRSYM    DATA     BIT       P30
      000000A0H.1 SFRSYM    DATA     BIT       P21
      00000090H.2 SFRSYM    DATA     BIT       P12
      00000080H.3 SFRSYM    DATA     BIT       P03
      000000C0H.2 SFRSYM    DATA     BIT       SPIF
      000000F8H.2 SFRSYM    DATA     BIT       RDIS
      000000B0H.1 SFRSYM    DATA     BIT       P31
      000000A0H.2 SFRSYM    DATA     BIT       P22
      00000090H.3 SFRSYM    DATA     BIT       P13
      00000080H.4 SFRSYM    DATA     BIT       P04
      000000AAH   SFRSYM    DATA     BYTE      S0RELL
      000000B0H.2 SFRSYM    DATA     BIT       P32
      000000A0H.3 SFRSYM    DATA     BIT       P23
      00000090H.4 SFRSYM    DATA     BIT       P14
      00000080H.5 SFRSYM    DATA     BIT       P05
      000000D9H   SFRSYM    DATA     BYTE      W2SADR
      00000089H   SFRSYM    DATA     BYTE      TMOD
      00000088H   SFRSYM    DATA     BYTE      TCON
      000000B0H.3 SFRSYM    DATA     BIT       P33
      000000A0H.4 SFRSYM    DATA     BIT       P24
      00000090H.5 SFRSYM    DATA     BIT       P15
      00000080H.6 SFRSYM    DATA     BIT       P06
      000000B0H.4 SFRSYM    DATA     BIT       P34
      000000A0H.5 SFRSYM    DATA     BIT       P25
      00000090H.6 SFRSYM    DATA     BIT       P16
      00000080H.7 SFRSYM    DATA     BIT       P07
      000000C2H   SFRSYM    DATA     WORD      CC1
      000000B0H.5 SFRSYM    DATA     BIT       P35
      000000A0H.6 SFRSYM    DATA     BIT       P26
      00000090H.7 SFRSYM    DATA     BIT       P17
      000000C4H   SFRSYM    DATA     WORD      CC2
      000000B0H.6 SFRSYM    DATA     BIT       P36
      000000A0H.7 SFRSYM    DATA     BIT       P27
      000000C6H   SFRSYM    DATA     WORD      CC3
      000000B0H.7 SFRSYM    DATA     BIT       P37
      000000E8H.2 SFRSYM    DATA     BIT       RFCKEN
      000000F8H   SFRSYM    DATA     BIT       WPEN
      000000DDH   SFRSYM    DATA     BYTE      CCPDATIA
      000000DEH   SFRSYM    DATA     BYTE      CCPDATIB
      00000088H.1 SFRSYM    DATA     BIT       IE0
      000000F8H.4 SFRSYM    DATA     BIT       RDYN
      00000088H.3 SFRSYM    DATA     BIT       IE1
      000000CFH   SFRSYM    DATA     BYTE      WUOPC0
      000000F0H   SFRSYM    DATA     BYTE      B
      000000E9H   SFRSYM    DATA     BYTE      MD0
      000000CEH   SFRSYM    DATA     BYTE      WUOPC1
      000000A7H   SFRSYM    DATA     BYTE      MEMCON
      000000EAH   SFRSYM    DATA     BYTE      MD1
      000000D7H   SFRSYM    DATA     BYTE      RNGDAT
      000000EBH   SFRSYM    DATA     BYTE      MD2
      000000ECH   SFRSYM    DATA     BYTE      MD3
      000000EDH   SFRSYM    DATA     BYTE      MD4
      000000AFH   SFRSYM    DATA     BYTE      WDSV
      000000EEH   SFRSYM    DATA     BYTE      MD5
      000000E0H   SFRSYM    DATA     BYTE      ACC
      000000DCH   SFRSYM    DATA     BYTE      POFCON
      000000A8H.4 SFRSYM    DATA     BIT       ES0
      000000A8H.1 SFRSYM    DATA     BIT       ET0
      000000A9H   SFRSYM    DATA     BYTE      IP0
      000000A8H.3 SFRSYM    DATA     BIT       ET1
      00000088H.5 SFRSYM    DATA     BIT       TF0
      000000B9H   SFRSYM    DATA     BYTE      IP1
      000000A8H.5 SFRSYM    DATA     BIT       ET2
      00000098H   SFRSYM    DATA     BIT       RI0
      00000088H.7 SFRSYM    DATA     BIT       TF1
LX51 LINKER/LOCATER V4.64.0.0                                                         09/06/2013  01:48:08  PAGE 81


      000000C0H   SFRSYM    DATA     BIT       RFSPIF
      000000C0H.6 SFRSYM    DATA     BIT       TF2
      000000FCH   SFRSYM    DATA     BYTE      SPIMCON0
      000000D6H   SFRSYM    DATA     BYTE      RNGCTL
      0000008CH   SFRSYM    DATA     BYTE      TH0
      000000A8H   SFRSYM    DATA     BIT       EX0
      00000098H.1 SFRSYM    DATA     BIT       TI0
      00000088H   SFRSYM    DATA     BIT       IT0
      000000FDH   SFRSYM    DATA     BYTE      SPIMCON1
      0000008DH   SFRSYM    DATA     BYTE      TH1
      000000A8H.2 SFRSYM    DATA     BIT       EX1
      00000088H.2 SFRSYM    DATA     BIT       IT1
      000000CDH   SFRSYM    DATA     BYTE      TH2
      000000AEH   SFRSYM    DATA     BYTE      OPMCON
      000000D0H   SFRSYM    DATA     BIT       P
      00000098H.7 SFRSYM    DATA     BIT       SM0
      0000008AH   SFRSYM    DATA     BYTE      TL0
      00000098H.6 SFRSYM    DATA     BIT       SM1
      000000E4H   SFRSYM    DATA     BYTE      SPIRCON0
      0000008BH   SFRSYM    DATA     BYTE      TL1
      000000E5H   SFRSYM    DATA     BYTE      SPIRCON1
      000000CCH   SFRSYM    DATA     BYTE      TL2
      000000BCH   SFRSYM    DATA     BYTE      SPISCON0
      000000BDH   SFRSYM    DATA     BYTE      SPISCON1
      000000D0H.3 SFRSYM    DATA     BIT       RS0
      00000088H.4 SFRSYM    DATA     BIT       TR0
      000000D0H.4 SFRSYM    DATA     BIT       RS1
      000000B2H   SFRSYM    DATA     BYTE      PWMCON
      00000088H.6 SFRSYM    DATA     BIT       TR1
      000000CAH   SFRSYM    DATA     WORD      CRC
      000000A6H   SFRSYM    DATA     BYTE      INTEXP
      000000C0H.3 SFRSYM    DATA     BIT       WUPINF
      000000FAH   SFRSYM    DATA     BYTE      FCR
      000000D3H   SFRSYM    DATA     BYTE      ADCCON1
      000000D2H   SFRSYM    DATA     BYTE      ADCCON2
      00000083H   SFRSYM    DATA     BYTE      DPH
      000000D1H   SFRSYM    DATA     BYTE      ADCCON3
      000000C0H.1 SFRSYM    DATA     BIT       RFF
      00000093H   SFRSYM    DATA     BYTE      P0DIR
      00000082H   SFRSYM    DATA     BYTE      DPL
      0000009EH   SFRSYM    DATA     BYTE      P0CON
      00000099H   SFRSYM    DATA     BYTE      S0BUF
      00000094H   SFRSYM    DATA     BYTE      P1DIR
      0000009FH   SFRSYM    DATA     BYTE      P1CON
      00000095H   SFRSYM    DATA     BYTE      P2DIR
      000000B8H.7 SFRSYM    DATA     BIT       EXEN2
      000000DAH   SFRSYM    DATA     BYTE      W2DAT
      00000097H   SFRSYM    DATA     BYTE      P2CON
      00000096H   SFRSYM    DATA     BYTE      P3DIR
      000000A4H   SFRSYM    DATA     BYTE      PWRDWN
      00000098H   SFRSYM    DATA     BYTE      S0CON
      0000008FH   SFRSYM    DATA     BYTE      P3CON
      000000B6H   SFRSYM    DATA     BYTE      RTC2CPT00
      000000D8H   SFRSYM    DATA     BYTE      ADCON
      000000ACH   SFRSYM    DATA     BYTE      RTC2CPT10
      000000ABH   SFRSYM    DATA     BYTE      RTC2CPT01
      000000C8H   SFRSYM    DATA     BYTE      T2CON
      00000092H   SFRSYM    DATA     BYTE      DPS
      000000F8H.5 SFRSYM    DATA     BIT       WEN
      000000F8H   SFRSYM    DATA     BYTE      FSR
      000000D4H   SFRSYM    DATA     BYTE      ADCDATH
      000000C9H   SFRSYM    DATA     BYTE      MPAGE
      000000B8H.2 SFRSYM    DATA     BIT       SPI
      000000F8H.1 SFRSYM    DATA     BIT       RDEND
      000000D5H   SFRSYM    DATA     BYTE      ADCDATL
LX51 LINKER/LOCATER V4.64.0.0                                                         09/06/2013  01:48:08  PAGE 82


      000000F8H.3 SFRSYM    DATA     BIT       INFEN
      000000F8H.7 SFRSYM    DATA     BIT       MCDIS
      000000C0H.5 SFRSYM    DATA     BIT       WUF
      000000C0H.4 SFRSYM    DATA     BIT       MISCF
      000000EFH   SFRSYM    DATA     BYTE      ARCON
      000000D0H.5 SFRSYM    DATA     BIT       F0
      000000F8H.6 SFRSYM    DATA     BIT       STP
      000000FEH   SFRSYM    DATA     BYTE      SPIMSTAT
      000000E8H   SFRSYM    DATA     BYTE      RFCON
      000000D0H   SFRSYM    DATA     BYTE      PSW
      00000098H.2 SFRSYM    DATA     BIT       RB80
      000000C0H   SFRSYM    DATA     BYTE      IRCON
      000000E8H.1 SFRSYM    DATA     BIT       RFCSN
      000000E6H   SFRSYM    DATA     BYTE      SPIRSTAT
      000000B3H   SFRSYM    DATA     BYTE      RTC2CON

      01001FBDH   BLOCK     CODE     ---       LVL=0
      01001FBDH   LINE      ---      ---       #189
      01001FC2H   LINE      ---      ---       #190
      02000061H   SYMBOL    XDATA    BYTE      op_mode
      01001FC2H   BLOCK     CODE     NEAR LAB  LVL=1
      01001FC2H   LINE      ---      ---       #192
      01001FCBH   LINE      ---      ---       #194
      01001FD2H   LINE      ---      ---       #195
      01001FD2H   LINE      ---      ---       #196
      01001FD7H   LINE      ---      ---       #197
      01001FD9H   LINE      ---      ---       #199
      01001FD9H   LINE      ---      ---       #200
      01001FE0H   LINE      ---      ---       #201
      01001FE0H   LINE      ---      ---       #203
      02000062H   SYMBOL    XDATA    ---       config
      ---         BLOCKEND  CODE     ---       LVL=1
      ---         BLOCKEND  CODE     ---       LVL=0

      01001B8AH   BLOCK     CODE     ---       LVL=0
      01001B8AH   LINE      ---      ---       #206
      01001B8FH   LINE      ---      ---       #207
      0200013AH   SYMBOL    XDATA    BYTE      pwr_mode
      01001B8FH   BLOCK     CODE     NEAR LAB  LVL=1
      01001B8FH   LINE      ---      ---       #209
      01001B98H   LINE      ---      ---       #211
      01001B9FH   LINE      ---      ---       #212
      01001B9FH   LINE      ---      ---       #213
      01001BA4H   LINE      ---      ---       #214
      01001BA6H   LINE      ---      ---       #216
      01001BA6H   LINE      ---      ---       #217
      01001BADH   LINE      ---      ---       #218
      01001BADH   LINE      ---      ---       #220
      0200013BH   SYMBOL    XDATA    ---       config
      ---         BLOCKEND  CODE     ---       LVL=1
      ---         BLOCKEND  CODE     ---       LVL=0

      01002F1DH   BLOCK     CODE     ---       LVL=0
      01002F1DH   LINE      ---      ---       #223
      01002F22H   LINE      ---      ---       #224
      02000037H   SYMBOL    XDATA    BYTE      crc_mode
      01002F22H   BLOCK     CODE     NEAR LAB  LVL=1
      01002F22H   LINE      ---      ---       #226
      01002F2CH   LINE      ---      ---       #228
      01002F3AH   LINE      ---      ---       #229
      01002F3AH   LINE      ---      ---       #230
      01002F3AH   LINE      ---      ---       #231
      01002F41H   LINE      ---      ---       #232
      01002F43H   LINE      ---      ---       #233
      01002F43H   LINE      ---      ---       #234
LX51 LINKER/LOCATER V4.64.0.0                                                         09/06/2013  01:48:08  PAGE 83


      01002F4AH   LINE      ---      ---       #235
      01002F4EH   LINE      ---      ---       #236
      01002F50H   LINE      ---      ---       #237
      01002F50H   LINE      ---      ---       #238
      01002F57H   LINE      ---      ---       #239
      01002F5BH   LINE      ---      ---       #240
      01002F5BH   LINE      ---      ---       #241
      01002F5BH   LINE      ---      ---       #242
      01002F5BH   LINE      ---      ---       #243
      01002F5BH   LINE      ---      ---       #245
      02000038H   SYMBOL    XDATA    ---       config
      ---         BLOCKEND  CODE     ---       LVL=1
      ---         BLOCKEND  CODE     ---       LVL=0

      01002F65H   BLOCK     CODE     ---       LVL=0
      01002F65H   LINE      ---      ---       #269
      01002F65H   LINE      ---      ---       #270
      01002F65H   BLOCK     CODE     NEAR LAB  LVL=1
      01002F65H   LINE      ---      ---       #273
      01002F6CH   LINE      ---      ---       #275
      01002F70H   LINE      ---      ---       #276
      00000007H   SYMBOL    DATA     BYTE      retval
      ---         BLOCKEND  CODE     ---       LVL=1
      ---         BLOCKEND  CODE     ---       LVL=0

      01001F2EH   BLOCK     CODE     ---       LVL=0
      01001F2EH   LINE      ---      ---       #278
      01001F2EH   LINE      ---      ---       #279
      01001F2EH   BLOCK     CODE     NEAR LAB  LVL=1
      01001F2EH   LINE      ---      ---       #283
      01001F3BH   LINE      ---      ---       #284
      01001F4FH   LINE      ---      ---       #286
      01001F4FH   LINE      ---      ---       #287
      02000016H   SYMBOL    XDATA    BYTE      retval
      ---         BLOCKEND  CODE     ---       LVL=1
      ---         BLOCKEND  CODE     ---       LVL=0
      00000007H   SYMBOL    DATA     BYTE      int_source

      01001B00H   BLOCK     CODE     ---       LVL=0
      01001B00H   LINE      ---      ---       #300
      01001B08H   LINE      ---      ---       #301
      02000061H   SYMBOL    XDATA    BYTE      pipe_num
      02000062H   SYMBOL    XDATA    BYTE      auto_ack
      01001B08H   BLOCK     CODE     NEAR LAB  LVL=1
      01001B08H   LINE      ---      ---       #304
      01001B11H   LINE      ---      ---       #305
      01001B1AH   LINE      ---      ---       #307
      01001B29H   LINE      ---      ---       #308
      01001B29H   LINE      ---      ---       #309
      01001B29H   LINE      ---      ---       #310
      01001B29H   LINE      ---      ---       #311
      01001B29H   LINE      ---      ---       #312
      01001B29H   LINE      ---      ---       #313
      01001B29H   LINE      ---      ---       #314
      01001B29H   LINE      ---      ---       #315
      01001B3BH   LINE      ---      ---       #317
      01001B41H   LINE      ---      ---       #318
      01001B41H   LINE      ---      ---       #319
      01001B47H   LINE      ---      ---       #320
      01001B49H   LINE      ---      ---       #322
      01001B49H   LINE      ---      ---       #323
      01001B61H   LINE      ---      ---       #324
      01001B61H   LINE      ---      ---       #325
      01001B63H   LINE      ---      ---       #327
      01001B63H   LINE      ---      ---       #328
LX51 LINKER/LOCATER V4.64.0.0                                                         09/06/2013  01:48:08  PAGE 84


      01001B69H   LINE      ---      ---       #330
      01001B6FH   LINE      ---      ---       #331
      01001B6FH   LINE      ---      ---       #332
      01001B75H   LINE      ---      ---       #333
      01001B77H   LINE      ---      ---       #335
      01001B77H   LINE      ---      ---       #336
      01001B7CH   LINE      ---      ---       #337
      01001B7CH   LINE      ---      ---       #338
      01001B7CH   LINE      ---      ---       #340
      01001B7CH   LINE      ---      ---       #341
      01001B7CH   LINE      ---      ---       #342
      01001B7CH   LINE      ---      ---       #343
      01001B7CH   LINE      ---      ---       #345
      01001B81H   LINE      ---      ---       #346
      02000063H   SYMBOL    XDATA    ---       en_rxaddr
      02000064H   SYMBOL    XDATA    ---       en_aa
      ---         BLOCKEND  CODE     ---       LVL=1
      ---         BLOCKEND  CODE     ---       LVL=0

      01001A86H   BLOCK     CODE     ---       LVL=0
      01001A86H   LINE      ---      ---       #349
      01001A8BH   LINE      ---      ---       #350
      02000061H   SYMBOL    XDATA    BYTE      pipe_num
      01001A8BH   BLOCK     CODE     NEAR LAB  LVL=1
      01001A8BH   LINE      ---      ---       #353
      01001A94H   LINE      ---      ---       #354
      01001A9DH   LINE      ---      ---       #356
      01001AACH   LINE      ---      ---       #357
      01001AACH   LINE      ---      ---       #358
      01001AACH   LINE      ---      ---       #359
      01001AACH   LINE      ---      ---       #360
      01001AACH   LINE      ---      ---       #361
      01001AACH   LINE      ---      ---       #362
      01001AACH   LINE      ---      ---       #363
      01001AACH   LINE      ---      ---       #364
      01001ABFH   LINE      ---      ---       #365
      01001AC3H   LINE      ---      ---       #366
      01001AC5H   LINE      ---      ---       #368
      01001AC5H   LINE      ---      ---       #369
      01001ACAH   LINE      ---      ---       #370
      01001ACCH   LINE      ---      ---       #371
      01001ACCH   LINE      ---      ---       #373
      01001ACCH   LINE      ---      ---       #374
      01001ACCH   LINE      ---      ---       #375
      01001ACCH   LINE      ---      ---       #376
      01001ACCH   LINE      ---      ---       #378
      01001AD1H   LINE      ---      ---       #379
      02000062H   SYMBOL    XDATA    ---       en_rxaddr
      02000063H   SYMBOL    XDATA    ---       en_aa
      ---         BLOCKEND  CODE     ---       LVL=1
      ---         BLOCKEND  CODE     ---       LVL=0

      01000F25H   BLOCK     CODE     ---       LVL=0
      01000F2DH   LINE      ---      ---       #382
      01000F3DH   LINE      ---      ---       #383
      01000F3DH   LINE      ---      ---       #384
      01000F4AH   LINE      ---      ---       #385
      01000F4AH   LINE      ---      ---       #386
      01000F4AH   LINE      ---      ---       #387
      01000F4AH   LINE      ---      ---       #388
      01000F4AH   LINE      ---      ---       #389
      01000F65H   LINE      ---      ---       #390
      01000F65H   LINE      ---      ---       #391
      01000F65H   LINE      ---      ---       #392
      01000F65H   LINE      ---      ---       #393
LX51 LINKER/LOCATER V4.64.0.0                                                         09/06/2013  01:48:08  PAGE 85


      01000F65H   LINE      ---      ---       #394
      01000F65H   LINE      ---      ---       #395
      01000F7CH   LINE      ---      ---       #396
      01000F7CH   LINE      ---      ---       #398
      01000F7CH   LINE      ---      ---       #399
      01000F7CH   LINE      ---      ---       #400
      01000F7CH   LINE      ---      ---       #401
      01000F7CH   LINE      ---      ---       #402
      02000061H   SYMBOL    XDATA    BYTE      address
      02000062H   SYMBOL    XDATA    ---       addr
      ---         BLOCKEND  ---      ---       LVL=0

      010023F1H   BLOCK     CODE     ---       LVL=0
      010023F1H   LINE      ---      ---       #418
      010023F3H   LINE      ---      ---       #419
      00000003H   SYMBOL    DATA     BYTE      retr
      00000004H   SYMBOL    DATA     WORD      delay
      010023F3H   BLOCK     CODE     NEAR LAB  LVL=1
      010023F3H   LINE      ---      ---       #421
      01002402H   LINE      ---      ---       #422
      0100240BH   LINE      ---      ---       #424
      0200013CH   SYMBOL    XDATA    ---       setup_retr
      ---         BLOCKEND  CODE     ---       LVL=1
      ---         BLOCKEND  CODE     ---       LVL=0

      01002F71H   BLOCK     CODE     ---       LVL=0
      01002F71H   LINE      ---      ---       #427
      01002F71H   LINE      ---      ---       #428
      00000007H   SYMBOL    DATA     BYTE      address_width
      01002F71H   BLOCK     CODE     NEAR LAB  LVL=1
      01002F71H   LINE      ---      ---       #430
      01002F76H   LINE      ---      ---       #431
      01002F81H   LINE      ---      ---       #433
      02000037H   SYMBOL    XDATA    ---       setup_aw
      ---         BLOCKEND  CODE     ---       LVL=1
      ---         BLOCKEND  CODE     ---       LVL=0

      01001A49H   BLOCK     CODE     ---       LVL=0
      01001A49H   LINE      ---      ---       #436
      01001A49H   LINE      ---      ---       #437
      01001A49H   LINE      ---      ---       #438
      01001A51H   LINE      ---      ---       #439
      ---         BLOCKEND  ---      ---       LVL=0
      00000007H   SYMBOL    DATA     BYTE      pipe_num
      00000005H   SYMBOL    DATA     BYTE      pload_width
      00000007H   SYMBOL    DATA     BYTE      pipe_num

      01001F6CH   BLOCK     CODE     ---       LVL=0
      01001F6CH   LINE      ---      ---       #532
      01001F6CH   LINE      ---      ---       #533
      00000007H   SYMBOL    DATA     BYTE      channel
      01001F6CH   BLOCK     CODE     NEAR LAB  LVL=1
      01001F6CH   LINE      ---      ---       #535
      01001F71H   LINE      ---      ---       #536
      01001F7AH   LINE      ---      ---       #537
      0200013DH   SYMBOL    XDATA    ---       rf_ch
      ---         BLOCKEND  CODE     ---       LVL=1
      ---         BLOCKEND  CODE     ---       LVL=0

      01001F98H   BLOCK     CODE     ---       LVL=0
      01001F9EH   LINE      ---      ---       #540
      02000058H   SYMBOL    XDATA    BYTE      power
      01001FA1H   BLOCK     CODE     NEAR LAB  LVL=1
      01001FA8H   LINE      ---      ---       #545
      01001FB7H   LINE      ---      ---       #547
LX51 LINKER/LOCATER V4.64.0.0                                                         09/06/2013  01:48:08  PAGE 86


      02000059H   SYMBOL    XDATA    ---       rf_setup
      ---         BLOCKEND  CODE     ---       LVL=1
      ---         BLOCKEND  CODE     ---       LVL=0

      01002F88H   BLOCK     CODE     ---       LVL=0
      01002F88H   LINE      ---      ---       #550
      02000037H   SYMBOL    XDATA    BYTE      datarate
      01002F8BH   BLOCK     CODE     NEAR LAB  LVL=1
      01002F93H   LINE      ---      ---       #555
      01002F9DH   LINE      ---      ---       #556
      01002F9DH   LINE      ---      ---       #557
      01002F9DH   LINE      ---      ---       #558
      01002FA3H   LINE      ---      ---       #559
      01002FA3H   LINE      ---      ---       #560
      01002FA5H   LINE      ---      ---       #561
      01002FA5H   LINE      ---      ---       #562
      01002FACH   LINE      ---      ---       #563
      01002FB0H   LINE      ---      ---       #564
      01002FB2H   LINE      ---      ---       #565
      01002FB2H   LINE      ---      ---       #566
      01002FB2H   LINE      ---      ---       #567
      01002FB9H   LINE      ---      ---       #568
      01002FBDH   LINE      ---      ---       #569
      01002FBDH   LINE      ---      ---       #570
      01002FBDH   LINE      ---      ---       #572
      02000038H   SYMBOL    XDATA    ---       rf_setup
      ---         BLOCKEND  CODE     ---       LVL=1
      ---         BLOCKEND  CODE     ---       LVL=0

      01001FEDH   BLOCK     CODE     ---       LVL=0
      01001FEDH   LINE      ---      ---       #575
      01001FEDH   LINE      ---      ---       #576
      01001FEDH   LINE      ---      ---       #577
      01001FF5H   LINE      ---      ---       #578
      ---         BLOCKEND  ---      ---       LVL=0

      01001F62H   BLOCK     CODE     ---       LVL=0
      01001F62H   LINE      ---      ---       #585
      01001F62H   LINE      ---      ---       #586
      01001F62H   LINE      ---      ---       #587
      01001F6BH   LINE      ---      ---       #588
      ---         BLOCKEND  ---      ---       LVL=0

      01002FC7H   BLOCK     CODE     ---       LVL=0
      01002FC7H   LINE      ---      ---       #590
      01002FC7H   LINE      ---      ---       #591
      01002FC7H   LINE      ---      ---       #592
      01002FD2H   LINE      ---      ---       #593
      ---         BLOCKEND  ---      ---       LVL=0

      01001F50H   BLOCK     CODE     ---       LVL=0
      01001F50H   LINE      ---      ---       #610
      01001F50H   LINE      ---      ---       #611
      01001F50H   LINE      ---      ---       #612
      01001F58H   LINE      ---      ---       #613
      ---         BLOCKEND  ---      ---       LVL=0

      01001F59H   BLOCK     CODE     ---       LVL=0
      01001F59H   LINE      ---      ---       #615
      01001F59H   LINE      ---      ---       #616
      01001F59H   LINE      ---      ---       #617
      01001F61H   LINE      ---      ---       #618
      ---         BLOCKEND  ---      ---       LVL=0

      01002FD3H   BLOCK     CODE     ---       LVL=0
LX51 LINKER/LOCATER V4.64.0.0                                                         09/06/2013  01:48:08  PAGE 87


      01002FD3H   LINE      ---      ---       #623
      01002FD3H   LINE      ---      ---       #624
      00000007H   SYMBOL    DATA     BYTE      setup
      01002FD3H   BLOCK     CODE     NEAR LAB  LVL=1
      01002FD3H   LINE      ---      ---       #626
      01002FDAH   LINE      ---      ---       #628
      02000037H   SYMBOL    XDATA    ---       dynpd
      ---         BLOCKEND  CODE     ---       LVL=1
      ---         BLOCKEND  CODE     ---       LVL=0

      01003000H   BLOCK     CODE     ---       LVL=0
      01003000H   LINE      ---      ---       #631
      01003005H   LINE      ---      ---       #632
      02000037H   SYMBOL    XDATA    BYTE      enable
      01003005H   BLOCK     CODE     NEAR LAB  LVL=1
      01003005H   LINE      ---      ---       #634
      0100300FH   LINE      ---      ---       #635
      01003029H   LINE      ---      ---       #637
      02000038H   SYMBOL    XDATA    ---       feature
      ---         BLOCKEND  CODE     ---       LVL=1
      ---         BLOCKEND  CODE     ---       LVL=0

      01003030H   BLOCK     CODE     ---       LVL=0
      01003030H   LINE      ---      ---       #640
      01003035H   LINE      ---      ---       #641
      02000037H   SYMBOL    XDATA    BYTE      enable
      01003035H   BLOCK     CODE     NEAR LAB  LVL=1
      01003035H   LINE      ---      ---       #643
      0100303FH   LINE      ---      ---       #644
      01003057H   LINE      ---      ---       #646
      02000038H   SYMBOL    XDATA    ---       feature
      ---         BLOCKEND  CODE     ---       LVL=1
      ---         BLOCKEND  CODE     ---       LVL=0
      00000001H   SYMBOL    DATA     ---       tx_pload
      00000005H   SYMBOL    DATA     BYTE      length
      00000001H   SYMBOL    DATA     ---       tx_pload
      00000005H   SYMBOL    DATA     BYTE      length

      01002FE1H   BLOCK     CODE     ---       LVL=0
      01002FE1H   LINE      ---      ---       #668
      01002FE1H   LINE      ---      ---       #669
      01002FE1H   LINE      ---      ---       #670
      00000007H   SYMBOL    DATA     BYTE      pipe
      00000001H   SYMBOL    DATA     ---       tx_pload
      02000069H   SYMBOL    XDATA    BYTE      length
      ---         BLOCKEND  ---      ---       LVL=0

      010017FAH   BLOCK     CODE     ---       LVL=0
      010017FAH   LINE      ---      ---       #673
      010017FAH   LINE      ---      ---       #674
      010017FAH   LINE      ---      ---       #675
      ---         BLOCKEND  ---      ---       LVL=0

      01001FE9H   BLOCK     CODE     ---       LVL=0
      01001FE9H   LINE      ---      ---       #678
      01001FE9H   LINE      ---      ---       #679
      01001FE9H   LINE      ---      ---       #680
      00000001H   SYMBOL    DATA     ---       rx_pload
      ---         BLOCKEND  ---      ---       LVL=0

      01001A52H   BLOCK     CODE     ---       LVL=0
      01001A52H   LINE      ---      ---       #683
      01001A52H   LINE      ---      ---       #684
      01001A52H   LINE      ---      ---       #685
      01001A5EH   LINE      ---      ---       #686
LX51 LINKER/LOCATER V4.64.0.0                                                         09/06/2013  01:48:08  PAGE 88


      ---         BLOCKEND  ---      ---       LVL=0

      010017F1H   BLOCK     CODE     ---       LVL=0
      010017F1H   LINE      ---      ---       #700
      010017F1H   LINE      ---      ---       #701
      010017F1H   LINE      ---      ---       #702
      010017F3H   LINE      ---      ---       #703
      010017F8H   LINE      ---      ---       #704
      010017FAH   LINE      ---      ---       #705
      ---         BLOCKEND  ---      ---       LVL=0

      010017F0H   BLOCK     CODE     ---       LVL=0
      010017F0H   LINE      ---      ---       #707
      010017F0H   LINE      ---      ---       #708
      010017F0H   LINE      ---      ---       #709
      010017F2H   LINE      ---      ---       #710
      010017F7H   LINE      ---      ---       #711
      010017F9H   LINE      ---      ---       #712
      ---         BLOCKEND  ---      ---       LVL=0

      01001A5FH   BLOCK     CODE     ---       LVL=0
      01001A5FH   LINE      ---      ---       #714
      01001A5FH   LINE      ---      ---       #715
      01001A5FH   BLOCK     CODE     NEAR LAB  LVL=1
      01001A5FH   LINE      ---      ---       #718
      01001A61H   LINE      ---      ---       #719
      01001A65H   LINE      ---      ---       #720
      01001A67H   LINE      ---      ---       #722
      01001A67H   LINE      ---      ---       #723
      00000007H   SYMBOL    DATA     BYTE      retval
      ---         BLOCKEND  CODE     ---       LVL=1
      ---         BLOCKEND  CODE     ---       LVL=0

      01001A68H   BLOCK     CODE     ---       LVL=0
      01001A6CH   LINE      ---      ---       #743
      01001A6CH   LINE      ---      ---       #744
      00000007H   SYMBOL    DATA     BYTE      reg
      01001A6CH   BLOCK     CODE     NEAR LAB  LVL=1
      01001A6CH   LINE      ---      ---       #747
      01001A6EH   LINE      ---      ---       #749
      01001A70H   LINE      ---      ---       #750
      01001A76H   LINE      ---      ---       #751
      01001A78H   LINE      ---      ---       #753
      01001A7BH   LINE      ---      ---       #754
      01001A81H   LINE      ---      ---       #755
      01001A83H   LINE      ---      ---       #757
      01001A85H   LINE      ---      ---       #759
      01001A85H   LINE      ---      ---       #760
      00000007H   SYMBOL    DATA     BYTE      temp
      ---         BLOCKEND  CODE     ---       LVL=1
      ---         BLOCKEND  CODE     ---       LVL=0

      01001ADAH   BLOCK     CODE     ---       LVL=0
      01001ADEH   LINE      ---      ---       #762
      01001ADEH   LINE      ---      ---       #763
      00000007H   SYMBOL    DATA     BYTE      reg
      00000005H   SYMBOL    DATA     BYTE      value
      01001ADEH   BLOCK     CODE     NEAR LAB  LVL=1
      01001ADEH   LINE      ---      ---       #770
      01001AE0H   LINE      ---      ---       #772
      01001AE5H   LINE      ---      ---       #773
      01001AEBH   LINE      ---      ---       #774
      01001AEDH   LINE      ---      ---       #776
      01001AF1H   LINE      ---      ---       #777
      01001AF7H   LINE      ---      ---       #778
LX51 LINKER/LOCATER V4.64.0.0                                                         09/06/2013  01:48:08  PAGE 89


      01001AFDH   LINE      ---      ---       #780
      01001AFFH   LINE      ---      ---       #782
      01001AFFH   LINE      ---      ---       #783
      00000007H   SYMBOL    DATA     BYTE      retval
      0200013EH   SYMBOL    XDATA    BYTE      dummy
      ---         BLOCKEND  CODE     ---       LVL=1
      ---         BLOCKEND  CODE     ---       LVL=0

      0100180AH   BLOCK     CODE     ---       LVL=0
      0100180AH   LINE      ---      ---       #804
      0100181AH   LINE      ---      ---       #805
      02000126H   SYMBOL    XDATA    BYTE      reg
      02000127H   SYMBOL    XDATA    ---       pbuf
      0100181AH   BLOCK     CODE     NEAR LAB  LVL=1
      0100181AH   LINE      ---      ---       #810
      01001820H   LINE      ---      ---       #812
      01001828H   LINE      ---      ---       #814
      01001838H   LINE      ---      ---       #815
      01001838H   LINE      ---      ---       #816
      01001838H   LINE      ---      ---       #817
      01001838H   LINE      ---      ---       #818
      01001838H   LINE      ---      ---       #819
      01001841H   LINE      ---      ---       #820
      01001843H   LINE      ---      ---       #821
      0100184AH   LINE      ---      ---       #822
      0100184CH   LINE      ---      ---       #824
      0100184CH   LINE      ---      ---       #825
      01001853H   LINE      ---      ---       #826
      01001858H   LINE      ---      ---       #827
      01001858H   LINE      ---      ---       #828
      01001862H   LINE      ---      ---       #829
      01001864H   LINE      ---      ---       #830
      01001868H   LINE      ---      ---       #831
      0100186AH   LINE      ---      ---       #838
      0100186AH   LINE      ---      ---       #839
      01001873H   LINE      ---      ---       #840
      01001873H   LINE      ---      ---       #841
      01001873H   LINE      ---      ---       #843
      0100187AH   LINE      ---      ---       #844
      0200012AH   SYMBOL    XDATA    BYTE      ctr
      0200012BH   SYMBOL    XDATA    BYTE      length
      0200012CH   SYMBOL    XDATA    BYTE      memtype
      0200012DH   SYMBOL    XDATA    BYTE      read_byte
      0200012EH   SYMBOL    XDATA    BYTE      first_round
      0100187AH   BLOCK     CODE     NEAR LAB  LVL=2
      0100187AH   LINE      ---      ---       #845
      01001884H   LINE      ---      ---       #846
      010018C3H   LINE      ---      ---       #847
      0200012FH   SYMBOL    XDATA    ---       buf
      0200012FH   SYMBOL    XDATA    ---       buf
      0200012FH   SYMBOL    XDATA    ---       buf
      0200012FH   SYMBOL    XDATA    ---       buf
      010018C5H   LINE      ---      ---       #848
      010018CAH   LINE      ---      ---       #849
      010018CAH   LINE      CODE     ---       #849
      010018CAH   BLOCK     CODE     NEAR LAB  LVL=2
      010018CAH   LINE      ---      ---       #850
      010018DBH   LINE      ---      ---       #851
      01001931H   LINE      ---      ---       #852
      0200012FH   SYMBOL    XDATA    ---       buf
      0200012FH   SYMBOL    XDATA    ---       buf
      0200012FH   SYMBOL    XDATA    ---       buf
      01001933H   LINE      ---      ---       #853
      0100193BH   LINE      ---      ---       #854
      0100193BH   LINE      CODE     ---       #854
LX51 LINKER/LOCATER V4.64.0.0                                                         09/06/2013  01:48:08  PAGE 90


      0100193BH   BLOCK     CODE     NEAR LAB  LVL=2
      0100193BH   LINE      ---      ---       #855
      01001945H   LINE      ---      ---       #856
      01001984H   LINE      ---      ---       #857
      0200012FH   SYMBOL    XDATA    ---       buf
      0200012FH   SYMBOL    XDATA    ---       buf
      01001986H   LINE      ---      ---       #859
      01001986H   LINE      CODE     ---       #859
      01001986H   BLOCK     CODE     NEAR LAB  LVL=2
      01001986H   LINE      ---      ---       #860
      0100199BH   LINE      ---      ---       #861
      010019F1H   LINE      ---      ---       #862
      0200012FH   SYMBOL    XDATA    ---       buf
      010019F1H   LINE      ---      ---       #864
      010019F3H   LINE      ---      ---       #866
      010019FFH   LINE      ---      ---       #867
      010019FFH   LINE      CODE     ---       #867
      ---         BLOCKEND  CODE     ---       LVL=1
      ---         BLOCKEND  CODE     ---       LVL=0

      0100305EH   BLOCK     CODE     ---       LVL=0
      0100305EH   LINE      ---      ---       #878
      01003069H   LINE      ---      ---       #882
      00000007H   SYMBOL    DATA     BYTE      reg
      0200006BH   SYMBOL    XDATA    ---       pbuf
      0200006EH   SYMBOL    XDATA    BYTE      length
      01003069H   BLOCK     CODE     NEAR LAB  LVL=1
      01003069H   LINE      ---      ---       #887
      0100306EH   LINE      ---      ---       #889
      01003070H   LINE      ---      ---       #890
      01003072H   LINE      ---      ---       #892
      01003075H   LINE      ---      ---       #893
      00000005H   SYMBOL    DATA     BYTE      memtype
      00000006H   SYMBOL    DATA     BYTE      next
      0200006FH   SYMBOL    XDATA    BYTE      dummy
      01003075H   BLOCK     CODE     NEAR LAB  LVL=2
      01003075H   LINE      ---      ---       #894
      0100307CH   LINE      ---      ---       #895
      0100309CH   LINE      ---      ---       #896
      02000070H   SYMBOL    XDATA    ---       buf
      02000070H   SYMBOL    XDATA    ---       buf
      02000070H   SYMBOL    XDATA    ---       buf
      02000070H   SYMBOL    XDATA    ---       buf
      0100309EH   LINE      ---      ---       #897
      010030A3H   LINE      ---      ---       #898
      010030A3H   LINE      CODE     ---       #898
      010030A3H   BLOCK     CODE     NEAR LAB  LVL=2
      010030A3H   LINE      ---      ---       #899
      010030B3H   LINE      ---      ---       #900
      010030E4H   LINE      ---      ---       #901
      02000070H   SYMBOL    XDATA    ---       buf
      02000070H   SYMBOL    XDATA    ---       buf
      02000070H   SYMBOL    XDATA    ---       buf
      010030E6H   LINE      ---      ---       #902
      010030EBH   LINE      ---      ---       #903
      010030EBH   LINE      CODE     ---       #903
      010030EBH   BLOCK     CODE     NEAR LAB  LVL=2
      010030EBH   LINE      ---      ---       #904
      010030F5H   LINE      ---      ---       #905
      01003115H   LINE      ---      ---       #906
      02000070H   SYMBOL    XDATA    ---       buf
      02000070H   SYMBOL    XDATA    ---       buf
      01003117H   LINE      ---      ---       #908
      01003117H   LINE      CODE     ---       #908
      01003117H   BLOCK     CODE     NEAR LAB  LVL=2
LX51 LINKER/LOCATER V4.64.0.0                                                         09/06/2013  01:48:08  PAGE 91


      01003117H   LINE      ---      ---       #909
      0100312CH   LINE      ---      ---       #910
      0100315BH   LINE      ---      ---       #911
      02000070H   SYMBOL    XDATA    ---       buf
      0100315BH   LINE      ---      ---       #913
      01003161H   LINE      ---      ---       #914
      01003167H   LINE      ---      ---       #915
      01003169H   LINE      ---      ---       #916
      01003169H   LINE      CODE     ---       #916
      ---         BLOCKEND  CODE     ---       LVL=1
      ---         BLOCKEND  CODE     ---       LVL=0

      ---         MODULE    ---      ---       HAL_CLK
      010020B6H   PUBLIC    CODE     ---       _hal_clklf_set_source
      01001FF6H   PUBLIC    CODE     ---       hal_clk_get_16m_source
      010020D0H   PUBLIC    CODE     ---       _hal_clk_regret_xosc16m_on
      00000098H.3 SFRSYM    DATA     BIT       TB80
      000000BEH   SFRSYM    DATA     BYTE      SPISSTAT
      000000C8H   SFRSYM    DATA     BIT       T2I0
      000000C3H   SFRSYM    DATA     BYTE      CCH1
      00000080H   SFRSYM    DATA     BYTE      P0
      000000C8H.1 SFRSYM    DATA     BIT       T2I1
      000000DFH   SFRSYM    DATA     BYTE      CCPDATO
      000000C5H   SFRSYM    DATA     BYTE      CCH2
      00000090H   SFRSYM    DATA     BYTE      P1
      000000C7H   SFRSYM    DATA     BYTE      CCH3
      000000A0H   SFRSYM    DATA     BYTE      P2
      00000098H.5 SFRSYM    DATA     BIT       SM20
      000000B0H   SFRSYM    DATA     BYTE      P3
      000000D0H.6 SFRSYM    DATA     BIT       AC
      000000C2H   SFRSYM    DATA     BYTE      CCL1
      000000C4H   SFRSYM    DATA     BYTE      CCL2
      000000D8H.7 SFRSYM    DATA     BIT       BD
      000000B8H   SFRSYM    DATA     BIT       RFSPI
      000000A8H.7 SFRSYM    DATA     BIT       EA
      000000CCH   SFRSYM    DATA     WORD      T2
      000000C6H   SFRSYM    DATA     BYTE      CCL3
      000000B7H   SFRSYM    DATA     BYTE      SPISRDSZ
      000000C8H.3 SFRSYM    DATA     BIT       T2R0
      000000C8H.4 SFRSYM    DATA     BIT       T2R1
      000000A8H   SFRSYM    DATA     BYTE      IEN0
      000000B8H   SFRSYM    DATA     BYTE      IEN1
      000000A5H   SFRSYM    DATA     BYTE      WUCON
      00000085H   SFRSYM    DATA     BYTE      DPH1
      000000DBH   SFRSYM    DATA     BYTE      COMPCON
      000000A3H   SFRSYM    DATA     BYTE      CLKCTRL
      00000084H   SFRSYM    DATA     BYTE      DPL1
      000000C8H.5 SFRSYM    DATA     BIT       I2FR
      000000B8H.3 SFRSYM    DATA     BIT       WUPIN
      000000C8H.6 SFRSYM    DATA     BIT       I3FR
      000000FFH   SFRSYM    DATA     BYTE      SPIMDAT
      000000C0H.7 SFRSYM    DATA     BIT       EXF2
      00000098H.4 SFRSYM    DATA     BIT       REN0
      000000C8H.2 SFRSYM    DATA     BIT       T2CM
      000000B8H.1 SFRSYM    DATA     BIT       RF
      000000B8H.5 SFRSYM    DATA     BIT       WUIRQ
      000000E7H   SFRSYM    DATA     BYTE      SPIRDAT
      000000C1H   SFRSYM    DATA     BYTE      CCEN
      000000E2H   SFRSYM    DATA     BYTE      W2CON0
      000000BFH   SFRSYM    DATA     BYTE      SPISDAT
      000000D0H.7 SFRSYM    DATA     BIT       CY
      000000E1H   SFRSYM    DATA     BYTE      W2CON1
      000000FBH   SFRSYM    DATA     BYTE      FDCR
      000000E8H   SFRSYM    DATA     BIT       RFCE
      000000CBH   SFRSYM    DATA     BYTE      CRCH
LX51 LINKER/LOCATER V4.64.0.0                                                         09/06/2013  01:48:08  PAGE 92


      00000081H   SFRSYM    DATA     BYTE      SP
      000000D0H.2 SFRSYM    DATA     BIT       OV
      000000CAH   SFRSYM    DATA     BYTE      CRCL
      000000ADH   SFRSYM    DATA     BYTE      CLKLFCTRL
      000000B1H   SFRSYM    DATA     BYTE      RSTREAS
      000000C8H.7 SFRSYM    DATA     BIT       T2PS
      000000F9H   SFRSYM    DATA     BYTE      FPCR
      000000B8H.4 SFRSYM    DATA     BIT       MISC
      000000A1H   SFRSYM    DATA     BYTE      PWMDC0
      000000B4H   SFRSYM    DATA     BYTE      RTC2CMP0
      000000A2H   SFRSYM    DATA     BYTE      PWMDC1
      000000B5H   SFRSYM    DATA     BYTE      RTC2CMP1
      00000080H   SFRSYM    DATA     BIT       P00
      000000BAH   SFRSYM    DATA     BYTE      S0RELH
      00000090H   SFRSYM    DATA     BIT       P10
      00000080H.1 SFRSYM    DATA     BIT       P01
      00000087H   SFRSYM    DATA     BYTE      PCON
      000000A0H   SFRSYM    DATA     BIT       P20
      00000090H.1 SFRSYM    DATA     BIT       P11
      00000080H.2 SFRSYM    DATA     BIT       P02
      000000B0H   SFRSYM    DATA     BIT       P30
      000000A0H.1 SFRSYM    DATA     BIT       P21
      00000090H.2 SFRSYM    DATA     BIT       P12
      00000080H.3 SFRSYM    DATA     BIT       P03
      000000C0H.2 SFRSYM    DATA     BIT       SPIF
      000000F8H.2 SFRSYM    DATA     BIT       RDIS
      000000B0H.1 SFRSYM    DATA     BIT       P31
      000000A0H.2 SFRSYM    DATA     BIT       P22
      00000090H.3 SFRSYM    DATA     BIT       P13
      00000080H.4 SFRSYM    DATA     BIT       P04
      000000AAH   SFRSYM    DATA     BYTE      S0RELL
      000000B0H.2 SFRSYM    DATA     BIT       P32
      000000A0H.3 SFRSYM    DATA     BIT       P23
      00000090H.4 SFRSYM    DATA     BIT       P14
      00000080H.5 SFRSYM    DATA     BIT       P05
      000000D9H   SFRSYM    DATA     BYTE      W2SADR
      00000089H   SFRSYM    DATA     BYTE      TMOD
      00000088H   SFRSYM    DATA     BYTE      TCON
      000000B0H.3 SFRSYM    DATA     BIT       P33
      000000A0H.4 SFRSYM    DATA     BIT       P24
      00000090H.5 SFRSYM    DATA     BIT       P15
      00000080H.6 SFRSYM    DATA     BIT       P06
      000000B0H.4 SFRSYM    DATA     BIT       P34
      000000A0H.5 SFRSYM    DATA     BIT       P25
      00000090H.6 SFRSYM    DATA     BIT       P16
      00000080H.7 SFRSYM    DATA     BIT       P07
      000000C2H   SFRSYM    DATA     WORD      CC1
      000000B0H.5 SFRSYM    DATA     BIT       P35
      000000A0H.6 SFRSYM    DATA     BIT       P26
      00000090H.7 SFRSYM    DATA     BIT       P17
      000000C4H   SFRSYM    DATA     WORD      CC2
      000000B0H.6 SFRSYM    DATA     BIT       P36
      000000A0H.7 SFRSYM    DATA     BIT       P27
      000000C6H   SFRSYM    DATA     WORD      CC3
      000000B0H.7 SFRSYM    DATA     BIT       P37
      000000E8H.2 SFRSYM    DATA     BIT       RFCKEN
      000000F8H   SFRSYM    DATA     BIT       WPEN
      000000DDH   SFRSYM    DATA     BYTE      CCPDATIA
      000000DEH   SFRSYM    DATA     BYTE      CCPDATIB
      00000088H.1 SFRSYM    DATA     BIT       IE0
      000000F8H.4 SFRSYM    DATA     BIT       RDYN
      00000088H.3 SFRSYM    DATA     BIT       IE1
      000000CFH   SFRSYM    DATA     BYTE      WUOPC0
      000000F0H   SFRSYM    DATA     BYTE      B
      000000E9H   SFRSYM    DATA     BYTE      MD0
LX51 LINKER/LOCATER V4.64.0.0                                                         09/06/2013  01:48:08  PAGE 93


      000000CEH   SFRSYM    DATA     BYTE      WUOPC1
      000000A7H   SFRSYM    DATA     BYTE      MEMCON
      000000EAH   SFRSYM    DATA     BYTE      MD1
      000000D7H   SFRSYM    DATA     BYTE      RNGDAT
      000000EBH   SFRSYM    DATA     BYTE      MD2
      000000ECH   SFRSYM    DATA     BYTE      MD3
      000000EDH   SFRSYM    DATA     BYTE      MD4
      000000AFH   SFRSYM    DATA     BYTE      WDSV
      000000EEH   SFRSYM    DATA     BYTE      MD5
      000000E0H   SFRSYM    DATA     BYTE      ACC
      000000DCH   SFRSYM    DATA     BYTE      POFCON
      000000A8H.4 SFRSYM    DATA     BIT       ES0
      000000A8H.1 SFRSYM    DATA     BIT       ET0
      000000A9H   SFRSYM    DATA     BYTE      IP0
      000000A8H.3 SFRSYM    DATA     BIT       ET1
      00000088H.5 SFRSYM    DATA     BIT       TF0
      000000B9H   SFRSYM    DATA     BYTE      IP1
      000000A8H.5 SFRSYM    DATA     BIT       ET2
      00000098H   SFRSYM    DATA     BIT       RI0
      00000088H.7 SFRSYM    DATA     BIT       TF1
      000000C0H   SFRSYM    DATA     BIT       RFSPIF
      000000C0H.6 SFRSYM    DATA     BIT       TF2
      000000FCH   SFRSYM    DATA     BYTE      SPIMCON0
      000000D6H   SFRSYM    DATA     BYTE      RNGCTL
      0000008CH   SFRSYM    DATA     BYTE      TH0
      000000A8H   SFRSYM    DATA     BIT       EX0
      00000098H.1 SFRSYM    DATA     BIT       TI0
      00000088H   SFRSYM    DATA     BIT       IT0
      000000FDH   SFRSYM    DATA     BYTE      SPIMCON1
      0000008DH   SFRSYM    DATA     BYTE      TH1
      000000A8H.2 SFRSYM    DATA     BIT       EX1
      00000088H.2 SFRSYM    DATA     BIT       IT1
      000000CDH   SFRSYM    DATA     BYTE      TH2
      000000AEH   SFRSYM    DATA     BYTE      OPMCON
      000000D0H   SFRSYM    DATA     BIT       P
      00000098H.7 SFRSYM    DATA     BIT       SM0
      0000008AH   SFRSYM    DATA     BYTE      TL0
      00000098H.6 SFRSYM    DATA     BIT       SM1
      000000E4H   SFRSYM    DATA     BYTE      SPIRCON0
      0000008BH   SFRSYM    DATA     BYTE      TL1
      000000E5H   SFRSYM    DATA     BYTE      SPIRCON1
      000000CCH   SFRSYM    DATA     BYTE      TL2
      000000BCH   SFRSYM    DATA     BYTE      SPISCON0
      000000BDH   SFRSYM    DATA     BYTE      SPISCON1
      000000D0H.3 SFRSYM    DATA     BIT       RS0
      00000088H.4 SFRSYM    DATA     BIT       TR0
      000000D0H.4 SFRSYM    DATA     BIT       RS1
      000000B2H   SFRSYM    DATA     BYTE      PWMCON
      00000088H.6 SFRSYM    DATA     BIT       TR1
      000000CAH   SFRSYM    DATA     WORD      CRC
      000000A6H   SFRSYM    DATA     BYTE      INTEXP
      000000C0H.3 SFRSYM    DATA     BIT       WUPINF
      000000FAH   SFRSYM    DATA     BYTE      FCR
      000000D3H   SFRSYM    DATA     BYTE      ADCCON1
      000000D2H   SFRSYM    DATA     BYTE      ADCCON2
      00000083H   SFRSYM    DATA     BYTE      DPH
      000000D1H   SFRSYM    DATA     BYTE      ADCCON3
      000000C0H.1 SFRSYM    DATA     BIT       RFF
      00000093H   SFRSYM    DATA     BYTE      P0DIR
      00000082H   SFRSYM    DATA     BYTE      DPL
      0000009EH   SFRSYM    DATA     BYTE      P0CON
      00000099H   SFRSYM    DATA     BYTE      S0BUF
      00000094H   SFRSYM    DATA     BYTE      P1DIR
      0000009FH   SFRSYM    DATA     BYTE      P1CON
      00000095H   SFRSYM    DATA     BYTE      P2DIR
LX51 LINKER/LOCATER V4.64.0.0                                                         09/06/2013  01:48:08  PAGE 94


      000000B8H.7 SFRSYM    DATA     BIT       EXEN2
      000000DAH   SFRSYM    DATA     BYTE      W2DAT
      00000097H   SFRSYM    DATA     BYTE      P2CON
      00000096H   SFRSYM    DATA     BYTE      P3DIR
      000000A4H   SFRSYM    DATA     BYTE      PWRDWN
      00000098H   SFRSYM    DATA     BYTE      S0CON
      0000008FH   SFRSYM    DATA     BYTE      P3CON
      000000B6H   SFRSYM    DATA     BYTE      RTC2CPT00
      000000D8H   SFRSYM    DATA     BYTE      ADCON
      000000ACH   SFRSYM    DATA     BYTE      RTC2CPT10
      000000ABH   SFRSYM    DATA     BYTE      RTC2CPT01
      000000C8H   SFRSYM    DATA     BYTE      T2CON
      00000092H   SFRSYM    DATA     BYTE      DPS
      000000F8H.5 SFRSYM    DATA     BIT       WEN
      000000F8H   SFRSYM    DATA     BYTE      FSR
      000000D4H   SFRSYM    DATA     BYTE      ADCDATH
      000000C9H   SFRSYM    DATA     BYTE      MPAGE
      000000B8H.2 SFRSYM    DATA     BIT       SPI
      000000F8H.1 SFRSYM    DATA     BIT       RDEND
      000000D5H   SFRSYM    DATA     BYTE      ADCDATL
      000000F8H.3 SFRSYM    DATA     BIT       INFEN
      000000F8H.7 SFRSYM    DATA     BIT       MCDIS
      000000C0H.5 SFRSYM    DATA     BIT       WUF
      000000C0H.4 SFRSYM    DATA     BIT       MISCF
      000000EFH   SFRSYM    DATA     BYTE      ARCON
      000000D0H.5 SFRSYM    DATA     BIT       F0
      000000F8H.6 SFRSYM    DATA     BIT       STP
      000000FEH   SFRSYM    DATA     BYTE      SPIMSTAT
      000000E8H   SFRSYM    DATA     BYTE      RFCON
      000000D0H   SFRSYM    DATA     BYTE      PSW
      00000098H.2 SFRSYM    DATA     BIT       RB80
      000000C0H   SFRSYM    DATA     BYTE      IRCON
      000000E8H.1 SFRSYM    DATA     BIT       RFCSN
      000000E6H   SFRSYM    DATA     BYTE      SPIRSTAT
      000000B3H   SFRSYM    DATA     BYTE      RTC2CON

      010020D0H   BLOCK     CODE     ---       LVL=0
      010020D0H   LINE      ---      ---       #22
      010020D0H   LINE      ---      ---       #23
      010020D0H   LINE      ---      ---       #24
      010020D3H   LINE      ---      ---       #25
      010020D3H   LINE      ---      ---       #26
      010020DBH   LINE      ---      ---       #27
      010020DCH   LINE      ---      ---       #29
      010020DCH   LINE      ---      ---       #30
      010020DFH   LINE      ---      ---       #31
      010020DFH   LINE      ---      ---       #32
      00000007H   SYMBOL    DATA     BYTE      on
      ---         BLOCKEND  ---      ---       LVL=0
      00000007H   SYMBOL    DATA     BYTE      input
      00000007H   SYMBOL    DATA     BYTE      source

      01001FF6H   BLOCK     CODE     ---       LVL=0
      01001FF6H   LINE      ---      ---       #44
      01001FF6H   LINE      ---      ---       #45
      01001FF6H   BLOCK     CODE     NEAR LAB  LVL=1
      01001FF6H   LINE      ---      ---       #47
      01001FFDH   LINE      ---      ---       #48
      01001FFDH   LINE      ---      ---       #49
      01001FFFH   LINE      ---      ---       #50
      01001FFFH   LINE      ---      ---       #52
      01001FFFH   LINE      ---      ---       #53
      01001FFFH   LINE      ---      ---       #54
      01001FFFH   LINE      ---      ---       #56
      01001FFFH   LINE      ---      ---       #57
LX51 LINKER/LOCATER V4.64.0.0                                                         09/06/2013  01:48:08  PAGE 95


      00000007H   SYMBOL    DATA     BYTE      clock_source
      ---         BLOCKEND  CODE     ---       LVL=1
      ---         BLOCKEND  CODE     ---       LVL=0
      00000007H   SYMBOL    DATA     BYTE      freq

      010020B6H   BLOCK     CODE     ---       LVL=0
      010020B6H   LINE      ---      ---       #74
      010020B6H   LINE      ---      ---       #75
      010020B6H   LINE      ---      ---       #76
      010020C1H   LINE      ---      ---       #77
      00000007H   SYMBOL    DATA     BYTE      source
      ---         BLOCKEND  ---      ---       LVL=0

      ---         MODULE    ---      ---       HAL_AES
      02000082H   PUBLIC    XDATA    BYTE      ?_hal_aes_crypt?BYTE
      01002C6FH   PUBLIC    CODE     ---       _hal_aes_crypt
      02000082H   PUBLIC    XDATA    BYTE      ?_hal_aes_setup?BYTE
      01002B8CH   PUBLIC    CODE     ---       _hal_aes_setup
      00000098H.3 SFRSYM    DATA     BIT       TB80
      000000BEH   SFRSYM    DATA     BYTE      SPISSTAT
      000000C8H   SFRSYM    DATA     BIT       T2I0
      000000C3H   SFRSYM    DATA     BYTE      CCH1
      00000080H   SFRSYM    DATA     BYTE      P0
      000000C8H.1 SFRSYM    DATA     BIT       T2I1
      000000DFH   SFRSYM    DATA     BYTE      CCPDATO
      000000C5H   SFRSYM    DATA     BYTE      CCH2
      00000090H   SFRSYM    DATA     BYTE      P1
      000000C7H   SFRSYM    DATA     BYTE      CCH3
      000000A0H   SFRSYM    DATA     BYTE      P2
      00000098H.5 SFRSYM    DATA     BIT       SM20
      000000B0H   SFRSYM    DATA     BYTE      P3
      000000D0H.6 SFRSYM    DATA     BIT       AC
      000000C2H   SFRSYM    DATA     BYTE      CCL1
      000000C4H   SFRSYM    DATA     BYTE      CCL2
      000000D8H.7 SFRSYM    DATA     BIT       BD
      000000B8H   SFRSYM    DATA     BIT       RFSPI
      000000A8H.7 SFRSYM    DATA     BIT       EA
      000000CCH   SFRSYM    DATA     WORD      T2
      000000C6H   SFRSYM    DATA     BYTE      CCL3
      000000B7H   SFRSYM    DATA     BYTE      SPISRDSZ
      000000C8H.3 SFRSYM    DATA     BIT       T2R0
      000000C8H.4 SFRSYM    DATA     BIT       T2R1
      000000A8H   SFRSYM    DATA     BYTE      IEN0
      000000B8H   SFRSYM    DATA     BYTE      IEN1
      000000A5H   SFRSYM    DATA     BYTE      WUCON
      00000085H   SFRSYM    DATA     BYTE      DPH1
      000000DBH   SFRSYM    DATA     BYTE      COMPCON
      000000A3H   SFRSYM    DATA     BYTE      CLKCTRL
      00000084H   SFRSYM    DATA     BYTE      DPL1
      000000C8H.5 SFRSYM    DATA     BIT       I2FR
      000000B8H.3 SFRSYM    DATA     BIT       WUPIN
      000000C8H.6 SFRSYM    DATA     BIT       I3FR
      000000FFH   SFRSYM    DATA     BYTE      SPIMDAT
      000000C0H.7 SFRSYM    DATA     BIT       EXF2
      00000098H.4 SFRSYM    DATA     BIT       REN0
      000000C8H.2 SFRSYM    DATA     BIT       T2CM
      000000B8H.1 SFRSYM    DATA     BIT       RF
      000000B8H.5 SFRSYM    DATA     BIT       WUIRQ
      000000E7H   SFRSYM    DATA     BYTE      SPIRDAT
      000000C1H   SFRSYM    DATA     BYTE      CCEN
      000000E2H   SFRSYM    DATA     BYTE      W2CON0
      000000BFH   SFRSYM    DATA     BYTE      SPISDAT
      000000D0H.7 SFRSYM    DATA     BIT       CY
      000000E1H   SFRSYM    DATA     BYTE      W2CON1
      000000FBH   SFRSYM    DATA     BYTE      FDCR
LX51 LINKER/LOCATER V4.64.0.0                                                         09/06/2013  01:48:08  PAGE 96


      000000E8H   SFRSYM    DATA     BIT       RFCE
      000000CBH   SFRSYM    DATA     BYTE      CRCH
      00000081H   SFRSYM    DATA     BYTE      SP
      000000D0H.2 SFRSYM    DATA     BIT       OV
      000000CAH   SFRSYM    DATA     BYTE      CRCL
      000000ADH   SFRSYM    DATA     BYTE      CLKLFCTRL
      000000B1H   SFRSYM    DATA     BYTE      RSTREAS
      000000C8H.7 SFRSYM    DATA     BIT       T2PS
      000000F9H   SFRSYM    DATA     BYTE      FPCR
      000000B8H.4 SFRSYM    DATA     BIT       MISC
      000000A1H   SFRSYM    DATA     BYTE      PWMDC0
      000000B4H   SFRSYM    DATA     BYTE      RTC2CMP0
      000000A2H   SFRSYM    DATA     BYTE      PWMDC1
      000000B5H   SFRSYM    DATA     BYTE      RTC2CMP1
      00000080H   SFRSYM    DATA     BIT       P00
      000000BAH   SFRSYM    DATA     BYTE      S0RELH
      00000090H   SFRSYM    DATA     BIT       P10
      00000080H.1 SFRSYM    DATA     BIT       P01
      00000087H   SFRSYM    DATA     BYTE      PCON
      000000A0H   SFRSYM    DATA     BIT       P20
      00000090H.1 SFRSYM    DATA     BIT       P11
      00000080H.2 SFRSYM    DATA     BIT       P02
      000000B0H   SFRSYM    DATA     BIT       P30
      000000A0H.1 SFRSYM    DATA     BIT       P21
      00000090H.2 SFRSYM    DATA     BIT       P12
      00000080H.3 SFRSYM    DATA     BIT       P03
      000000C0H.2 SFRSYM    DATA     BIT       SPIF
      000000F8H.2 SFRSYM    DATA     BIT       RDIS
      000000B0H.1 SFRSYM    DATA     BIT       P31
      000000A0H.2 SFRSYM    DATA     BIT       P22
      00000090H.3 SFRSYM    DATA     BIT       P13
      00000080H.4 SFRSYM    DATA     BIT       P04
      000000AAH   SFRSYM    DATA     BYTE      S0RELL
      000000B0H.2 SFRSYM    DATA     BIT       P32
      000000A0H.3 SFRSYM    DATA     BIT       P23
      00000090H.4 SFRSYM    DATA     BIT       P14
      00000080H.5 SFRSYM    DATA     BIT       P05
      000000D9H   SFRSYM    DATA     BYTE      W2SADR
      00000089H   SFRSYM    DATA     BYTE      TMOD
      00000088H   SFRSYM    DATA     BYTE      TCON
      000000B0H.3 SFRSYM    DATA     BIT       P33
      000000A0H.4 SFRSYM    DATA     BIT       P24
      00000090H.5 SFRSYM    DATA     BIT       P15
      00000080H.6 SFRSYM    DATA     BIT       P06
      000000B0H.4 SFRSYM    DATA     BIT       P34
      000000A0H.5 SFRSYM    DATA     BIT       P25
      00000090H.6 SFRSYM    DATA     BIT       P16
      00000080H.7 SFRSYM    DATA     BIT       P07
      000000C2H   SFRSYM    DATA     WORD      CC1
      000000B0H.5 SFRSYM    DATA     BIT       P35
      000000A0H.6 SFRSYM    DATA     BIT       P26
      00000090H.7 SFRSYM    DATA     BIT       P17
      000000C4H   SFRSYM    DATA     WORD      CC2
      000000B0H.6 SFRSYM    DATA     BIT       P36
      000000A0H.7 SFRSYM    DATA     BIT       P27
      000000C6H   SFRSYM    DATA     WORD      CC3
      000000B0H.7 SFRSYM    DATA     BIT       P37
      000000E8H.2 SFRSYM    DATA     BIT       RFCKEN
      000000F8H   SFRSYM    DATA     BIT       WPEN
      000000DDH   SFRSYM    DATA     BYTE      CCPDATIA
      000000DEH   SFRSYM    DATA     BYTE      CCPDATIB
      00000088H.1 SFRSYM    DATA     BIT       IE0
      000000F8H.4 SFRSYM    DATA     BIT       RDYN
      00000088H.3 SFRSYM    DATA     BIT       IE1
      000000CFH   SFRSYM    DATA     BYTE      WUOPC0
LX51 LINKER/LOCATER V4.64.0.0                                                         09/06/2013  01:48:08  PAGE 97


      000000F0H   SFRSYM    DATA     BYTE      B
      000000E9H   SFRSYM    DATA     BYTE      MD0
      000000CEH   SFRSYM    DATA     BYTE      WUOPC1
      000000A7H   SFRSYM    DATA     BYTE      MEMCON
      000000EAH   SFRSYM    DATA     BYTE      MD1
      000000D7H   SFRSYM    DATA     BYTE      RNGDAT
      000000EBH   SFRSYM    DATA     BYTE      MD2
      000000ECH   SFRSYM    DATA     BYTE      MD3
      000000EDH   SFRSYM    DATA     BYTE      MD4
      000000AFH   SFRSYM    DATA     BYTE      WDSV
      000000EEH   SFRSYM    DATA     BYTE      MD5
      000000E0H   SFRSYM    DATA     BYTE      ACC
      000000DCH   SFRSYM    DATA     BYTE      POFCON
      000000A8H.4 SFRSYM    DATA     BIT       ES0
      000000A8H.1 SFRSYM    DATA     BIT       ET0
      000000A9H   SFRSYM    DATA     BYTE      IP0
      000000A8H.3 SFRSYM    DATA     BIT       ET1
      00000088H.5 SFRSYM    DATA     BIT       TF0
      000000B9H   SFRSYM    DATA     BYTE      IP1
      000000A8H.5 SFRSYM    DATA     BIT       ET2
      00000098H   SFRSYM    DATA     BIT       RI0
      00000088H.7 SFRSYM    DATA     BIT       TF1
      000000C0H   SFRSYM    DATA     BIT       RFSPIF
      000000C0H.6 SFRSYM    DATA     BIT       TF2
      000000FCH   SFRSYM    DATA     BYTE      SPIMCON0
      000000D6H   SFRSYM    DATA     BYTE      RNGCTL
      0000008CH   SFRSYM    DATA     BYTE      TH0
      000000A8H   SFRSYM    DATA     BIT       EX0
      00000098H.1 SFRSYM    DATA     BIT       TI0
      00000088H   SFRSYM    DATA     BIT       IT0
      000000FDH   SFRSYM    DATA     BYTE      SPIMCON1
      0000008DH   SFRSYM    DATA     BYTE      TH1
      000000A8H.2 SFRSYM    DATA     BIT       EX1
      00000088H.2 SFRSYM    DATA     BIT       IT1
      000000CDH   SFRSYM    DATA     BYTE      TH2
      000000AEH   SFRSYM    DATA     BYTE      OPMCON
      000000D0H   SFRSYM    DATA     BIT       P
      00000098H.7 SFRSYM    DATA     BIT       SM0
      0000008AH   SFRSYM    DATA     BYTE      TL0
      00000098H.6 SFRSYM    DATA     BIT       SM1
      000000E4H   SFRSYM    DATA     BYTE      SPIRCON0
      0000008BH   SFRSYM    DATA     BYTE      TL1
      000000E5H   SFRSYM    DATA     BYTE      SPIRCON1
      000000CCH   SFRSYM    DATA     BYTE      TL2
      000000BCH   SFRSYM    DATA     BYTE      SPISCON0
      000000BDH   SFRSYM    DATA     BYTE      SPISCON1
      000000D0H.3 SFRSYM    DATA     BIT       RS0
      00000088H.4 SFRSYM    DATA     BIT       TR0
      000000D0H.4 SFRSYM    DATA     BIT       RS1
      000000B2H   SFRSYM    DATA     BYTE      PWMCON
      00000088H.6 SFRSYM    DATA     BIT       TR1
      000000CAH   SFRSYM    DATA     WORD      CRC
      000000A6H   SFRSYM    DATA     BYTE      INTEXP
      000000C0H.3 SFRSYM    DATA     BIT       WUPINF
      000000FAH   SFRSYM    DATA     BYTE      FCR
      000000D3H   SFRSYM    DATA     BYTE      ADCCON1
      000000D2H   SFRSYM    DATA     BYTE      ADCCON2
      00000083H   SFRSYM    DATA     BYTE      DPH
      000000D1H   SFRSYM    DATA     BYTE      ADCCON3
      000000C0H.1 SFRSYM    DATA     BIT       RFF
      00000093H   SFRSYM    DATA     BYTE      P0DIR
      00000082H   SFRSYM    DATA     BYTE      DPL
      0000009EH   SFRSYM    DATA     BYTE      P0CON
      00000099H   SFRSYM    DATA     BYTE      S0BUF
      00000094H   SFRSYM    DATA     BYTE      P1DIR
LX51 LINKER/LOCATER V4.64.0.0                                                         09/06/2013  01:48:08  PAGE 98


      0000009FH   SFRSYM    DATA     BYTE      P1CON
      00000095H   SFRSYM    DATA     BYTE      P2DIR
      000000B8H.7 SFRSYM    DATA     BIT       EXEN2
      000000DAH   SFRSYM    DATA     BYTE      W2DAT
      00000097H   SFRSYM    DATA     BYTE      P2CON
      00000096H   SFRSYM    DATA     BYTE      P3DIR
      000000A4H   SFRSYM    DATA     BYTE      PWRDWN
      00000098H   SFRSYM    DATA     BYTE      S0CON
      0000008FH   SFRSYM    DATA     BYTE      P3CON
      000000B6H   SFRSYM    DATA     BYTE      RTC2CPT00
      000000D8H   SFRSYM    DATA     BYTE      ADCON
      000000ACH   SFRSYM    DATA     BYTE      RTC2CPT10
      000000ABH   SFRSYM    DATA     BYTE      RTC2CPT01
      000000C8H   SFRSYM    DATA     BYTE      T2CON
      00000092H   SFRSYM    DATA     BYTE      DPS
      000000F8H.5 SFRSYM    DATA     BIT       WEN
      000000F8H   SFRSYM    DATA     BYTE      FSR
      000000D4H   SFRSYM    DATA     BYTE      ADCDATH
      000000C9H   SFRSYM    DATA     BYTE      MPAGE
      000000B8H.2 SFRSYM    DATA     BIT       SPI
      000000F8H.1 SFRSYM    DATA     BIT       RDEND
      000000D5H   SFRSYM    DATA     BYTE      ADCDATL
      000000F8H.3 SFRSYM    DATA     BIT       INFEN
      000000F8H.7 SFRSYM    DATA     BIT       MCDIS
      000000C0H.5 SFRSYM    DATA     BIT       WUF
      000000C0H.4 SFRSYM    DATA     BIT       MISCF
      000000EFH   SFRSYM    DATA     BYTE      ARCON
      000000D0H.5 SFRSYM    DATA     BIT       F0
      000000F8H.6 SFRSYM    DATA     BIT       STP
      000000FEH   SFRSYM    DATA     BYTE      SPIMSTAT
      000000E8H   SFRSYM    DATA     BYTE      RFCON
      000000D0H   SFRSYM    DATA     BYTE      PSW
      00000098H.2 SFRSYM    DATA     BIT       RB80
      000000C0H   SFRSYM    DATA     BYTE      IRCON
      000000E8H.1 SFRSYM    DATA     BIT       RFCSN
      000000E6H   SFRSYM    DATA     BYTE      SPIRSTAT
      000000B3H   SFRSYM    DATA     BYTE      RTC2CON
      01002B94H   SYMBOL    CODE     ---       _aes_set_key
      01002D1BH   SYMBOL    CODE     ---       _key_upgrade
      0100083BH   SYMBOL    CONST    ---       s_box
      02000116H   SYMBOL    XDATA    ---       cipher_key
      0100093BH   SYMBOL    CONST    ---       rcon
      0100316AH   SYMBOL    CODE     ---       _add_key
      01002DD1H   SYMBOL    CODE     ---       _add_sub_shift
      02000000H   SYMBOL    PDATA    ---       aes_round_key
      01003258H   SYMBOL    CODE     ---       _mix_columns_hw

      01002B8CH   BLOCK     CODE     ---       LVL=0
      01002B8CH   LINE      ---      ---       #64
      02000082H   SYMBOL    XDATA    BYTE      decrypt
      02000083H   SYMBOL    XDATA    BYTE      mode
      00000001H   SYMBOL    DATA     ---       keyin
      02000087H   SYMBOL    XDATA    ---       ivin
      ---         BLOCKEND  ---      ---       LVL=0

      01002C6FH   BLOCK     CODE     ---       LVL=0
      01002C6FH   LINE      ---      ---       #81
      01002C7AH   LINE      ---      ---       #82
      02000082H   SYMBOL    XDATA    ---       dest_buf
      02000085H   SYMBOL    XDATA    ---       src_buf
      01002C7AH   BLOCK     CODE     NEAR LAB  LVL=1
      01002C7AH   LINE      ---      ---       #88
      01002C7FH   LINE      ---      ---       #89
      01002C7FH   LINE      ---      ---       #90
      01002C9CH   LINE      ---      ---       #91
LX51 LINKER/LOCATER V4.64.0.0                                                         09/06/2013  01:48:08  PAGE 99


      01002CA6H   LINE      ---      ---       #94
      01002CA9H   LINE      ---      ---       #95
      01002CAEH   LINE      ---      ---       #96
      01002CAEH   LINE      ---      ---       #97
      01002CB2H   LINE      ---      ---       #98
      01002CB7H   LINE      ---      ---       #99
      01002CBEH   LINE      ---      ---       #100
      01002CCAH   LINE      ---      ---       #103
      01002CCEH   LINE      ---      ---       #104
      01002CD2H   LINE      ---      ---       #105
      01002CD7H   LINE      ---      ---       #108
      01002CDCH   LINE      ---      ---       #109
      01002CDCH   LINE      ---      ---       #110
      01002CF2H   LINE      ---      ---       #111
      01002D10H   LINE      ---      ---       #112
      01002D1AH   LINE      ---      ---       #113
      00000008H   SYMBOL    DATA     ---       aes_state
      02000088H   SYMBOL    XDATA    BYTE      a
      ---         BLOCKEND  CODE     ---       LVL=1
      ---         BLOCKEND  CODE     ---       LVL=0

      01002B94H   BLOCK     CODE     ---       LVL=0
      01002B94H   LINE      ---      ---       #115
      01002B9FH   LINE      ---      ---       #116
      0200008AH   SYMBOL    XDATA    ---       key_bytes
      01002B9FH   BLOCK     CODE     NEAR LAB  LVL=1
      01002B9FH   LINE      ---      ---       #118
      01002BA1H   LINE      ---      ---       #119
      01002BA1H   LINE      ---      ---       #120
      01002BC7H   LINE      ---      ---       #121
      01002BCCH   LINE      ---      ---       #122
      00000007H   SYMBOL    DATA     BYTE      k
      ---         BLOCKEND  CODE     ---       LVL=1
      ---         BLOCKEND  CODE     ---       LVL=0

      0100316AH   BLOCK     CODE     ---       LVL=0
      0100316AH   LINE      ---      ---       #124
      0100316AH   LINE      ---      ---       #125
      0100316AH   LINE      ---      ---       #126
      01003177H   LINE      ---      ---       #127
      01003185H   LINE      ---      ---       #128
      01003194H   LINE      ---      ---       #129
      010031A3H   LINE      ---      ---       #130
      010031B2H   LINE      ---      ---       #131
      010031C1H   LINE      ---      ---       #132
      010031D0H   LINE      ---      ---       #133
      010031DFH   LINE      ---      ---       #134
      010031EEH   LINE      ---      ---       #135
      010031FDH   LINE      ---      ---       #136
      0100320CH   LINE      ---      ---       #137
      0100321BH   LINE      ---      ---       #138
      0100322AH   LINE      ---      ---       #139
      01003239H   LINE      ---      ---       #140
      01003248H   LINE      ---      ---       #141
      01003257H   LINE      ---      ---       #142
      00000007H   SYMBOL    DATA     ---       aes_state
      ---         BLOCKEND  ---      ---       LVL=0

      01002D1BH   BLOCK     CODE     ---       LVL=0
      01002D1BH   LINE      ---      ---       #144
      01002D1BH   LINE      ---      ---       #145
      01002D1BH   LINE      ---      ---       #146
      01002D31H   LINE      ---      ---       #147
      01002D40H   LINE      ---      ---       #148
      01002D4CH   LINE      ---      ---       #149
LX51 LINKER/LOCATER V4.64.0.0                                                         09/06/2013  01:48:08  PAGE 100


      01002D58H   LINE      ---      ---       #151
      01002D62H   LINE      ---      ---       #152
      01002D6CH   LINE      ---      ---       #153
      01002D76H   LINE      ---      ---       #154
      01002D80H   LINE      ---      ---       #156
      01002D8AH   LINE      ---      ---       #157
      01002D94H   LINE      ---      ---       #158
      01002D9EH   LINE      ---      ---       #159
      01002DA8H   LINE      ---      ---       #161
      01002DB2H   LINE      ---      ---       #162
      01002DBCH   LINE      ---      ---       #163
      01002DC6H   LINE      ---      ---       #164
      01002DD0H   LINE      ---      ---       #165
      00000007H   SYMBOL    DATA     BYTE      round
      ---         BLOCKEND  ---      ---       LVL=0

      01002DD1H   BLOCK     CODE     ---       LVL=0
      01002DD1H   LINE      ---      ---       #167
      01002DD1H   LINE      ---      ---       #168
      00000007H   SYMBOL    DATA     ---       aes_state
      01002DD1H   BLOCK     CODE     NEAR LAB  LVL=1
      01002DD1H   LINE      ---      ---       #171
      01002DE0H   LINE      ---      ---       #172
      01002DF2H   LINE      ---      ---       #173
      01002E04H   LINE      ---      ---       #174
      01002E16H   LINE      ---      ---       #176
      01002E25H   LINE      ---      ---       #177
      01002E39H   LINE      ---      ---       #178
      01002E4BH   LINE      ---      ---       #179
      01002E5DH   LINE      ---      ---       #180
      01002E63H   LINE      ---      ---       #182
      01002E72H   LINE      ---      ---       #183
      01002E85H   LINE      ---      ---       #184
      01002E9AH   LINE      ---      ---       #185
      01002EACH   LINE      ---      ---       #186
      01002EB7H   LINE      ---      ---       #187
      01002EBDH   LINE      ---      ---       #189
      01002ED0H   LINE      ---      ---       #190
      01002EE5H   LINE      ---      ---       #191
      01002EF7H   LINE      ---      ---       #192
      01002F09H   LINE      ---      ---       #193
      01002F0FH   LINE      ---      ---       #194
      02000089H   SYMBOL    XDATA    ---       row
      ---         BLOCKEND  CODE     ---       LVL=1
      ---         BLOCKEND  CODE     ---       LVL=0

      01003258H   BLOCK     CODE     ---       LVL=0
      01003258H   LINE      ---      ---       #196
      01003258H   LINE      ---      ---       #197
      00000007H   SYMBOL    DATA     ---       aes_state
      01003258H   BLOCK     CODE     NEAR LAB  LVL=1
      01003258H   LINE      ---      ---       #211
      01003272H   LINE      ---      ---       #213
      01003274H   LINE      ---      ---       #215
      01003278H   LINE      ---      ---       #216
      0100327AH   LINE      ---      ---       #218
      01003280H   LINE      ---      ---       #221
      0100328EH   LINE      ---      ---       #222
      01003290H   LINE      ---      ---       #224
      01003294H   LINE      ---      ---       #227
      010032A3H   LINE      ---      ---       #228
      010032A5H   LINE      ---      ---       #230
      010032A9H   LINE      ---      ---       #233
      010032B2H   LINE      ---      ---       #234
      010032B4H   LINE      ---      ---       #236
LX51 LINKER/LOCATER V4.64.0.0                                                         09/06/2013  01:48:08  PAGE 101


      010032B8H   LINE      ---      ---       #240
      010032D5H   LINE      ---      ---       #241
      010032D7H   LINE      ---      ---       #243
      010032DBH   LINE      ---      ---       #244
      010032DDH   LINE      ---      ---       #245
      010032E3H   LINE      ---      ---       #247
      010032F2H   LINE      ---      ---       #248
      010032F4H   LINE      ---      ---       #249
      010032F8H   LINE      ---      ---       #251
      01003307H   LINE      ---      ---       #252
      01003309H   LINE      ---      ---       #253
      0100330DH   LINE      ---      ---       #255
      01003316H   LINE      ---      ---       #256
      01003318H   LINE      ---      ---       #257
      0100331CH   LINE      ---      ---       #260
      01003339H   LINE      ---      ---       #261
      0100333BH   LINE      ---      ---       #263
      0100333FH   LINE      ---      ---       #264
      01003341H   LINE      ---      ---       #265
      01003347H   LINE      ---      ---       #267
      01003356H   LINE      ---      ---       #268
      01003358H   LINE      ---      ---       #269
      0100335CH   LINE      ---      ---       #271
      0100336BH   LINE      ---      ---       #272
      0100336DH   LINE      ---      ---       #273
      01003371H   LINE      ---      ---       #275
      0100337AH   LINE      ---      ---       #276
      0100337CH   LINE      ---      ---       #277
      01003380H   LINE      ---      ---       #280
      0100339BH   LINE      ---      ---       #281
      010033A1H   LINE      ---      ---       #283
      010033AFH   LINE      ---      ---       #284
      010033B1H   LINE      ---      ---       #285
      010033C1H   LINE      ---      ---       #287
      010033CFH   LINE      ---      ---       #288
      010033D1H   LINE      ---      ---       #289
      010033E1H   LINE      ---      ---       #291
      010033F0H   LINE      ---      ---       #292
      010033F2H   LINE      ---      ---       #293
      010033F6H   LINE      ---      ---       #295
      01003401H   LINE      ---      ---       #296
      01003403H   LINE      ---      ---       #297
      01003407H   LINE      ---      ---       #298
      00000003H   SYMBOL    DATA     BYTE      col
      00000005H   SYMBOL    DATA     BYTE      r
      00000006H   SYMBOL    DATA     BYTE      tmp
      ---         BLOCKEND  CODE     ---       LVL=1
      ---         BLOCKEND  CODE     ---       LVL=0

      ---         MODULE    ---      ---       HAL_FLASH
      02000085H   PUBLIC    XDATA    BYTE      ?_hal_flash_bytes_read?BYTE
      01003408H   PUBLIC    CODE     ---       _hal_flash_bytes_read
      0100283BH   PUBLIC    CODE     ---       _hal_flash_byte_read
      02000059H   PUBLIC    XDATA    BYTE      ?_hal_flash_bytes_write?BYTE
      0100290EH   PUBLIC    CODE     ---       _hal_flash_bytes_write
      010028CFH   PUBLIC    CODE     ---       _hal_flash_byte_write
      00000098H.3 SFRSYM    DATA     BIT       TB80
      000000BEH   SFRSYM    DATA     BYTE      SPISSTAT
      000000C8H   SFRSYM    DATA     BIT       T2I0
      000000C3H   SFRSYM    DATA     BYTE      CCH1
      00000080H   SFRSYM    DATA     BYTE      P0
      000000C8H.1 SFRSYM    DATA     BIT       T2I1
      000000DFH   SFRSYM    DATA     BYTE      CCPDATO
      000000C5H   SFRSYM    DATA     BYTE      CCH2
      00000090H   SFRSYM    DATA     BYTE      P1
LX51 LINKER/LOCATER V4.64.0.0                                                         09/06/2013  01:48:08  PAGE 102


      000000C7H   SFRSYM    DATA     BYTE      CCH3
      000000A0H   SFRSYM    DATA     BYTE      P2
      00000098H.5 SFRSYM    DATA     BIT       SM20
      000000B0H   SFRSYM    DATA     BYTE      P3
      000000D0H.6 SFRSYM    DATA     BIT       AC
      000000C2H   SFRSYM    DATA     BYTE      CCL1
      000000C4H   SFRSYM    DATA     BYTE      CCL2
      000000D8H.7 SFRSYM    DATA     BIT       BD
      000000B8H   SFRSYM    DATA     BIT       RFSPI
      000000A8H.7 SFRSYM    DATA     BIT       EA
      000000CCH   SFRSYM    DATA     WORD      T2
      000000C6H   SFRSYM    DATA     BYTE      CCL3
      000000B7H   SFRSYM    DATA     BYTE      SPISRDSZ
      000000C8H.3 SFRSYM    DATA     BIT       T2R0
      000000C8H.4 SFRSYM    DATA     BIT       T2R1
      000000A8H   SFRSYM    DATA     BYTE      IEN0
      000000B8H   SFRSYM    DATA     BYTE      IEN1
      000000A5H   SFRSYM    DATA     BYTE      WUCON
      00000085H   SFRSYM    DATA     BYTE      DPH1
      000000DBH   SFRSYM    DATA     BYTE      COMPCON
      000000A3H   SFRSYM    DATA     BYTE      CLKCTRL
      00000084H   SFRSYM    DATA     BYTE      DPL1
      000000C8H.5 SFRSYM    DATA     BIT       I2FR
      000000B8H.3 SFRSYM    DATA     BIT       WUPIN
      000000C8H.6 SFRSYM    DATA     BIT       I3FR
      000000FFH   SFRSYM    DATA     BYTE      SPIMDAT
      000000C0H.7 SFRSYM    DATA     BIT       EXF2
      00000098H.4 SFRSYM    DATA     BIT       REN0
      000000C8H.2 SFRSYM    DATA     BIT       T2CM
      000000B8H.1 SFRSYM    DATA     BIT       RF
      000000B8H.5 SFRSYM    DATA     BIT       WUIRQ
      000000E7H   SFRSYM    DATA     BYTE      SPIRDAT
      000000C1H   SFRSYM    DATA     BYTE      CCEN
      000000E2H   SFRSYM    DATA     BYTE      W2CON0
      000000BFH   SFRSYM    DATA     BYTE      SPISDAT
      000000D0H.7 SFRSYM    DATA     BIT       CY
      000000E1H   SFRSYM    DATA     BYTE      W2CON1
      000000FBH   SFRSYM    DATA     BYTE      FDCR
      000000E8H   SFRSYM    DATA     BIT       RFCE
      000000CBH   SFRSYM    DATA     BYTE      CRCH
      00000081H   SFRSYM    DATA     BYTE      SP
      000000D0H.2 SFRSYM    DATA     BIT       OV
      000000CAH   SFRSYM    DATA     BYTE      CRCL
      000000ADH   SFRSYM    DATA     BYTE      CLKLFCTRL
      000000B1H   SFRSYM    DATA     BYTE      RSTREAS
      000000C8H.7 SFRSYM    DATA     BIT       T2PS
      000000F9H   SFRSYM    DATA     BYTE      FPCR
      000000B8H.4 SFRSYM    DATA     BIT       MISC
      000000A1H   SFRSYM    DATA     BYTE      PWMDC0
      000000B4H   SFRSYM    DATA     BYTE      RTC2CMP0
      000000A2H   SFRSYM    DATA     BYTE      PWMDC1
      000000B5H   SFRSYM    DATA     BYTE      RTC2CMP1
      00000080H   SFRSYM    DATA     BIT       P00
      000000BAH   SFRSYM    DATA     BYTE      S0RELH
      00000090H   SFRSYM    DATA     BIT       P10
      00000080H.1 SFRSYM    DATA     BIT       P01
      00000087H   SFRSYM    DATA     BYTE      PCON
      000000A0H   SFRSYM    DATA     BIT       P20
      00000090H.1 SFRSYM    DATA     BIT       P11
      00000080H.2 SFRSYM    DATA     BIT       P02
      000000B0H   SFRSYM    DATA     BIT       P30
      000000A0H.1 SFRSYM    DATA     BIT       P21
      00000090H.2 SFRSYM    DATA     BIT       P12
      00000080H.3 SFRSYM    DATA     BIT       P03
      000000C0H.2 SFRSYM    DATA     BIT       SPIF
LX51 LINKER/LOCATER V4.64.0.0                                                         09/06/2013  01:48:08  PAGE 103


      000000F8H.2 SFRSYM    DATA     BIT       RDIS
      000000B0H.1 SFRSYM    DATA     BIT       P31
      000000A0H.2 SFRSYM    DATA     BIT       P22
      00000090H.3 SFRSYM    DATA     BIT       P13
      00000080H.4 SFRSYM    DATA     BIT       P04
      000000AAH   SFRSYM    DATA     BYTE      S0RELL
      000000B0H.2 SFRSYM    DATA     BIT       P32
      000000A0H.3 SFRSYM    DATA     BIT       P23
      00000090H.4 SFRSYM    DATA     BIT       P14
      00000080H.5 SFRSYM    DATA     BIT       P05
      000000D9H   SFRSYM    DATA     BYTE      W2SADR
      00000089H   SFRSYM    DATA     BYTE      TMOD
      00000088H   SFRSYM    DATA     BYTE      TCON
      000000B0H.3 SFRSYM    DATA     BIT       P33
      000000A0H.4 SFRSYM    DATA     BIT       P24
      00000090H.5 SFRSYM    DATA     BIT       P15
      00000080H.6 SFRSYM    DATA     BIT       P06
      000000B0H.4 SFRSYM    DATA     BIT       P34
      000000A0H.5 SFRSYM    DATA     BIT       P25
      00000090H.6 SFRSYM    DATA     BIT       P16
      00000080H.7 SFRSYM    DATA     BIT       P07
      000000C2H   SFRSYM    DATA     WORD      CC1
      000000B0H.5 SFRSYM    DATA     BIT       P35
      000000A0H.6 SFRSYM    DATA     BIT       P26
      00000090H.7 SFRSYM    DATA     BIT       P17
      000000C4H   SFRSYM    DATA     WORD      CC2
      000000B0H.6 SFRSYM    DATA     BIT       P36
      000000A0H.7 SFRSYM    DATA     BIT       P27
      000000C6H   SFRSYM    DATA     WORD      CC3
      000000B0H.7 SFRSYM    DATA     BIT       P37
      000000E8H.2 SFRSYM    DATA     BIT       RFCKEN
      000000F8H   SFRSYM    DATA     BIT       WPEN
      000000DDH   SFRSYM    DATA     BYTE      CCPDATIA
      000000DEH   SFRSYM    DATA     BYTE      CCPDATIB
      00000088H.1 SFRSYM    DATA     BIT       IE0
      000000F8H.4 SFRSYM    DATA     BIT       RDYN
      00000088H.3 SFRSYM    DATA     BIT       IE1
      000000CFH   SFRSYM    DATA     BYTE      WUOPC0
      000000F0H   SFRSYM    DATA     BYTE      B
      000000E9H   SFRSYM    DATA     BYTE      MD0
      000000CEH   SFRSYM    DATA     BYTE      WUOPC1
      000000A7H   SFRSYM    DATA     BYTE      MEMCON
      000000EAH   SFRSYM    DATA     BYTE      MD1
      000000D7H   SFRSYM    DATA     BYTE      RNGDAT
      000000EBH   SFRSYM    DATA     BYTE      MD2
      000000ECH   SFRSYM    DATA     BYTE      MD3
      000000EDH   SFRSYM    DATA     BYTE      MD4
      000000AFH   SFRSYM    DATA     BYTE      WDSV
      000000EEH   SFRSYM    DATA     BYTE      MD5
      000000E0H   SFRSYM    DATA     BYTE      ACC
      000000DCH   SFRSYM    DATA     BYTE      POFCON
      000000A8H.4 SFRSYM    DATA     BIT       ES0
      000000A8H.1 SFRSYM    DATA     BIT       ET0
      000000A9H   SFRSYM    DATA     BYTE      IP0
      000000A8H.3 SFRSYM    DATA     BIT       ET1
      00000088H.5 SFRSYM    DATA     BIT       TF0
      000000B9H   SFRSYM    DATA     BYTE      IP1
      000000A8H.5 SFRSYM    DATA     BIT       ET2
      00000098H   SFRSYM    DATA     BIT       RI0
      00000088H.7 SFRSYM    DATA     BIT       TF1
      000000C0H   SFRSYM    DATA     BIT       RFSPIF
      000000C0H.6 SFRSYM    DATA     BIT       TF2
      000000FCH   SFRSYM    DATA     BYTE      SPIMCON0
      000000D6H   SFRSYM    DATA     BYTE      RNGCTL
      0000008CH   SFRSYM    DATA     BYTE      TH0
LX51 LINKER/LOCATER V4.64.0.0                                                         09/06/2013  01:48:08  PAGE 104


      000000A8H   SFRSYM    DATA     BIT       EX0
      00000098H.1 SFRSYM    DATA     BIT       TI0
      00000088H   SFRSYM    DATA     BIT       IT0
      000000FDH   SFRSYM    DATA     BYTE      SPIMCON1
      0000008DH   SFRSYM    DATA     BYTE      TH1
      000000A8H.2 SFRSYM    DATA     BIT       EX1
      00000088H.2 SFRSYM    DATA     BIT       IT1
      000000CDH   SFRSYM    DATA     BYTE      TH2
      000000AEH   SFRSYM    DATA     BYTE      OPMCON
      000000D0H   SFRSYM    DATA     BIT       P
      00000098H.7 SFRSYM    DATA     BIT       SM0
      0000008AH   SFRSYM    DATA     BYTE      TL0
      00000098H.6 SFRSYM    DATA     BIT       SM1
      000000E4H   SFRSYM    DATA     BYTE      SPIRCON0
      0000008BH   SFRSYM    DATA     BYTE      TL1
      000000E5H   SFRSYM    DATA     BYTE      SPIRCON1
      000000CCH   SFRSYM    DATA     BYTE      TL2
      000000BCH   SFRSYM    DATA     BYTE      SPISCON0
      000000BDH   SFRSYM    DATA     BYTE      SPISCON1
      000000D0H.3 SFRSYM    DATA     BIT       RS0
      00000088H.4 SFRSYM    DATA     BIT       TR0
      000000D0H.4 SFRSYM    DATA     BIT       RS1
      000000B2H   SFRSYM    DATA     BYTE      PWMCON
      00000088H.6 SFRSYM    DATA     BIT       TR1
      000000CAH   SFRSYM    DATA     WORD      CRC
      000000A6H   SFRSYM    DATA     BYTE      INTEXP
      000000C0H.3 SFRSYM    DATA     BIT       WUPINF
      000000FAH   SFRSYM    DATA     BYTE      FCR
      000000D3H   SFRSYM    DATA     BYTE      ADCCON1
      000000D2H   SFRSYM    DATA     BYTE      ADCCON2
      00000083H   SFRSYM    DATA     BYTE      DPH
      000000D1H   SFRSYM    DATA     BYTE      ADCCON3
      000000C0H.1 SFRSYM    DATA     BIT       RFF
      00000093H   SFRSYM    DATA     BYTE      P0DIR
      00000082H   SFRSYM    DATA     BYTE      DPL
      0000009EH   SFRSYM    DATA     BYTE      P0CON
      00000099H   SFRSYM    DATA     BYTE      S0BUF
      00000094H   SFRSYM    DATA     BYTE      P1DIR
      0000009FH   SFRSYM    DATA     BYTE      P1CON
      00000095H   SFRSYM    DATA     BYTE      P2DIR
      000000B8H.7 SFRSYM    DATA     BIT       EXEN2
      000000DAH   SFRSYM    DATA     BYTE      W2DAT
      00000097H   SFRSYM    DATA     BYTE      P2CON
      00000096H   SFRSYM    DATA     BYTE      P3DIR
      000000A4H   SFRSYM    DATA     BYTE      PWRDWN
      00000098H   SFRSYM    DATA     BYTE      S0CON
      0000008FH   SFRSYM    DATA     BYTE      P3CON
      000000B6H   SFRSYM    DATA     BYTE      RTC2CPT00
      000000D8H   SFRSYM    DATA     BYTE      ADCON
      000000ACH   SFRSYM    DATA     BYTE      RTC2CPT10
      000000ABH   SFRSYM    DATA     BYTE      RTC2CPT01
      000000C8H   SFRSYM    DATA     BYTE      T2CON
      00000092H   SFRSYM    DATA     BYTE      DPS
      000000F8H.5 SFRSYM    DATA     BIT       WEN
      000000F8H   SFRSYM    DATA     BYTE      FSR
      000000D4H   SFRSYM    DATA     BYTE      ADCDATH
      000000C9H   SFRSYM    DATA     BYTE      MPAGE
      000000B8H.2 SFRSYM    DATA     BIT       SPI
      000000F8H.1 SFRSYM    DATA     BIT       RDEND
      000000D5H   SFRSYM    DATA     BYTE      ADCDATL
      000000F8H.3 SFRSYM    DATA     BIT       INFEN
      000000F8H.7 SFRSYM    DATA     BIT       MCDIS
      000000C0H.5 SFRSYM    DATA     BIT       WUF
      000000C0H.4 SFRSYM    DATA     BIT       MISCF
      000000EFH   SFRSYM    DATA     BYTE      ARCON
LX51 LINKER/LOCATER V4.64.0.0                                                         09/06/2013  01:48:08  PAGE 105


      000000D0H.5 SFRSYM    DATA     BIT       F0
      000000F8H.6 SFRSYM    DATA     BIT       STP
      000000FEH   SFRSYM    DATA     BYTE      SPIMSTAT
      000000E8H   SFRSYM    DATA     BYTE      RFCON
      000000D0H   SFRSYM    DATA     BYTE      PSW
      00000098H.2 SFRSYM    DATA     BIT       RB80
      000000C0H   SFRSYM    DATA     BYTE      IRCON
      000000E8H.1 SFRSYM    DATA     BIT       RFCSN
      000000E6H   SFRSYM    DATA     BYTE      SPIRSTAT
      000000B3H   SFRSYM    DATA     BYTE      RTC2CON
      00000007H   SYMBOL    DATA     BYTE      pn

      010028CFH   BLOCK     CODE     ---       LVL=0
      010028CFH   LINE      ---      ---       #44
      010028CFH   LINE      ---      ---       #45
      00000006H   SYMBOL    DATA     WORD      a
      00000005H   SYMBOL    DATA     BYTE      b
      010028CFH   BLOCK     CODE     NEAR LAB  LVL=1
      010028CFH   LINE      ---      ---       #49
      010028D3H   LINE      ---      ---       #50
      010028D5H   LINE      ---      ---       #53
      010028D7H   LINE      ---      ---       #58
      010028DFH   LINE      ---      ---       #59
      010028E5H   LINE      ---      ---       #62
      010028E8H   LINE      ---      ---       #65
      010028EAH   LINE      ---      ---       #67
      010028EEH   LINE      ---      ---       #68
      02000132H   SYMBOL    XDATA    ---       pb
      ---         BLOCKEND  CODE     ---       LVL=1
      ---         BLOCKEND  CODE     ---       LVL=0

      0100290EH   BLOCK     CODE     ---       LVL=0
      0100290EH   LINE      ---      ---       #70
      01002919H   LINE      ---      ---       #71
      00000006H   SYMBOL    DATA     WORD      a
      0200005BH   SYMBOL    XDATA    ---       p
      0200005EH   SYMBOL    XDATA    WORD      n
      01002919H   BLOCK     CODE     NEAR LAB  LVL=1
      01002919H   LINE      ---      ---       #75
      0100291DH   LINE      ---      ---       #76
      0100291FH   LINE      ---      ---       #79
      01002921H   LINE      ---      ---       #84
      01002929H   LINE      ---      ---       #85
      01002937H   LINE      ---      ---       #86
      01002937H   LINE      ---      ---       #87
      0100295CH   LINE      ---      ---       #91
      01002961H   LINE      ---      ---       #95
      01002963H   LINE      ---      ---       #97
      01002967H   LINE      ---      ---       #98
      02000134H   SYMBOL    XDATA    ---       pb
      ---         BLOCKEND  CODE     ---       LVL=1
      ---         BLOCKEND  CODE     ---       LVL=0

      0100282FH   BLOCK     CODE     ---       LVL=0
      0100283BH   LINE      ---      ---       #100
      0100283BH   LINE      ---      ---       #101
      00000006H   SYMBOL    DATA     WORD      a
      0100283BH   BLOCK     CODE     NEAR LAB  LVL=1
      0100283BH   LINE      ---      ---       #102
      0100283FH   LINE      ---      ---       #103
      01002841H   LINE      ---      ---       #104
      00000082H   SYMBOL    DATA     ---       pb
      ---         BLOCKEND  CODE     ---       LVL=1
      ---         BLOCKEND  CODE     ---       LVL=0

LX51 LINKER/LOCATER V4.64.0.0                                                         09/06/2013  01:48:08  PAGE 106


      01003408H   BLOCK     CODE     ---       LVL=0
      01003408H   LINE      ---      ---       #106
      01003408H   LINE      ---      ---       #107
      00000006H   SYMBOL    DATA     WORD      a
      00000001H   SYMBOL    DATA     ---       p
      0200008AH   SYMBOL    XDATA    WORD      n
      01003408H   BLOCK     CODE     NEAR LAB  LVL=1
      01003408H   LINE      ---      ---       #108
      01003408H   LINE      ---      ---       #109
      01003416H   LINE      ---      ---       #110
      01003416H   LINE      ---      ---       #111
      0100341EH   LINE      ---      ---       #112
      01003423H   LINE      ---      ---       #113
      0100342AH   LINE      ---      ---       #114
      0100342CH   LINE      ---      ---       #115
      00000006H   SYMBOL    DATA     ---       pb
      ---         BLOCKEND  CODE     ---       LVL=1
      ---         BLOCKEND  CODE     ---       LVL=0

      ---         MODULE    ---      ---       HAL_RNG
      010028FDH   PUBLIC    CODE     ---       hal_rng_data_ready
      010028FAH   PUBLIC    CODE     ---       hal_rng_read
      010028EFH   PUBLIC    CODE     ---       _hal_rng_power_up
      00000098H.3 SFRSYM    DATA     BIT       TB80
      000000BEH   SFRSYM    DATA     BYTE      SPISSTAT
      000000C8H   SFRSYM    DATA     BIT       T2I0
      000000C3H   SFRSYM    DATA     BYTE      CCH1
      00000080H   SFRSYM    DATA     BYTE      P0
      000000C8H.1 SFRSYM    DATA     BIT       T2I1
      000000DFH   SFRSYM    DATA     BYTE      CCPDATO
      000000C5H   SFRSYM    DATA     BYTE      CCH2
      00000090H   SFRSYM    DATA     BYTE      P1
      000000C7H   SFRSYM    DATA     BYTE      CCH3
      000000A0H   SFRSYM    DATA     BYTE      P2
      00000098H.5 SFRSYM    DATA     BIT       SM20
      000000B0H   SFRSYM    DATA     BYTE      P3
      000000D0H.6 SFRSYM    DATA     BIT       AC
      000000C2H   SFRSYM    DATA     BYTE      CCL1
      000000C4H   SFRSYM    DATA     BYTE      CCL2
      000000D8H.7 SFRSYM    DATA     BIT       BD
      000000B8H   SFRSYM    DATA     BIT       RFSPI
      000000A8H.7 SFRSYM    DATA     BIT       EA
      000000CCH   SFRSYM    DATA     WORD      T2
      000000C6H   SFRSYM    DATA     BYTE      CCL3
      000000B7H   SFRSYM    DATA     BYTE      SPISRDSZ
      000000C8H.3 SFRSYM    DATA     BIT       T2R0
      000000C8H.4 SFRSYM    DATA     BIT       T2R1
      000000A8H   SFRSYM    DATA     BYTE      IEN0
      000000B8H   SFRSYM    DATA     BYTE      IEN1
      000000A5H   SFRSYM    DATA     BYTE      WUCON
      00000085H   SFRSYM    DATA     BYTE      DPH1
      000000DBH   SFRSYM    DATA     BYTE      COMPCON
      000000A3H   SFRSYM    DATA     BYTE      CLKCTRL
      00000084H   SFRSYM    DATA     BYTE      DPL1
      000000C8H.5 SFRSYM    DATA     BIT       I2FR
      000000B8H.3 SFRSYM    DATA     BIT       WUPIN
      000000C8H.6 SFRSYM    DATA     BIT       I3FR
      000000FFH   SFRSYM    DATA     BYTE      SPIMDAT
      000000C0H.7 SFRSYM    DATA     BIT       EXF2
      00000098H.4 SFRSYM    DATA     BIT       REN0
      000000C8H.2 SFRSYM    DATA     BIT       T2CM
      000000B8H.1 SFRSYM    DATA     BIT       RF
      000000B8H.5 SFRSYM    DATA     BIT       WUIRQ
      000000E7H   SFRSYM    DATA     BYTE      SPIRDAT
      000000C1H   SFRSYM    DATA     BYTE      CCEN
LX51 LINKER/LOCATER V4.64.0.0                                                         09/06/2013  01:48:08  PAGE 107


      000000E2H   SFRSYM    DATA     BYTE      W2CON0
      000000BFH   SFRSYM    DATA     BYTE      SPISDAT
      000000D0H.7 SFRSYM    DATA     BIT       CY
      000000E1H   SFRSYM    DATA     BYTE      W2CON1
      000000FBH   SFRSYM    DATA     BYTE      FDCR
      000000E8H   SFRSYM    DATA     BIT       RFCE
      000000CBH   SFRSYM    DATA     BYTE      CRCH
      00000081H   SFRSYM    DATA     BYTE      SP
      000000D0H.2 SFRSYM    DATA     BIT       OV
      000000CAH   SFRSYM    DATA     BYTE      CRCL
      000000ADH   SFRSYM    DATA     BYTE      CLKLFCTRL
      000000B1H   SFRSYM    DATA     BYTE      RSTREAS
      000000C8H.7 SFRSYM    DATA     BIT       T2PS
      000000F9H   SFRSYM    DATA     BYTE      FPCR
      000000B8H.4 SFRSYM    DATA     BIT       MISC
      000000A1H   SFRSYM    DATA     BYTE      PWMDC0
      000000B4H   SFRSYM    DATA     BYTE      RTC2CMP0
      000000A2H   SFRSYM    DATA     BYTE      PWMDC1
      000000B5H   SFRSYM    DATA     BYTE      RTC2CMP1
      00000080H   SFRSYM    DATA     BIT       P00
      000000BAH   SFRSYM    DATA     BYTE      S0RELH
      00000090H   SFRSYM    DATA     BIT       P10
      00000080H.1 SFRSYM    DATA     BIT       P01
      00000087H   SFRSYM    DATA     BYTE      PCON
      000000A0H   SFRSYM    DATA     BIT       P20
      00000090H.1 SFRSYM    DATA     BIT       P11
      00000080H.2 SFRSYM    DATA     BIT       P02
      000000B0H   SFRSYM    DATA     BIT       P30
      000000A0H.1 SFRSYM    DATA     BIT       P21
      00000090H.2 SFRSYM    DATA     BIT       P12
      00000080H.3 SFRSYM    DATA     BIT       P03
      000000C0H.2 SFRSYM    DATA     BIT       SPIF
      000000F8H.2 SFRSYM    DATA     BIT       RDIS
      000000B0H.1 SFRSYM    DATA     BIT       P31
      000000A0H.2 SFRSYM    DATA     BIT       P22
      00000090H.3 SFRSYM    DATA     BIT       P13
      00000080H.4 SFRSYM    DATA     BIT       P04
      000000AAH   SFRSYM    DATA     BYTE      S0RELL
      000000B0H.2 SFRSYM    DATA     BIT       P32
      000000A0H.3 SFRSYM    DATA     BIT       P23
      00000090H.4 SFRSYM    DATA     BIT       P14
      00000080H.5 SFRSYM    DATA     BIT       P05
      000000D9H   SFRSYM    DATA     BYTE      W2SADR
      00000089H   SFRSYM    DATA     BYTE      TMOD
      00000088H   SFRSYM    DATA     BYTE      TCON
      000000B0H.3 SFRSYM    DATA     BIT       P33
      000000A0H.4 SFRSYM    DATA     BIT       P24
      00000090H.5 SFRSYM    DATA     BIT       P15
      00000080H.6 SFRSYM    DATA     BIT       P06
      000000B0H.4 SFRSYM    DATA     BIT       P34
      000000A0H.5 SFRSYM    DATA     BIT       P25
      00000090H.6 SFRSYM    DATA     BIT       P16
      00000080H.7 SFRSYM    DATA     BIT       P07
      000000C2H   SFRSYM    DATA     WORD      CC1
      000000B0H.5 SFRSYM    DATA     BIT       P35
      000000A0H.6 SFRSYM    DATA     BIT       P26
      00000090H.7 SFRSYM    DATA     BIT       P17
      000000C4H   SFRSYM    DATA     WORD      CC2
      000000B0H.6 SFRSYM    DATA     BIT       P36
      000000A0H.7 SFRSYM    DATA     BIT       P27
      000000C6H   SFRSYM    DATA     WORD      CC3
      000000B0H.7 SFRSYM    DATA     BIT       P37
      000000E8H.2 SFRSYM    DATA     BIT       RFCKEN
      000000F8H   SFRSYM    DATA     BIT       WPEN
      000000DDH   SFRSYM    DATA     BYTE      CCPDATIA
LX51 LINKER/LOCATER V4.64.0.0                                                         09/06/2013  01:48:08  PAGE 108


      000000DEH   SFRSYM    DATA     BYTE      CCPDATIB
      00000088H.1 SFRSYM    DATA     BIT       IE0
      000000F8H.4 SFRSYM    DATA     BIT       RDYN
      00000088H.3 SFRSYM    DATA     BIT       IE1
      000000CFH   SFRSYM    DATA     BYTE      WUOPC0
      000000F0H   SFRSYM    DATA     BYTE      B
      000000E9H   SFRSYM    DATA     BYTE      MD0
      000000CEH   SFRSYM    DATA     BYTE      WUOPC1
      000000A7H   SFRSYM    DATA     BYTE      MEMCON
      000000EAH   SFRSYM    DATA     BYTE      MD1
      000000D7H   SFRSYM    DATA     BYTE      RNGDAT
      000000EBH   SFRSYM    DATA     BYTE      MD2
      000000ECH   SFRSYM    DATA     BYTE      MD3
      000000EDH   SFRSYM    DATA     BYTE      MD4
      000000AFH   SFRSYM    DATA     BYTE      WDSV
      000000EEH   SFRSYM    DATA     BYTE      MD5
      000000E0H   SFRSYM    DATA     BYTE      ACC
      000000DCH   SFRSYM    DATA     BYTE      POFCON
      000000A8H.4 SFRSYM    DATA     BIT       ES0
      000000A8H.1 SFRSYM    DATA     BIT       ET0
      000000A9H   SFRSYM    DATA     BYTE      IP0
      000000A8H.3 SFRSYM    DATA     BIT       ET1
      00000088H.5 SFRSYM    DATA     BIT       TF0
      000000B9H   SFRSYM    DATA     BYTE      IP1
      000000A8H.5 SFRSYM    DATA     BIT       ET2
      00000098H   SFRSYM    DATA     BIT       RI0
      00000088H.7 SFRSYM    DATA     BIT       TF1
      000000C0H   SFRSYM    DATA     BIT       RFSPIF
      000000C0H.6 SFRSYM    DATA     BIT       TF2
      000000FCH   SFRSYM    DATA     BYTE      SPIMCON0
      000000D6H   SFRSYM    DATA     BYTE      RNGCTL
      0000008CH   SFRSYM    DATA     BYTE      TH0
      000000A8H   SFRSYM    DATA     BIT       EX0
      00000098H.1 SFRSYM    DATA     BIT       TI0
      00000088H   SFRSYM    DATA     BIT       IT0
      000000FDH   SFRSYM    DATA     BYTE      SPIMCON1
      0000008DH   SFRSYM    DATA     BYTE      TH1
      000000A8H.2 SFRSYM    DATA     BIT       EX1
      00000088H.2 SFRSYM    DATA     BIT       IT1
      000000CDH   SFRSYM    DATA     BYTE      TH2
      000000AEH   SFRSYM    DATA     BYTE      OPMCON
      000000D0H   SFRSYM    DATA     BIT       P
      00000098H.7 SFRSYM    DATA     BIT       SM0
      0000008AH   SFRSYM    DATA     BYTE      TL0
      00000098H.6 SFRSYM    DATA     BIT       SM1
      000000E4H   SFRSYM    DATA     BYTE      SPIRCON0
      0000008BH   SFRSYM    DATA     BYTE      TL1
      000000E5H   SFRSYM    DATA     BYTE      SPIRCON1
      000000CCH   SFRSYM    DATA     BYTE      TL2
      000000BCH   SFRSYM    DATA     BYTE      SPISCON0
      000000BDH   SFRSYM    DATA     BYTE      SPISCON1
      000000D0H.3 SFRSYM    DATA     BIT       RS0
      00000088H.4 SFRSYM    DATA     BIT       TR0
      000000D0H.4 SFRSYM    DATA     BIT       RS1
      000000B2H   SFRSYM    DATA     BYTE      PWMCON
      00000088H.6 SFRSYM    DATA     BIT       TR1
      000000CAH   SFRSYM    DATA     WORD      CRC
      000000A6H   SFRSYM    DATA     BYTE      INTEXP
      000000C0H.3 SFRSYM    DATA     BIT       WUPINF
      000000FAH   SFRSYM    DATA     BYTE      FCR
      000000D3H   SFRSYM    DATA     BYTE      ADCCON1
      000000D2H   SFRSYM    DATA     BYTE      ADCCON2
      00000083H   SFRSYM    DATA     BYTE      DPH
      000000D1H   SFRSYM    DATA     BYTE      ADCCON3
      000000C0H.1 SFRSYM    DATA     BIT       RFF
LX51 LINKER/LOCATER V4.64.0.0                                                         09/06/2013  01:48:08  PAGE 109


      00000093H   SFRSYM    DATA     BYTE      P0DIR
      00000082H   SFRSYM    DATA     BYTE      DPL
      0000009EH   SFRSYM    DATA     BYTE      P0CON
      00000099H   SFRSYM    DATA     BYTE      S0BUF
      00000094H   SFRSYM    DATA     BYTE      P1DIR
      0000009FH   SFRSYM    DATA     BYTE      P1CON
      00000095H   SFRSYM    DATA     BYTE      P2DIR
      000000B8H.7 SFRSYM    DATA     BIT       EXEN2
      000000DAH   SFRSYM    DATA     BYTE      W2DAT
      00000097H   SFRSYM    DATA     BYTE      P2CON
      00000096H   SFRSYM    DATA     BYTE      P3DIR
      000000A4H   SFRSYM    DATA     BYTE      PWRDWN
      00000098H   SFRSYM    DATA     BYTE      S0CON
      0000008FH   SFRSYM    DATA     BYTE      P3CON
      000000B6H   SFRSYM    DATA     BYTE      RTC2CPT00
      000000D8H   SFRSYM    DATA     BYTE      ADCON
      000000ACH   SFRSYM    DATA     BYTE      RTC2CPT10
      000000ABH   SFRSYM    DATA     BYTE      RTC2CPT01
      000000C8H   SFRSYM    DATA     BYTE      T2CON
      00000092H   SFRSYM    DATA     BYTE      DPS
      000000F8H.5 SFRSYM    DATA     BIT       WEN
      000000F8H   SFRSYM    DATA     BYTE      FSR
      000000D4H   SFRSYM    DATA     BYTE      ADCDATH
      000000C9H   SFRSYM    DATA     BYTE      MPAGE
      000000B8H.2 SFRSYM    DATA     BIT       SPI
      000000F8H.1 SFRSYM    DATA     BIT       RDEND
      000000D5H   SFRSYM    DATA     BYTE      ADCDATL
      000000F8H.3 SFRSYM    DATA     BIT       INFEN
      000000F8H.7 SFRSYM    DATA     BIT       MCDIS
      000000C0H.5 SFRSYM    DATA     BIT       WUF
      000000C0H.4 SFRSYM    DATA     BIT       MISCF
      000000EFH   SFRSYM    DATA     BYTE      ARCON
      000000D0H.5 SFRSYM    DATA     BIT       F0
      000000F8H.6 SFRSYM    DATA     BIT       STP
      000000FEH   SFRSYM    DATA     BYTE      SPIMSTAT
      000000E8H   SFRSYM    DATA     BYTE      RFCON
      000000D0H   SFRSYM    DATA     BYTE      PSW
      00000098H.2 SFRSYM    DATA     BIT       RB80
      000000C0H   SFRSYM    DATA     BYTE      IRCON
      000000E8H.1 SFRSYM    DATA     BIT       RFCSN
      000000E6H   SFRSYM    DATA     BYTE      SPIRSTAT
      000000B3H   SFRSYM    DATA     BYTE      RTC2CON

      010028EFH   BLOCK     CODE     ---       LVL=0
      010028EFH   LINE      ---      ---       #25
      010028EFH   LINE      ---      ---       #26
      010028EFH   LINE      ---      ---       #27
      010028F2H   LINE      ---      ---       #28
      010028F2H   LINE      ---      ---       #29
      010028F5H   LINE      ---      ---       #30
      010028F6H   LINE      ---      ---       #32
      010028F6H   LINE      ---      ---       #33
      010028F9H   LINE      ---      ---       #34
      010028F9H   LINE      ---      ---       #35
      00000007H   SYMBOL    DATA     BYTE      pwr_up
      ---         BLOCKEND  ---      ---       LVL=0
      00000007H   SYMBOL    DATA     BYTE      en

      010028FAH   BLOCK     CODE     ---       LVL=0
      010028FAH   LINE      ---      ---       #49
      010028FAH   LINE      ---      ---       #50
      010028FAH   LINE      ---      ---       #51
      010028FCH   LINE      ---      ---       #52
      ---         BLOCKEND  ---      ---       LVL=0

LX51 LINKER/LOCATER V4.64.0.0                                                         09/06/2013  01:48:08  PAGE 110


      010028FDH   BLOCK     CODE     ---       LVL=0
      010028FDH   LINE      ---      ---       #54
      010028FDH   LINE      ---      ---       #55
      010028FDH   LINE      ---      ---       #56
      0100290DH   LINE      ---      ---       #57
      ---         BLOCKEND  ---      ---       LVL=0

      ---         MODULE    ---      ---       HAL_DELAY
      01001D0CH   PUBLIC    CODE     ---       _delay_us

      01001D02H   BLOCK     CODE     ---       LVL=0
      01001D0CH   LINE      ---      ---       #37
      01001D0CH   LINE      ---      ---       #38
      01001D0CH   LINE      ---      ---       #40
      01001D0CH   LINE      ---      ---       #41
      01001D0DH   LINE      ---      ---       #42
      01001D0EH   LINE      ---      ---       #43
      01001D0FH   LINE      ---      ---       #44
      01001D10H   LINE      ---      ---       #45
      01001D11H   LINE      ---      ---       #46
      01001D1AH   LINE      ---      ---       #47
      00000006H   SYMBOL    DATA     WORD      us
      ---         BLOCKEND  ---      ---       LVL=0
      00000004H   SYMBOL    DATA     WORD      ms

      ---         MODULE    ---      ---       ?C?FPADD
      01000075H   PUBLIC    CODE     ---       ?C?FPADD
      01000071H   PUBLIC    CODE     ---       ?C?FPSUB

      ---         MODULE    ---      ---       ?C?FPMUL
      01000166H   PUBLIC    CODE     ---       ?C?FPMUL

      ---         MODULE    ---      ---       ?C?FPDIV
      0100026FH   PUBLIC    CODE     ---       ?C?FPDIV

      ---         MODULE    ---      ---       ?C?FCAST
      01000316H   PUBLIC    CODE     ---       ?C?FCASTC
      01000311H   PUBLIC    CODE     ---       ?C?FCASTI
      0100030CH   PUBLIC    CODE     ---       ?C?FCASTL

      ---         MODULE    ---      ---       ?C?CASTF
      0100034AH   PUBLIC    CODE     ---       ?C?CASTF

      ---         MODULE    ---      ---       ?C?FPGETOPN
      01000381H   PUBLIC    CODE     ---       ?C?FPGETOPN2
      010003B6H   PUBLIC    CODE     ---       ?C?FPNANRESULT
      010003C0H   PUBLIC    CODE     ---       ?C?FPOVERFLOW
      01000398H   PUBLIC    CODE     ---       ?C?FPRESULT
      010003ACH   PUBLIC    CODE     ---       ?C?FPRESULT2
      010003BDH   PUBLIC    CODE     ---       ?C?FPUNDERFLOW

      ---         MODULE    ---      ---       ?C_STARTUP
      01000000H   PUBLIC    CODE     ---       ?C_STARTUP

      ---         MODULE    ---      ---       ?C?CLDPTR
      010003CBH   PUBLIC    CODE     ---       ?C?CLDPTR

      ---         MODULE    ---      ---       ?C?CLDOPTR
      010003E4H   PUBLIC    CODE     ---       ?C?CLDOPTR

      ---         MODULE    ---      ---       ?C?CILDOPTR
      01000411H   PUBLIC    CODE     ---       ?C?CILDOPTR

      ---         MODULE    ---      ---       ?C?CSTPTR
      01000444H   PUBLIC    CODE     ---       ?C?CSTPTR
LX51 LINKER/LOCATER V4.64.0.0                                                         09/06/2013  01:48:08  PAGE 111



      ---         MODULE    ---      ---       ?C?CSTOPTR
      01000456H   PUBLIC    CODE     ---       ?C?CSTOPTR

      ---         MODULE    ---      ---       ?C?IMUL
      01000478H   PUBLIC    CODE     ---       ?C?IMUL

      ---         MODULE    ---      ---       ?C?UIDIV
      0100048AH   PUBLIC    CODE     ---       ?C?UIDIV

      ---         MODULE    ---      ---       ?C?IILDX
      010004DFH   PUBLIC    CODE     ---       ?C?IILDX

      ---         MODULE    ---      ---       ?C?ILDIX
      010004F5H   PUBLIC    CODE     ---       ?C?ILDIX

      ---         MODULE    ---      ---       ?C?LNEG
      0100050BH   PUBLIC    CODE     ---       ?C?LNEG

      ---         MODULE    ---      ---       ?C?MEMCMPE2
      01000677H   PUBLIC    CODE     ---       ?C?MEMCMPE2

      ---         MODULE    ---      ---       ?C?COPYE2
      01000757H   PUBLIC    CODE     ---       ?C?COPYE2

      ---         MODULE    ---      ---       ?C_INIT
      010007C4H   PUBLIC    CODE     ---       ?C_START



FUNCTION REGISTER MASKS


FUNCTION . . . . . . . . . . . . . . . REG MASK
================================================

_delay_ms. . . . . . . . . . . . . . . @0x080008f0
_delay_us. . . . . . . . . . . . . . . @0x080008c0
_gzll_delay_50us . . . . . . . . . . . @0x180008f4
_gzll_get_param. . . . . . . . . . . . @0x1e0008c0
_gzp_crypt_select_key. . . . . . . . . @0x0e000800
_gzp_crypt_set_dyn_key . . . . . . . . @0x3e000cff
_gzp_crypt_set_session_token . . . . . @0x3e000cff
_gzp_generate_channels . . . . . . . . @0x1e000cff
_gzp_xor_cipher. . . . . . . . . . . . @0x1e000ccf
_hal_clk_regret_xosc16m_on . . . . . . @0x08000800
_hal_clk_set_16m_source. . . . . . . . @0x08000880
_hal_clk_set_freq. . . . . . . . . . . @0x08000880
_hal_clk_set_input . . . . . . . . . . @0x18000880
_hal_clklf_set_source. . . . . . . . . @0x08000880
_hal_flash_byte_read . . . . . . . . . @0x0e000880
_hal_flash_byte_write. . . . . . . . . @0x1e000800
_hal_flash_bytes_read. . . . . . . . . @0x1e000cc7
_hal_flash_bytes_write . . . . . . . . @0x1e000c8f
_hal_flash_page_erase. . . . . . . . . @0x18000000
_hal_nrf_read_reg. . . . . . . . . . . @0x08000880
_hal_nrf_rw. . . . . . . . . . . . . . @0x08000880
_hal_nrf_write_multibyte_reg . . . . . @0x1e000c6f
_hal_nrf_write_reg . . . . . . . . . . @0x1e0008c0
_hal_rng_bias_corr_enable. . . . . . . @0x08000800
_hal_rng_power_up. . . . . . . . . . . @0x08000800
_hal_rtc_radio_capture_enable. . . . . @0x08000800
_hal_rtc_set_compare_mode. . . . . . . @0x18000880
_hal_rtc_set_compare_value . . . . . . @0x080008a0
_hal_rtc_start . . . . . . . . . . . . @0x08000800
LX51 LINKER/LOCATER V4.64.0.0                                                         09/06/2013  01:48:08  PAGE 112


gzll_get_channel_tab_size. . . . . . . @0x0e000880
gzll_get_state . . . . . . . . . . . . @0x0e000880
gzll_get_tx_attempts . . . . . . . . . @0x0e0008c0
gzll_get_tx_channel_switches . . . . . @0x0e0008c0
gzll_radio_active. . . . . . . . . . . @0x18000880
gzll_rx_power_high . . . . . . . . . . @0x18000880
gzll_tx_success. . . . . . . . . . . . @0x18000880
gzp_address_exchanged. . . . . . . . . @0x0e000880
gzp_crypt_user_data_received . . . . . @0x1e000880
gzp_id_req_cancel. . . . . . . . . . . @0x0e000880
gzp_id_req_grant . . . . . . . . . . . @0x0e000880
gzp_id_req_received. . . . . . . . . . @0x0e000880
gzp_id_req_reject. . . . . . . . . . . @0x0e000880
hal_clk_get_16m_source . . . . . . . . @0x08000880
hal_clklf_phase. . . . . . . . . . . . @0x08000880
hal_clklf_ready. . . . . . . . . . . . @0x08000880
hal_nrf_activate_features. . . . . . . @0x80000000
hal_rng_data_ready . . . . . . . . . . @0x18000880
hal_rng_read . . . . . . . . . . . . . @0x08000080
hal_rtc_capture. . . . . . . . . . . . @0x80000000
hal_rtc_get_capture_clock_cycles . . . @0x08000080
hal_rtc_get_capture_value. . . . . . . @0x080008e2
hal_rtc_get_compare_value. . . . . . . @0x080008e2



RE-TRANSLATION LIST FOR OPTIMAL REGISTER MASKS


MESSAGE                         MODULE
   INFORMATION
--------------------------------------

** RE-TRANSLATION SUGGESTED **  .\build\main.obj (MAIN)
   REG MASK (@0xffffffff) IS TOO PESSIMISTIC FOR FUNCTION 'gzp_id_req_received'
   REG MASK (@0xffffffff) IS TOO PESSIMISTIC FOR FUNCTION '_gzll_get_param'
   REG MASK (@0xffffffff) IS TOO PESSIMISTIC FOR FUNCTION 'gzp_crypt_user_data_received'
   REG MASK (@0xffffffff) IS TOO PESSIMISTIC FOR FUNCTION 'gzp_id_req_grant'

** RE-TRANSLATION SUGGESTED **  .\build\gzll_mcu.obj (GZLL_MCU)
   REG MASK (@0xffffffff) IS TOO PESSIMISTIC FOR FUNCTION '_hal_clk_regret_xosc16m_on'
   REG MASK (@0xffffffff) IS TOO PESSIMISTIC FOR FUNCTION '_hal_rtc_start'
   REG MASK (@0xffffffff) IS TOO PESSIMISTIC FOR FUNCTION '_hal_rtc_set_compare_mode'
   REG MASK (@0xffffffff) IS TOO PESSIMISTIC FOR FUNCTION '_hal_rtc_set_compare_value'
   REG MASK (@0xffffffff) IS TOO PESSIMISTIC FOR FUNCTION '_hal_clklf_set_source'
   REG MASK (@0xffffffff) IS TOO PESSIMISTIC FOR FUNCTION 'hal_clk_get_16m_source'

** RE-TRANSLATION SUGGESTED **  .\build\gzll.obj (GZLL)
   REG MASK (@0xffffffff) IS TOO PESSIMISTIC FOR FUNCTION '_delay_us'

** RE-TRANSLATION SUGGESTED **  .\build\gzp_host.obj (GZP_HOST)
   REG MASK (@0xffffffff) IS TOO PESSIMISTIC FOR FUNCTION '_gzp_crypt_select_key'
   REG MASK (@0xffffffff) IS TOO PESSIMISTIC FOR FUNCTION '_gzp_crypt_set_dyn_key'
   REG MASK (@0xffffffff) IS TOO PESSIMISTIC FOR FUNCTION '_gzp_xor_cipher'
   REG MASK (@0xffffffff) IS TOO PESSIMISTIC FOR FUNCTION 'gzll_get_state'
   REG MASK (@0xffffffff) IS TOO PESSIMISTIC FOR FUNCTION '_gzll_get_param'
   REG MASK (@0xffffffff) IS TOO PESSIMISTIC FOR FUNCTION '_hal_flash_byte_write'
   REG MASK (@0xffffffff) IS TOO PESSIMISTIC FOR FUNCTION '_hal_flash_bytes_write'
   REG MASK (@0xffffffff) IS TOO PESSIMISTIC FOR FUNCTION '_hal_flash_byte_read'
   REG MASK (@0xffffffff) IS TOO PESSIMISTIC FOR FUNCTION '_hal_flash_bytes_read'
   REG MASK (@0xffffffff) IS TOO PESSIMISTIC FOR FUNCTION 'gzll_rx_power_high'
   REG MASK (@0xffffffff) IS TOO PESSIMISTIC FOR FUNCTION '_gzp_crypt_set_session_token'

** RE-TRANSLATION SUGGESTED **  .\build\gzp.obj (GZP)
   REG MASK (@0xffffffff) IS TOO PESSIMISTIC FOR FUNCTION 'gzll_get_channel_tab_size'
LX51 LINKER/LOCATER V4.64.0.0                                                         09/06/2013  01:48:08  PAGE 113



** RE-TRANSLATION SUGGESTED **  .\build\gzp_host_le1.obj (GZP_HOST_LE1)
   REG MASK (@0xffffffff) IS TOO PESSIMISTIC FOR FUNCTION 'hal_rng_read'
   REG MASK (@0xffffffff) IS TOO PESSIMISTIC FOR FUNCTION 'hal_rng_data_ready'
   REG MASK (@0xffffffff) IS TOO PESSIMISTIC FOR FUNCTION '_hal_flash_byte_write'
   REG MASK (@0xffffffff) IS TOO PESSIMISTIC FOR FUNCTION '_hal_flash_byte_read'
   REG MASK (@0xffffffff) IS TOO PESSIMISTIC FOR FUNCTION '_hal_rng_power_up'

** RE-TRANSLATION SUGGESTED **  .\build\hal_nrf.obj (HAL_NRF)
   REG MASK (@0xffffffff) IS TOO PESSIMISTIC FOR FUNCTION '_hal_nrf_rw'



*** WARNING L30: MEMORY SPACE OVERLAP
    FROM:    C:0017F0H   
    TO:      C:0017FAH   

*** WARNING L30: MEMORY SPACE OVERLAP
    FROM:    C:0017FAH   
    TO:      C:0017FBH   

******************************************************************************
* RESTRICTED VERSION WITH 0800H BYTE CODE SIZE LIMIT; USED: 2483H BYTE (456%) *
******************************************************************************

Program Size: data=27.0 xdata=319 const=328 code=10970


*** WARNING L30: MEMORY SPACE OVERLAP
    FROM:    C:0017F0H   
    TO:      C:0017FAH   

*** WARNING L30: MEMORY SPACE OVERLAP
    FROM:    C:0017FAH   
    TO:      C:0017FBH   

*** ERROR L250: CODE SIZE LIMIT IN RESTRICTED VERSION EXCEEDED
    LIMIT:   0800H BYTES
